
gh-iot.elf:     file format elf32-avr

Sections:
Idx Name          Size      VMA       LMA       File off  Algn
  0 .data         000006b2  00800200  00007454  000074e8  2**0
                  CONTENTS, ALLOC, LOAD, DATA
  1 .text         00007454  00000000  00000000  00000094  2**1
                  CONTENTS, ALLOC, LOAD, READONLY, CODE
  2 .bss          00000d03  008008b2  008008b2  00007b9a  2**0
                  ALLOC
  3 .comment      0000005c  00000000  00000000  00007b9a  2**0
                  CONTENTS, READONLY
  4 .note.gnu.avr.deviceinfo 00000040  00000000  00000000  00007bf8  2**2
                  CONTENTS, READONLY
  5 .debug_aranges 00000bd0  00000000  00000000  00007c38  2**0
                  CONTENTS, READONLY, DEBUGGING
  6 .debug_info   0000f32d  00000000  00000000  00008808  2**0
                  CONTENTS, READONLY, DEBUGGING
  7 .debug_abbrev 000040c2  00000000  00000000  00017b35  2**0
                  CONTENTS, READONLY, DEBUGGING
  8 .debug_line   00007aa0  00000000  00000000  0001bbf7  2**0
                  CONTENTS, READONLY, DEBUGGING
  9 .debug_frame  00002a34  00000000  00000000  00023698  2**2
                  CONTENTS, READONLY, DEBUGGING
 10 .debug_str    00004979  00000000  00000000  000260cc  2**0
                  CONTENTS, READONLY, DEBUGGING
 11 .debug_loc    0000dc76  00000000  00000000  0002aa45  2**0
                  CONTENTS, READONLY, DEBUGGING
 12 .debug_ranges 00000c58  00000000  00000000  000386bb  2**0
                  CONTENTS, READONLY, DEBUGGING

Disassembly of section .text:

00000000 <__vectors>:
       0:	90 c2       	rjmp	.+1312   	; 0x522 <__ctors_end>
       2:	00 00       	nop
       4:	af c2       	rjmp	.+1374   	; 0x564 <__bad_interrupt>
       6:	00 00       	nop
       8:	ad c2       	rjmp	.+1370   	; 0x564 <__bad_interrupt>
       a:	00 00       	nop
       c:	ab c2       	rjmp	.+1366   	; 0x564 <__bad_interrupt>
       e:	00 00       	nop
      10:	a9 c2       	rjmp	.+1362   	; 0x564 <__bad_interrupt>
      12:	00 00       	nop
      14:	a7 c2       	rjmp	.+1358   	; 0x564 <__bad_interrupt>
      16:	00 00       	nop
      18:	a5 c2       	rjmp	.+1354   	; 0x564 <__bad_interrupt>
      1a:	00 00       	nop
      1c:	a3 c2       	rjmp	.+1350   	; 0x564 <__bad_interrupt>
      1e:	00 00       	nop
      20:	a1 c2       	rjmp	.+1346   	; 0x564 <__bad_interrupt>
      22:	00 00       	nop
      24:	9f c2       	rjmp	.+1342   	; 0x564 <__bad_interrupt>
      26:	00 00       	nop
      28:	9d c2       	rjmp	.+1338   	; 0x564 <__bad_interrupt>
      2a:	00 00       	nop
      2c:	9b c2       	rjmp	.+1334   	; 0x564 <__bad_interrupt>
      2e:	00 00       	nop
      30:	0c 94 60 0b 	jmp	0x16c0	; 0x16c0 <__vector_12>
      34:	97 c2       	rjmp	.+1326   	; 0x564 <__bad_interrupt>
      36:	00 00       	nop
      38:	95 c2       	rjmp	.+1322   	; 0x564 <__bad_interrupt>
      3a:	00 00       	nop
      3c:	93 c2       	rjmp	.+1318   	; 0x564 <__bad_interrupt>
      3e:	00 00       	nop
      40:	91 c2       	rjmp	.+1314   	; 0x564 <__bad_interrupt>
      42:	00 00       	nop
      44:	8f c2       	rjmp	.+1310   	; 0x564 <__bad_interrupt>
      46:	00 00       	nop
      48:	8d c2       	rjmp	.+1306   	; 0x564 <__bad_interrupt>
      4a:	00 00       	nop
      4c:	8b c2       	rjmp	.+1302   	; 0x564 <__bad_interrupt>
      4e:	00 00       	nop
      50:	89 c2       	rjmp	.+1298   	; 0x564 <__bad_interrupt>
      52:	00 00       	nop
      54:	0c 94 d2 23 	jmp	0x47a4	; 0x47a4 <__vector_21>
      58:	85 c2       	rjmp	.+1290   	; 0x564 <__bad_interrupt>
      5a:	00 00       	nop
      5c:	83 c2       	rjmp	.+1286   	; 0x564 <__bad_interrupt>
      5e:	00 00       	nop
      60:	0c 94 63 2f 	jmp	0x5ec6	; 0x5ec6 <__vector_24>
      64:	0c 94 44 2b 	jmp	0x5688	; 0x5688 <__vector_25>
      68:	0c 94 96 2b 	jmp	0x572c	; 0x572c <__vector_26>
      6c:	7b c2       	rjmp	.+1270   	; 0x564 <__bad_interrupt>
      6e:	00 00       	nop
      70:	79 c2       	rjmp	.+1266   	; 0x564 <__bad_interrupt>
      72:	00 00       	nop
      74:	77 c2       	rjmp	.+1262   	; 0x564 <__bad_interrupt>
      76:	00 00       	nop
      78:	75 c2       	rjmp	.+1258   	; 0x564 <__bad_interrupt>
      7a:	00 00       	nop
      7c:	73 c2       	rjmp	.+1254   	; 0x564 <__bad_interrupt>
      7e:	00 00       	nop
      80:	71 c2       	rjmp	.+1250   	; 0x564 <__bad_interrupt>
      82:	00 00       	nop
      84:	6f c2       	rjmp	.+1246   	; 0x564 <__bad_interrupt>
      86:	00 00       	nop
      88:	6d c2       	rjmp	.+1242   	; 0x564 <__bad_interrupt>
      8a:	00 00       	nop
      8c:	6b c2       	rjmp	.+1238   	; 0x564 <__bad_interrupt>
      8e:	00 00       	nop
      90:	0c 94 da 2b 	jmp	0x57b4	; 0x57b4 <__vector_36>
      94:	0c 94 2c 2c 	jmp	0x5858	; 0x5858 <__vector_37>
      98:	65 c2       	rjmp	.+1226   	; 0x564 <__bad_interrupt>
      9a:	00 00       	nop
      9c:	0c 94 ff 31 	jmp	0x63fe	; 0x63fe <__vector_39>
      a0:	61 c2       	rjmp	.+1218   	; 0x564 <__bad_interrupt>
      a2:	00 00       	nop
      a4:	5f c2       	rjmp	.+1214   	; 0x564 <__bad_interrupt>
      a6:	00 00       	nop
      a8:	5d c2       	rjmp	.+1210   	; 0x564 <__bad_interrupt>
      aa:	00 00       	nop
      ac:	5b c2       	rjmp	.+1206   	; 0x564 <__bad_interrupt>
      ae:	00 00       	nop
      b0:	59 c2       	rjmp	.+1202   	; 0x564 <__bad_interrupt>
      b2:	00 00       	nop
      b4:	57 c2       	rjmp	.+1198   	; 0x564 <__bad_interrupt>
      b6:	00 00       	nop
      b8:	55 c2       	rjmp	.+1194   	; 0x564 <__bad_interrupt>
      ba:	00 00       	nop
      bc:	53 c2       	rjmp	.+1190   	; 0x564 <__bad_interrupt>
      be:	00 00       	nop
      c0:	51 c2       	rjmp	.+1186   	; 0x564 <__bad_interrupt>
      c2:	00 00       	nop
      c4:	4f c2       	rjmp	.+1182   	; 0x564 <__bad_interrupt>
      c6:	00 00       	nop
      c8:	4d c2       	rjmp	.+1178   	; 0x564 <__bad_interrupt>
      ca:	00 00       	nop
      cc:	0c 94 70 2c 	jmp	0x58e0	; 0x58e0 <__vector_51>
      d0:	0c 94 c2 2c 	jmp	0x5984	; 0x5984 <__vector_52>
      d4:	47 c2       	rjmp	.+1166   	; 0x564 <__bad_interrupt>
      d6:	00 00       	nop
      d8:	0c 94 06 2d 	jmp	0x5a0c	; 0x5a0c <__vector_54>
      dc:	0c 94 58 2d 	jmp	0x5ab0	; 0x5ab0 <__vector_55>
      e0:	41 c2       	rjmp	.+1154   	; 0x564 <__bad_interrupt>
      e2:	00 00       	nop
      e4:	07 02       	muls	r16, r23
      e6:	07 02       	muls	r16, r23
      e8:	07 02       	muls	r16, r23
      ea:	41 02       	muls	r20, r17
      ec:	49 02       	muls	r20, r25
      ee:	5f 02       	muls	r21, r31
      f0:	07 02       	muls	r16, r23
      f2:	07 02       	muls	r16, r23
      f4:	41 02       	muls	r20, r17
      f6:	49 02       	muls	r20, r25
      f8:	21 32       	cpi	r18, 0x21	; 33
      fa:	91 32       	cpi	r25, 0x21	; 33
      fc:	91 32       	cpi	r25, 0x21	; 33
      fe:	91 32       	cpi	r25, 0x21	; 33
     100:	91 32       	cpi	r25, 0x21	; 33
     102:	91 32       	cpi	r25, 0x21	; 33
     104:	91 32       	cpi	r25, 0x21	; 33
     106:	91 32       	cpi	r25, 0x21	; 33
     108:	21 32       	cpi	r18, 0x21	; 33
     10a:	91 32       	cpi	r25, 0x21	; 33
     10c:	91 32       	cpi	r25, 0x21	; 33
     10e:	91 32       	cpi	r25, 0x21	; 33
     110:	91 32       	cpi	r25, 0x21	; 33
     112:	91 32       	cpi	r25, 0x21	; 33
     114:	91 32       	cpi	r25, 0x21	; 33
     116:	91 32       	cpi	r25, 0x21	; 33
     118:	23 32       	cpi	r18, 0x23	; 35
     11a:	91 32       	cpi	r25, 0x21	; 33
     11c:	91 32       	cpi	r25, 0x21	; 33
     11e:	91 32       	cpi	r25, 0x21	; 33
     120:	91 32       	cpi	r25, 0x21	; 33
     122:	91 32       	cpi	r25, 0x21	; 33
     124:	91 32       	cpi	r25, 0x21	; 33
     126:	91 32       	cpi	r25, 0x21	; 33
     128:	91 32       	cpi	r25, 0x21	; 33
     12a:	91 32       	cpi	r25, 0x21	; 33
     12c:	91 32       	cpi	r25, 0x21	; 33
     12e:	91 32       	cpi	r25, 0x21	; 33
     130:	91 32       	cpi	r25, 0x21	; 33
     132:	91 32       	cpi	r25, 0x21	; 33
     134:	91 32       	cpi	r25, 0x21	; 33
     136:	91 32       	cpi	r25, 0x21	; 33
     138:	23 32       	cpi	r18, 0x23	; 35
     13a:	91 32       	cpi	r25, 0x21	; 33
     13c:	91 32       	cpi	r25, 0x21	; 33
     13e:	91 32       	cpi	r25, 0x21	; 33
     140:	91 32       	cpi	r25, 0x21	; 33
     142:	91 32       	cpi	r25, 0x21	; 33
     144:	91 32       	cpi	r25, 0x21	; 33
     146:	91 32       	cpi	r25, 0x21	; 33
     148:	91 32       	cpi	r25, 0x21	; 33
     14a:	91 32       	cpi	r25, 0x21	; 33
     14c:	91 32       	cpi	r25, 0x21	; 33
     14e:	91 32       	cpi	r25, 0x21	; 33
     150:	91 32       	cpi	r25, 0x21	; 33
     152:	91 32       	cpi	r25, 0x21	; 33
     154:	91 32       	cpi	r25, 0x21	; 33
     156:	91 32       	cpi	r25, 0x21	; 33
     158:	8d 32       	cpi	r24, 0x2D	; 45
     15a:	91 32       	cpi	r25, 0x21	; 33
     15c:	91 32       	cpi	r25, 0x21	; 33
     15e:	91 32       	cpi	r25, 0x21	; 33
     160:	91 32       	cpi	r25, 0x21	; 33
     162:	91 32       	cpi	r25, 0x21	; 33
     164:	91 32       	cpi	r25, 0x21	; 33
     166:	91 32       	cpi	r25, 0x21	; 33
     168:	58 32       	cpi	r21, 0x28	; 40
     16a:	91 32       	cpi	r25, 0x21	; 33
     16c:	91 32       	cpi	r25, 0x21	; 33
     16e:	91 32       	cpi	r25, 0x21	; 33
     170:	91 32       	cpi	r25, 0x21	; 33
     172:	91 32       	cpi	r25, 0x21	; 33
     174:	91 32       	cpi	r25, 0x21	; 33
     176:	91 32       	cpi	r25, 0x21	; 33
     178:	91 32       	cpi	r25, 0x21	; 33
     17a:	91 32       	cpi	r25, 0x21	; 33
     17c:	91 32       	cpi	r25, 0x21	; 33
     17e:	91 32       	cpi	r25, 0x21	; 33
     180:	91 32       	cpi	r25, 0x21	; 33
     182:	91 32       	cpi	r25, 0x21	; 33
     184:	91 32       	cpi	r25, 0x21	; 33
     186:	91 32       	cpi	r25, 0x21	; 33
     188:	4c 32       	cpi	r20, 0x2C	; 44
     18a:	91 32       	cpi	r25, 0x21	; 33
     18c:	91 32       	cpi	r25, 0x21	; 33
     18e:	91 32       	cpi	r25, 0x21	; 33
     190:	91 32       	cpi	r25, 0x21	; 33
     192:	91 32       	cpi	r25, 0x21	; 33
     194:	91 32       	cpi	r25, 0x21	; 33
     196:	91 32       	cpi	r25, 0x21	; 33
     198:	70 32       	cpi	r23, 0x20	; 32
     19a:	07 63       	ori	r16, 0x37	; 55
     19c:	42 36       	cpi	r20, 0x62	; 98
     19e:	b7 9b       	sbis	0x16, 7	; 22
     1a0:	d8 a7       	std	Y+40, r29	; 0x28
     1a2:	1a 39       	cpi	r17, 0x9A	; 154
     1a4:	68 56       	subi	r22, 0x68	; 104
     1a6:	18 ae       	std	Y+56, r1	; 0x38
     1a8:	ba ab       	std	Y+50, r27	; 0x32
     1aa:	55 8c       	ldd	r5, Z+29	; 0x1d
     1ac:	1d 3c       	cpi	r17, 0xCD	; 205
     1ae:	b7 cc       	rjmp	.-1682   	; 0xfffffb1e <__eeprom_end+0xff7efb1e>
     1b0:	57 63       	ori	r21, 0x37	; 55
     1b2:	bd 6d       	ori	r27, 0xDD	; 221
     1b4:	ed fd       	.word	0xfded	; ????
     1b6:	75 3e       	cpi	r23, 0xE5	; 229
     1b8:	f6 17       	cp	r31, r22
     1ba:	72 31       	cpi	r23, 0x12	; 18
     1bc:	bf 00       	.word	0x00bf	; ????
     1be:	00 00       	nop
     1c0:	80 3f       	cpi	r24, 0xF0	; 240
     1c2:	08 00       	.word	0x0008	; ????
     1c4:	00 00       	nop
     1c6:	be 92       	st	-X, r11
     1c8:	24 49       	sbci	r18, 0x94	; 148
     1ca:	12 3e       	cpi	r17, 0xE2	; 226
     1cc:	ab aa       	std	Y+51, r10	; 0x33
     1ce:	aa 2a       	or	r10, r26
     1d0:	be cd       	rjmp	.-1156   	; 0xfffffd4e <__eeprom_end+0xff7efd4e>
     1d2:	cc cc       	rjmp	.-1640   	; 0xfffffb6c <__eeprom_end+0xff7efb6c>
     1d4:	4c 3e       	cpi	r20, 0xEC	; 236
     1d6:	00 00       	nop
     1d8:	00 80       	ld	r0, Z
     1da:	be ab       	std	Y+54, r27	; 0x36
     1dc:	aa aa       	std	Y+50, r10	; 0x32
     1de:	aa 3e       	cpi	r26, 0xEA	; 234
     1e0:	00 00       	nop
     1e2:	00 00       	nop
     1e4:	bf 00       	.word	0x00bf	; ????
     1e6:	00 00       	nop
     1e8:	80 3f       	cpi	r24, 0xF0	; 240
     1ea:	00 00       	nop
     1ec:	00 00       	nop
     1ee:	00 08       	sbc	r0, r0
     1f0:	41 78       	andi	r20, 0x81	; 129
     1f2:	d3 bb       	out	0x13, r29	; 19
     1f4:	43 87       	std	Z+11, r20	; 0x0b
     1f6:	d1 13       	cpse	r29, r17
     1f8:	3d 19       	sub	r19, r13
     1fa:	0e 3c       	cpi	r16, 0xCE	; 206
     1fc:	c3 bd       	out	0x23, r28	; 35
     1fe:	42 82       	std	Z+2, r4	; 0x02
     200:	ad 2b       	or	r26, r29
     202:	3e 68       	ori	r19, 0x8E	; 142
     204:	ec 82       	std	Y+4, r14	; 0x04
     206:	76 be       	out	0x36, r7	; 54
     208:	d9 8f       	std	Y+25, r29	; 0x19
     20a:	e1 a9       	ldd	r30, Z+49	; 0x31
     20c:	3e 4c       	sbci	r19, 0xCE	; 206
     20e:	80 ef       	ldi	r24, 0xF0	; 240
     210:	ff be       	out	0x3f, r15	; 63
     212:	01 c4       	rjmp	.+2050   	; 0xa16 <temperatureSensorController_task+0x7e>
     214:	ff 7f       	andi	r31, 0xFF	; 255
     216:	3f 00       	.word	0x003f	; ????
     218:	00 00       	nop
	...

0000021c <prvIdleTask>:
                    mtCOVERAGE_TEST_MARKER();
                }
            }
        }
        portCLEAR_INTERRUPT_MASK_FROM_ISR( uxSavedInterruptStatus );
    }
     21c:	0f ea       	ldi	r16, 0xAF	; 175
     21e:	12 e1       	ldi	r17, 0x12	; 18
     220:	0f 2e       	mov	r0, r31
     222:	ff ed       	ldi	r31, 0xDF	; 223
     224:	ef 2e       	mov	r14, r31
     226:	f2 e1       	ldi	r31, 0x12	; 18
     228:	ff 2e       	mov	r15, r31
     22a:	f0 2d       	mov	r31, r0
     22c:	80 91 ae 12 	lds	r24, 0x12AE	; 0x8012ae <uxDeletedTasksWaitingCleanUp>
     230:	88 23       	and	r24, r24
     232:	29 f1       	breq	.+74     	; 0x27e <prvIdleTask+0x62>
     234:	0f b6       	in	r0, 0x3f	; 63
     236:	f8 94       	cli
     238:	0f 92       	push	r0
     23a:	d8 01       	movw	r26, r16
     23c:	17 96       	adiw	r26, 0x07	; 7
     23e:	ed 91       	ld	r30, X+
     240:	fc 91       	ld	r31, X
     242:	18 97       	sbiw	r26, 0x08	; 8
     244:	c0 85       	ldd	r28, Z+8	; 0x08
     246:	d1 85       	ldd	r29, Z+9	; 0x09
     248:	ce 01       	movw	r24, r28
     24a:	02 96       	adiw	r24, 0x02	; 2
     24c:	0e 94 20 0a 	call	0x1440	; 0x1440 <uxListRemove>
     250:	80 91 a2 12 	lds	r24, 0x12A2	; 0x8012a2 <uxCurrentNumberOfTasks>
     254:	81 50       	subi	r24, 0x01	; 1
     256:	80 93 a2 12 	sts	0x12A2, r24	; 0x8012a2 <uxCurrentNumberOfTasks>
     25a:	80 91 ae 12 	lds	r24, 0x12AE	; 0x8012ae <uxDeletedTasksWaitingCleanUp>
     25e:	81 50       	subi	r24, 0x01	; 1
     260:	80 93 ae 12 	sts	0x12AE, r24	; 0x8012ae <uxDeletedTasksWaitingCleanUp>
     264:	0f 90       	pop	r0
     266:	0f be       	out	0x3f, r0	; 63
     268:	8b 8d       	ldd	r24, Y+27	; 0x1b
     26a:	9c 8d       	ldd	r25, Y+28	; 0x1c
     26c:	0e 94 94 09 	call	0x1328	; 0x1328 <vPortFree>
     270:	ce 01       	movw	r24, r28
     272:	0e 94 94 09 	call	0x1328	; 0x1328 <vPortFree>
     276:	80 91 ae 12 	lds	r24, 0x12AE	; 0x8012ae <uxDeletedTasksWaitingCleanUp>
     27a:	81 11       	cpse	r24, r1
     27c:	db cf       	rjmp	.-74     	; 0x234 <prvIdleTask+0x18>
     27e:	f7 01       	movw	r30, r14
     280:	80 81       	ld	r24, Z
     282:	82 30       	cpi	r24, 0x02	; 2
     284:	10 f0       	brcs	.+4      	; 0x28a <prvIdleTask+0x6e>
     286:	0e 94 9a 0a 	call	0x1534	; 0x1534 <vPortYield>
     28a:	0e 94 56 1e 	call	0x3cac	; 0x3cac <vApplicationIdleHook>
     28e:	ce cf       	rjmp	.-100    	; 0x22c <prvIdleTask+0x10>

00000290 <prvTimerTask>:
                pxNewTimer->ucStatus = 0x00;
                prvInitialiseNewTimer( pcTimerName, xTimerPeriodInTicks, uxAutoReload, pvTimerID, pxCallbackFunction, pxNewTimer );
            }

            return pxNewTimer;
        }
     290:	cf 93       	push	r28
     292:	df 93       	push	r29
     294:	cd b7       	in	r28, 0x3d	; 61
     296:	de b7       	in	r29, 0x3e	; 62
     298:	60 97       	sbiw	r28, 0x10	; 16
     29a:	0f b6       	in	r0, 0x3f	; 63
     29c:	f8 94       	cli
     29e:	de bf       	out	0x3e, r29	; 62
     2a0:	0f be       	out	0x3f, r0	; 63
     2a2:	cd bf       	out	0x3d, r28	; 61
     2a4:	ce 01       	movw	r24, r28
     2a6:	01 96       	adiw	r24, 0x01	; 1
     2a8:	9a 87       	std	Y+10, r25	; 0x0a
     2aa:	89 87       	std	Y+9, r24	; 0x09
     2ac:	81 2c       	mov	r8, r1
     2ae:	91 2c       	mov	r9, r1
     2b0:	a1 2c       	mov	r10, r1
     2b2:	b1 2c       	mov	r11, r1
     2b4:	69 84       	ldd	r6, Y+9	; 0x09
     2b6:	7a 84       	ldd	r7, Y+10	; 0x0a
     2b8:	e0 91 59 13 	lds	r30, 0x1359	; 0x801359 <pxCurrentTimerList>
     2bc:	f0 91 5a 13 	lds	r31, 0x135A	; 0x80135a <pxCurrentTimerList+0x1>
     2c0:	80 81       	ld	r24, Z
     2c2:	88 23       	and	r24, r24
     2c4:	09 f4       	brne	.+2      	; 0x2c8 <prvTimerTask+0x38>
     2c6:	13 c1       	rjmp	.+550    	; 0x4ee <__LOCK_REGION_LENGTH__+0xee>
     2c8:	07 80       	ldd	r0, Z+7	; 0x07
     2ca:	f0 85       	ldd	r31, Z+8	; 0x08
     2cc:	e0 2d       	mov	r30, r0
     2ce:	20 80       	ld	r2, Z
     2d0:	31 80       	ldd	r3, Z+1	; 0x01
     2d2:	42 80       	ldd	r4, Z+2	; 0x02
     2d4:	53 80       	ldd	r5, Z+3	; 0x03
     2d6:	0e 94 4b 14 	call	0x2896	; 0x2896 <vTaskSuspendAll>
     2da:	ce 01       	movw	r24, r28
     2dc:	01 96       	adiw	r24, 0x01	; 1
     2de:	0e 94 bf 1d 	call	0x3b7e	; 0x3b7e <prvSampleTimeNow>
     2e2:	6b 87       	std	Y+11, r22	; 0x0b
     2e4:	7c 87       	std	Y+12, r23	; 0x0c
     2e6:	8d 87       	std	Y+13, r24	; 0x0d
     2e8:	9e 87       	std	Y+14, r25	; 0x0e
     2ea:	89 81       	ldd	r24, Y+1	; 0x01
     2ec:	81 11       	cpse	r24, r1
     2ee:	67 c0       	rjmp	.+206    	; 0x3be <prvTimerTask+0x12e>
     2f0:	8b 85       	ldd	r24, Y+11	; 0x0b
     2f2:	9c 85       	ldd	r25, Y+12	; 0x0c
     2f4:	ad 85       	ldd	r26, Y+13	; 0x0d
     2f6:	be 85       	ldd	r27, Y+14	; 0x0e
     2f8:	82 15       	cp	r24, r2
     2fa:	93 05       	cpc	r25, r3
     2fc:	a4 05       	cpc	r26, r4
     2fe:	b5 05       	cpc	r27, r5
     300:	08 f4       	brcc	.+2      	; 0x304 <prvTimerTask+0x74>
     302:	45 c0       	rjmp	.+138    	; 0x38e <prvTimerTask+0xfe>
     304:	0e 94 8f 15 	call	0x2b1e	; 0x2b1e <xTaskResumeAll>
     308:	e0 91 59 13 	lds	r30, 0x1359	; 0x801359 <pxCurrentTimerList>
     30c:	f0 91 5a 13 	lds	r31, 0x135A	; 0x80135a <pxCurrentTimerList+0x1>
     310:	07 80       	ldd	r0, Z+7	; 0x07
     312:	f0 85       	ldd	r31, Z+8	; 0x08
     314:	e0 2d       	mov	r30, r0
     316:	a0 85       	ldd	r26, Z+8	; 0x08
     318:	b1 85       	ldd	r27, Z+9	; 0x09
     31a:	b8 8b       	std	Y+16, r27	; 0x10
     31c:	af 87       	std	Y+15, r26	; 0x0f
     31e:	cd 01       	movw	r24, r26
     320:	02 96       	adiw	r24, 0x02	; 2
     322:	0e 94 20 0a 	call	0x1440	; 0x1440 <uxListRemove>
     326:	ef 85       	ldd	r30, Y+15	; 0x0f
     328:	f8 89       	ldd	r31, Y+16	; 0x10
     32a:	86 89       	ldd	r24, Z+22	; 0x16
     32c:	82 ff       	sbrs	r24, 2
     32e:	21 c0       	rjmp	.+66     	; 0x372 <prvTimerTask+0xe2>
     330:	46 85       	ldd	r20, Z+14	; 0x0e
     332:	57 85       	ldd	r21, Z+15	; 0x0f
     334:	60 89       	ldd	r22, Z+16	; 0x10
     336:	71 89       	ldd	r23, Z+17	; 0x11
     338:	42 0d       	add	r20, r2
     33a:	53 1d       	adc	r21, r3
     33c:	64 1d       	adc	r22, r4
     33e:	75 1d       	adc	r23, r5
     340:	72 01       	movw	r14, r4
     342:	61 01       	movw	r12, r2
     344:	0b 85       	ldd	r16, Y+11	; 0x0b
     346:	1c 85       	ldd	r17, Y+12	; 0x0c
     348:	2d 85       	ldd	r18, Y+13	; 0x0d
     34a:	3e 85       	ldd	r19, Y+14	; 0x0e
     34c:	cf 01       	movw	r24, r30
     34e:	0e 94 ce 1c 	call	0x399c	; 0x399c <prvInsertTimerInActiveList>
     352:	88 23       	and	r24, r24
     354:	99 f0       	breq	.+38     	; 0x37c <prvTimerTask+0xec>
     356:	c8 2c       	mov	r12, r8
     358:	d9 2c       	mov	r13, r9
     35a:	ea 2c       	mov	r14, r10
     35c:	fb 2c       	mov	r15, r11
     35e:	00 e0       	ldi	r16, 0x00	; 0
     360:	10 e0       	ldi	r17, 0x00	; 0
     362:	a2 01       	movw	r20, r4
     364:	91 01       	movw	r18, r2
     366:	60 e0       	ldi	r22, 0x00	; 0
     368:	8f 85       	ldd	r24, Y+15	; 0x0f
     36a:	98 89       	ldd	r25, Y+16	; 0x10
     36c:	0e 94 61 1d 	call	0x3ac2	; 0x3ac2 <xTimerGenericCommand>
     370:	05 c0       	rjmp	.+10     	; 0x37c <prvTimerTask+0xec>
     372:	8e 7f       	andi	r24, 0xFE	; 254
     374:	af 85       	ldd	r26, Y+15	; 0x0f
     376:	b8 89       	ldd	r27, Y+16	; 0x10
     378:	56 96       	adiw	r26, 0x16	; 22
     37a:	8c 93       	st	X, r24
     37c:	af 85       	ldd	r26, Y+15	; 0x0f
     37e:	b8 89       	ldd	r27, Y+16	; 0x10
     380:	54 96       	adiw	r26, 0x14	; 20
     382:	ed 91       	ld	r30, X+
     384:	fc 91       	ld	r31, X
     386:	55 97       	sbiw	r26, 0x15	; 21
     388:	cd 01       	movw	r24, r26
     38a:	19 95       	eicall
     38c:	a1 c0       	rjmp	.+322    	; 0x4d0 <__LOCK_REGION_LENGTH__+0xd0>
     38e:	20 e0       	ldi	r18, 0x00	; 0
     390:	b2 01       	movw	r22, r4
     392:	a1 01       	movw	r20, r2
     394:	8b 85       	ldd	r24, Y+11	; 0x0b
     396:	9c 85       	ldd	r25, Y+12	; 0x0c
     398:	ad 85       	ldd	r26, Y+13	; 0x0d
     39a:	be 85       	ldd	r27, Y+14	; 0x0e
     39c:	48 1b       	sub	r20, r24
     39e:	59 0b       	sbc	r21, r25
     3a0:	6a 0b       	sbc	r22, r26
     3a2:	7b 0b       	sbc	r23, r27
     3a4:	80 91 55 13 	lds	r24, 0x1355	; 0x801355 <xTimerQueue>
     3a8:	90 91 56 13 	lds	r25, 0x1356	; 0x801356 <xTimerQueue+0x1>
     3ac:	0e 94 dc 0e 	call	0x1db8	; 0x1db8 <vQueueWaitForMessageRestricted>
     3b0:	0e 94 8f 15 	call	0x2b1e	; 0x2b1e <xTaskResumeAll>
     3b4:	81 11       	cpse	r24, r1
     3b6:	8c c0       	rjmp	.+280    	; 0x4d0 <__LOCK_REGION_LENGTH__+0xd0>
     3b8:	0e 94 9a 0a 	call	0x1534	; 0x1534 <vPortYield>
     3bc:	89 c0       	rjmp	.+274    	; 0x4d0 <__LOCK_REGION_LENGTH__+0xd0>
     3be:	0e 94 8f 15 	call	0x2b1e	; 0x2b1e <xTaskResumeAll>
     3c2:	86 c0       	rjmp	.+268    	; 0x4d0 <__LOCK_REGION_LENGTH__+0xd0>
     3c4:	89 81       	ldd	r24, Y+1	; 0x01
     3c6:	88 23       	and	r24, r24
     3c8:	0c f4       	brge	.+2      	; 0x3cc <prvTimerTask+0x13c>
     3ca:	82 c0       	rjmp	.+260    	; 0x4d0 <__LOCK_REGION_LENGTH__+0xd0>
     3cc:	4e 80       	ldd	r4, Y+6	; 0x06
     3ce:	5f 80       	ldd	r5, Y+7	; 0x07
     3d0:	d2 01       	movw	r26, r4
     3d2:	1c 96       	adiw	r26, 0x0c	; 12
     3d4:	8d 91       	ld	r24, X+
     3d6:	9c 91       	ld	r25, X
     3d8:	1d 97       	sbiw	r26, 0x0d	; 13
     3da:	89 2b       	or	r24, r25
     3dc:	21 f0       	breq	.+8      	; 0x3e6 <prvTimerTask+0x156>
     3de:	c2 01       	movw	r24, r4
     3e0:	02 96       	adiw	r24, 0x02	; 2
     3e2:	0e 94 20 0a 	call	0x1440	; 0x1440 <uxListRemove>
     3e6:	ce 01       	movw	r24, r28
     3e8:	08 96       	adiw	r24, 0x08	; 8
     3ea:	0e 94 bf 1d 	call	0x3b7e	; 0x3b7e <prvSampleTimeNow>
     3ee:	8b 01       	movw	r16, r22
     3f0:	9c 01       	movw	r18, r24
     3f2:	e9 81       	ldd	r30, Y+1	; 0x01
     3f4:	0e 2e       	mov	r0, r30
     3f6:	00 0c       	add	r0, r0
     3f8:	ff 0b       	sbc	r31, r31
     3fa:	ea 30       	cpi	r30, 0x0A	; 10
     3fc:	f1 05       	cpc	r31, r1
     3fe:	08 f0       	brcs	.+2      	; 0x402 <__LOCK_REGION_LENGTH__+0x2>
     400:	67 c0       	rjmp	.+206    	; 0x4d0 <__LOCK_REGION_LENGTH__+0xd0>
     402:	88 27       	eor	r24, r24
     404:	ee 58       	subi	r30, 0x8E	; 142
     406:	ff 4f       	sbci	r31, 0xFF	; 255
     408:	8f 4f       	sbci	r24, 0xFF	; 255
     40a:	0c 94 37 35 	jmp	0x6a6e	; 0x6a6e <__tablejump2__>
     40e:	f2 01       	movw	r30, r4
     410:	86 89       	ldd	r24, Z+22	; 0x16
     412:	81 60       	ori	r24, 0x01	; 1
     414:	86 8b       	std	Z+22, r24	; 0x16
     416:	ca 80       	ldd	r12, Y+2	; 0x02
     418:	db 80       	ldd	r13, Y+3	; 0x03
     41a:	ec 80       	ldd	r14, Y+4	; 0x04
     41c:	fd 80       	ldd	r15, Y+5	; 0x05
     41e:	46 85       	ldd	r20, Z+14	; 0x0e
     420:	57 85       	ldd	r21, Z+15	; 0x0f
     422:	60 89       	ldd	r22, Z+16	; 0x10
     424:	71 89       	ldd	r23, Z+17	; 0x11
     426:	4c 0d       	add	r20, r12
     428:	5d 1d       	adc	r21, r13
     42a:	6e 1d       	adc	r22, r14
     42c:	7f 1d       	adc	r23, r15
     42e:	c2 01       	movw	r24, r4
     430:	0e 94 ce 1c 	call	0x399c	; 0x399c <prvInsertTimerInActiveList>
     434:	88 23       	and	r24, r24
     436:	09 f4       	brne	.+2      	; 0x43a <__LOCK_REGION_LENGTH__+0x3a>
     438:	4b c0       	rjmp	.+150    	; 0x4d0 <__LOCK_REGION_LENGTH__+0xd0>
     43a:	d2 01       	movw	r26, r4
     43c:	54 96       	adiw	r26, 0x14	; 20
     43e:	ed 91       	ld	r30, X+
     440:	fc 91       	ld	r31, X
     442:	55 97       	sbiw	r26, 0x15	; 21
     444:	c2 01       	movw	r24, r4
     446:	19 95       	eicall
     448:	f2 01       	movw	r30, r4
     44a:	86 89       	ldd	r24, Z+22	; 0x16
     44c:	82 ff       	sbrs	r24, 2
     44e:	40 c0       	rjmp	.+128    	; 0x4d0 <__LOCK_REGION_LENGTH__+0xd0>
     450:	4a 81       	ldd	r20, Y+2	; 0x02
     452:	5b 81       	ldd	r21, Y+3	; 0x03
     454:	6c 81       	ldd	r22, Y+4	; 0x04
     456:	7d 81       	ldd	r23, Y+5	; 0x05
     458:	86 85       	ldd	r24, Z+14	; 0x0e
     45a:	97 85       	ldd	r25, Z+15	; 0x0f
     45c:	a0 89       	ldd	r26, Z+16	; 0x10
     45e:	b1 89       	ldd	r27, Z+17	; 0x11
     460:	9a 01       	movw	r18, r20
     462:	ab 01       	movw	r20, r22
     464:	28 0f       	add	r18, r24
     466:	39 1f       	adc	r19, r25
     468:	4a 1f       	adc	r20, r26
     46a:	5b 1f       	adc	r21, r27
     46c:	c8 2c       	mov	r12, r8
     46e:	d9 2c       	mov	r13, r9
     470:	ea 2c       	mov	r14, r10
     472:	fb 2c       	mov	r15, r11
     474:	00 e0       	ldi	r16, 0x00	; 0
     476:	10 e0       	ldi	r17, 0x00	; 0
     478:	60 e0       	ldi	r22, 0x00	; 0
     47a:	c2 01       	movw	r24, r4
     47c:	0e 94 61 1d 	call	0x3ac2	; 0x3ac2 <xTimerGenericCommand>
     480:	27 c0       	rjmp	.+78     	; 0x4d0 <__LOCK_REGION_LENGTH__+0xd0>
     482:	d2 01       	movw	r26, r4
     484:	56 96       	adiw	r26, 0x16	; 22
     486:	8c 91       	ld	r24, X
     488:	56 97       	sbiw	r26, 0x16	; 22
     48a:	8e 7f       	andi	r24, 0xFE	; 254
     48c:	56 96       	adiw	r26, 0x16	; 22
     48e:	8c 93       	st	X, r24
     490:	1f c0       	rjmp	.+62     	; 0x4d0 <__LOCK_REGION_LENGTH__+0xd0>
     492:	f2 01       	movw	r30, r4
     494:	86 89       	ldd	r24, Z+22	; 0x16
     496:	81 60       	ori	r24, 0x01	; 1
     498:	86 8b       	std	Z+22, r24	; 0x16
     49a:	4a 81       	ldd	r20, Y+2	; 0x02
     49c:	5b 81       	ldd	r21, Y+3	; 0x03
     49e:	6c 81       	ldd	r22, Y+4	; 0x04
     4a0:	7d 81       	ldd	r23, Y+5	; 0x05
     4a2:	46 87       	std	Z+14, r20	; 0x0e
     4a4:	57 87       	std	Z+15, r21	; 0x0f
     4a6:	60 8b       	std	Z+16, r22	; 0x10
     4a8:	71 8b       	std	Z+17, r23	; 0x11
     4aa:	40 0f       	add	r20, r16
     4ac:	51 1f       	adc	r21, r17
     4ae:	62 1f       	adc	r22, r18
     4b0:	73 1f       	adc	r23, r19
     4b2:	68 01       	movw	r12, r16
     4b4:	79 01       	movw	r14, r18
     4b6:	c2 01       	movw	r24, r4
     4b8:	0e 94 ce 1c 	call	0x399c	; 0x399c <prvInsertTimerInActiveList>
     4bc:	09 c0       	rjmp	.+18     	; 0x4d0 <__LOCK_REGION_LENGTH__+0xd0>
     4be:	f2 01       	movw	r30, r4
     4c0:	86 89       	ldd	r24, Z+22	; 0x16
     4c2:	81 fd       	sbrc	r24, 1
     4c4:	03 c0       	rjmp	.+6      	; 0x4cc <__LOCK_REGION_LENGTH__+0xcc>
     4c6:	c2 01       	movw	r24, r4
     4c8:	2f d7       	rcall	.+3678   	; 0x1328 <vPortFree>
     4ca:	02 c0       	rjmp	.+4      	; 0x4d0 <__LOCK_REGION_LENGTH__+0xd0>
     4cc:	8e 7f       	andi	r24, 0xFE	; 254
     4ce:	86 8b       	std	Z+22, r24	; 0x16
     4d0:	28 2d       	mov	r18, r8
     4d2:	39 2d       	mov	r19, r9
     4d4:	4a 2d       	mov	r20, r10
     4d6:	5b 2d       	mov	r21, r11
     4d8:	66 2d       	mov	r22, r6
     4da:	77 2d       	mov	r23, r7
     4dc:	80 91 55 13 	lds	r24, 0x1355	; 0x801355 <xTimerQueue>
     4e0:	90 91 56 13 	lds	r25, 0x1356	; 0x801356 <xTimerQueue+0x1>
     4e4:	0e 94 75 0d 	call	0x1aea	; 0x1aea <xQueueReceive>
     4e8:	81 11       	cpse	r24, r1
     4ea:	6c cf       	rjmp	.-296    	; 0x3c4 <prvTimerTask+0x134>
     4ec:	e5 ce       	rjmp	.-566    	; 0x2b8 <prvTimerTask+0x28>
     4ee:	0e 94 4b 14 	call	0x2896	; 0x2896 <vTaskSuspendAll>
     4f2:	ce 01       	movw	r24, r28
     4f4:	01 96       	adiw	r24, 0x01	; 1
     4f6:	0e 94 bf 1d 	call	0x3b7e	; 0x3b7e <prvSampleTimeNow>
     4fa:	6b 87       	std	Y+11, r22	; 0x0b
     4fc:	7c 87       	std	Y+12, r23	; 0x0c
     4fe:	8d 87       	std	Y+13, r24	; 0x0d
     500:	9e 87       	std	Y+14, r25	; 0x0e
     502:	89 81       	ldd	r24, Y+1	; 0x01
     504:	81 11       	cpse	r24, r1
     506:	5b cf       	rjmp	.-330    	; 0x3be <prvTimerTask+0x12e>
     508:	e0 91 57 13 	lds	r30, 0x1357	; 0x801357 <pxOverflowTimerList>
     50c:	f0 91 58 13 	lds	r31, 0x1358	; 0x801358 <pxOverflowTimerList+0x1>
     510:	80 81       	ld	r24, Z
     512:	21 e0       	ldi	r18, 0x01	; 1
     514:	81 11       	cpse	r24, r1
     516:	20 e0       	ldi	r18, 0x00	; 0
     518:	28 2c       	mov	r2, r8
     51a:	39 2c       	mov	r3, r9
     51c:	4a 2c       	mov	r4, r10
     51e:	5b 2c       	mov	r5, r11
     520:	37 cf       	rjmp	.-402    	; 0x390 <prvTimerTask+0x100>

00000522 <__ctors_end>:
     522:	11 24       	eor	r1, r1
     524:	1f be       	out	0x3f, r1	; 63
     526:	cf ef       	ldi	r28, 0xFF	; 255
     528:	d1 e2       	ldi	r29, 0x21	; 33
     52a:	de bf       	out	0x3e, r29	; 62
     52c:	cd bf       	out	0x3d, r28	; 61
     52e:	00 e0       	ldi	r16, 0x00	; 0
     530:	0c bf       	out	0x3c, r16	; 60

00000532 <__do_copy_data>:
     532:	18 e0       	ldi	r17, 0x08	; 8
     534:	a0 e0       	ldi	r26, 0x00	; 0
     536:	b2 e0       	ldi	r27, 0x02	; 2
     538:	e4 e5       	ldi	r30, 0x54	; 84
     53a:	f4 e7       	ldi	r31, 0x74	; 116
     53c:	00 e0       	ldi	r16, 0x00	; 0
     53e:	0b bf       	out	0x3b, r16	; 59
     540:	02 c0       	rjmp	.+4      	; 0x546 <__do_copy_data+0x14>
     542:	07 90       	elpm	r0, Z+
     544:	0d 92       	st	X+, r0
     546:	a2 3b       	cpi	r26, 0xB2	; 178
     548:	b1 07       	cpc	r27, r17
     54a:	d9 f7       	brne	.-10     	; 0x542 <__do_copy_data+0x10>

0000054c <__do_clear_bss>:
     54c:	25 e1       	ldi	r18, 0x15	; 21
     54e:	a2 eb       	ldi	r26, 0xB2	; 178
     550:	b8 e0       	ldi	r27, 0x08	; 8
     552:	01 c0       	rjmp	.+2      	; 0x556 <.do_clear_bss_start>

00000554 <.do_clear_bss_loop>:
     554:	1d 92       	st	X+, r1

00000556 <.do_clear_bss_start>:
     556:	a5 3b       	cpi	r26, 0xB5	; 181
     558:	b2 07       	cpc	r27, r18
     55a:	e1 f7       	brne	.-8      	; 0x554 <.do_clear_bss_loop>
     55c:	0e 94 25 21 	call	0x424a	; 0x424a <main>
     560:	0c 94 28 3a 	jmp	0x7450	; 0x7450 <_exit>

00000564 <__bad_interrupt>:
     564:	4d cd       	rjmp	.-1382   	; 0x0 <__vectors>

00000566 <carbonDioxideController_task>:
	if (rc != MHZ19_OK)
	{
		printf("CO2 sensor does not OK\n");
	}
	rc = mh_z19_takeMeassuring();	
	vTaskDelay(pdMS_TO_TICKS(carbonDioxideSensor_getReportInterval(carbon)*500));
     566:	0f 2e       	mov	r0, r31
     568:	f8 ee       	ldi	r31, 0xE8	; 232
     56a:	cf 2e       	mov	r12, r31
     56c:	f3 e0       	ldi	r31, 0x03	; 3
     56e:	df 2e       	mov	r13, r31
     570:	e1 2c       	mov	r14, r1
     572:	f1 2c       	mov	r15, r1
     574:	f0 2d       	mov	r31, r0
	PORTA ^= _BV(PA2);
     576:	c4 e0       	ldi	r28, 0x04	; 4
	//mh_z19_setAutoCalibration(false);
	//mh_z19_injectCallBack(myCo2CallBack(appm));
	for(;;)
	{
	
	if (rc != MHZ19_OK)
     578:	80 91 96 15 	lds	r24, 0x1596	; 0x801596 <rc>
     57c:	88 23       	and	r24, r24
     57e:	21 f0       	breq	.+8      	; 0x588 <carbonDioxideController_task+0x22>
	{
		printf("CO2 sensor does not OK\n");
     580:	8f e6       	ldi	r24, 0x6F	; 111
     582:	92 e0       	ldi	r25, 0x02	; 2
     584:	0e 94 1d 37 	call	0x6e3a	; 0x6e3a <puts>
	}
	rc = mh_z19_takeMeassuring();	
     588:	0e 94 bc 29 	call	0x5378	; 0x5378 <mh_z19_takeMeassuring>
     58c:	80 93 96 15 	sts	0x1596, r24	; 0x801596 <rc>
	vTaskDelay(pdMS_TO_TICKS(carbonDioxideSensor_getReportInterval(carbon)*500));
     590:	80 91 99 15 	lds	r24, 0x1599	; 0x801599 <carbon>
     594:	90 91 9a 15 	lds	r25, 0x159A	; 0x80159a <carbon+0x1>
     598:	eb d2       	rcall	.+1494   	; 0xb70 <carbonDioxideSensor_getReportInterval>
     59a:	20 e0       	ldi	r18, 0x00	; 0
     59c:	30 e0       	ldi	r19, 0x00	; 0
     59e:	4a ef       	ldi	r20, 0xFA	; 250
     5a0:	53 e4       	ldi	r21, 0x43	; 67
     5a2:	0e 94 59 22 	call	0x44b2	; 0x44b2 <__mulsf3>
     5a6:	0e 94 9f 21 	call	0x433e	; 0x433e <__fixunssfsi>
     5aa:	9b 01       	movw	r18, r22
     5ac:	ac 01       	movw	r20, r24
     5ae:	ae e3       	ldi	r26, 0x3E	; 62
     5b0:	b0 e0       	ldi	r27, 0x00	; 0
     5b2:	0e 94 3f 35 	call	0x6a7e	; 0x6a7e <__muluhisi3>
     5b6:	a7 01       	movw	r20, r14
     5b8:	96 01       	movw	r18, r12
     5ba:	0e 94 15 35 	call	0x6a2a	; 0x6a2a <__udivmodsi4>
     5be:	ca 01       	movw	r24, r20
     5c0:	b9 01       	movw	r22, r18
     5c2:	0e 94 75 16 	call	0x2cea	; 0x2cea <vTaskDelay>
	PORTA ^= _BV(PA2);
     5c6:	82 b1       	in	r24, 0x02	; 2
     5c8:	8c 27       	eor	r24, r28
     5ca:	82 b9       	out	0x02, r24	; 2
	vTaskDelay(pdMS_TO_TICKS(carbonDioxideSensor_getReportInterval(carbon)*500));
     5cc:	80 91 99 15 	lds	r24, 0x1599	; 0x801599 <carbon>
     5d0:	90 91 9a 15 	lds	r25, 0x159A	; 0x80159a <carbon+0x1>
     5d4:	cd d2       	rcall	.+1434   	; 0xb70 <carbonDioxideSensor_getReportInterval>
     5d6:	20 e0       	ldi	r18, 0x00	; 0
     5d8:	30 e0       	ldi	r19, 0x00	; 0
     5da:	4a ef       	ldi	r20, 0xFA	; 250
     5dc:	53 e4       	ldi	r21, 0x43	; 67
     5de:	0e 94 59 22 	call	0x44b2	; 0x44b2 <__mulsf3>
     5e2:	0e 94 9f 21 	call	0x433e	; 0x433e <__fixunssfsi>
     5e6:	9b 01       	movw	r18, r22
     5e8:	ac 01       	movw	r20, r24
     5ea:	ae e3       	ldi	r26, 0x3E	; 62
     5ec:	b0 e0       	ldi	r27, 0x00	; 0
     5ee:	0e 94 3f 35 	call	0x6a7e	; 0x6a7e <__muluhisi3>
     5f2:	a7 01       	movw	r20, r14
     5f4:	96 01       	movw	r18, r12
     5f6:	0e 94 15 35 	call	0x6a2a	; 0x6a2a <__udivmodsi4>
     5fa:	ca 01       	movw	r24, r20
     5fc:	b9 01       	movw	r22, r18
     5fe:	0e 94 75 16 	call	0x2cea	; 0x2cea <vTaskDelay>
	//
	PORTA ^= _BV(PA2);
     602:	82 b1       	in	r24, 0x02	; 2
     604:	8c 27       	eor	r24, r28
     606:	82 b9       	out	0x02, r24	; 2
	mh_z19_getCo2Ppm(&appm);
     608:	87 e9       	ldi	r24, 0x97	; 151
     60a:	95 e1       	ldi	r25, 0x15	; 21
     60c:	0e 94 eb 29 	call	0x53d6	; 0x53d6 <mh_z19_getCo2Ppm>
	int u = appm;
	
	//printf("Carbon:%d\n",u);
	carbonDioxideSensor_setValue(carbon,u);
     610:	60 91 97 15 	lds	r22, 0x1597	; 0x801597 <appm>
     614:	70 91 98 15 	lds	r23, 0x1598	; 0x801598 <appm+0x1>
     618:	80 91 99 15 	lds	r24, 0x1599	; 0x801599 <carbon>
     61c:	90 91 9a 15 	lds	r25, 0x159A	; 0x80159a <carbon+0x1>
     620:	87 d2       	rcall	.+1294   	; 0xb30 <carbonDioxideSensor_setValue>
	myTime_t time = carbonDioxideSensor_getUpdateTime(carbon);
     622:	80 91 99 15 	lds	r24, 0x1599	; 0x801599 <carbon>
     626:	90 91 9a 15 	lds	r25, 0x159A	; 0x80159a <carbon+0x1>
     62a:	e7 d2       	rcall	.+1486   	; 0xbfa <carbonDioxideSensor_getUpdateTime>
	}
     62c:	a5 cf       	rjmp	.-182    	; 0x578 <carbonDioxideController_task+0x12>

0000062e <CO2SensorController_create>:
}

void CO2SensorController_create(carbonDioxideSensor_t co2)
{
     62e:	ef 92       	push	r14
     630:	ff 92       	push	r15
     632:	0f 93       	push	r16
		carbon = co2;
     634:	90 93 9a 15 	sts	0x159A, r25	; 0x80159a <carbon+0x1>
     638:	80 93 99 15 	sts	0x1599, r24	; 0x801599 <carbon>
		printf("CO2 sensor started!!!\n");
     63c:	86 e8       	ldi	r24, 0x86	; 134
     63e:	92 e0       	ldi	r25, 0x02	; 2
     640:	0e 94 1d 37 	call	0x6e3a	; 0x6e3a <puts>
		xTaskCreate(carbonDioxideController_task,"COXTask",configMINIMAL_STACK_SIZE, (void*)1, tskIDLE_PRIORITY + 1, NULL);
     644:	e1 2c       	mov	r14, r1
     646:	f1 2c       	mov	r15, r1
     648:	01 e0       	ldi	r16, 0x01	; 1
     64a:	21 e0       	ldi	r18, 0x01	; 1
     64c:	30 e0       	ldi	r19, 0x00	; 0
     64e:	40 ec       	ldi	r20, 0xC0	; 192
     650:	50 e0       	ldi	r21, 0x00	; 0
     652:	6c e9       	ldi	r22, 0x9C	; 156
     654:	72 e0       	ldi	r23, 0x02	; 2
     656:	83 eb       	ldi	r24, 0xB3	; 179
     658:	92 e0       	ldi	r25, 0x02	; 2
     65a:	0e 94 d9 12 	call	0x25b2	; 0x25b2 <xTaskCreate>
		//vTaskStartScheduler();
}
     65e:	0f 91       	pop	r16
     660:	ff 90       	pop	r15
     662:	ef 90       	pop	r14
     664:	08 95       	ret

00000666 <HumSensorController_task>:
{
	for(;;)
	{
		if ( HIH8120_OK != hih8120_wakeup() )
		{
			printf("Temperature sensor didn't wakeup!!!");
     666:	04 ea       	ldi	r16, 0xA4	; 164
     668:	12 e0       	ldi	r17, 0x02	; 2
		}
		
		//wait sensor to wakeup
		vTaskDelay(pdMS_TO_TICKS(humiditySensor_getReportInterval(humSensor)*500));
     66a:	0f 2e       	mov	r0, r31
     66c:	f8 ee       	ldi	r31, 0xE8	; 232
     66e:	cf 2e       	mov	r12, r31
     670:	f3 e0       	ldi	r31, 0x03	; 3
     672:	df 2e       	mov	r13, r31
     674:	e1 2c       	mov	r14, r1
     676:	f1 2c       	mov	r15, r1
     678:	f0 2d       	mov	r31, r0
		PORTA ^= _BV(PA1);
     67a:	68 94       	set
     67c:	bb 24       	eor	r11, r11
     67e:	b1 f8       	bld	r11, 1
		
		if ( HIH8120_OK !=  hih8120_measure() )
		{
			printf("Humility sensor didn't measure!!!");
     680:	c8 ec       	ldi	r28, 0xC8	; 200
     682:	d2 e0       	ldi	r29, 0x02	; 2

void HumSensorController_task(void *pvParameters)
{
	for(;;)
	{
		if ( HIH8120_OK != hih8120_wakeup() )
     684:	0e 94 88 24 	call	0x4910	; 0x4910 <hih8120_wakeup>
     688:	88 23       	and	r24, r24
     68a:	31 f0       	breq	.+12     	; 0x698 <HumSensorController_task+0x32>
		{
			printf("Temperature sensor didn't wakeup!!!");
     68c:	1f 93       	push	r17
     68e:	0f 93       	push	r16
     690:	0e 94 0a 37 	call	0x6e14	; 0x6e14 <printf>
     694:	0f 90       	pop	r0
     696:	0f 90       	pop	r0
		}
		
		//wait sensor to wakeup
		vTaskDelay(pdMS_TO_TICKS(humiditySensor_getReportInterval(humSensor)*500));
     698:	80 91 9b 15 	lds	r24, 0x159B	; 0x80159b <humSensor>
     69c:	90 91 9c 15 	lds	r25, 0x159C	; 0x80159c <humSensor+0x1>
     6a0:	26 d3       	rcall	.+1612   	; 0xcee <humiditySensor_getReportInterval>
     6a2:	20 e0       	ldi	r18, 0x00	; 0
     6a4:	30 e0       	ldi	r19, 0x00	; 0
     6a6:	4a ef       	ldi	r20, 0xFA	; 250
     6a8:	53 e4       	ldi	r21, 0x43	; 67
     6aa:	0e 94 59 22 	call	0x44b2	; 0x44b2 <__mulsf3>
     6ae:	0e 94 9f 21 	call	0x433e	; 0x433e <__fixunssfsi>
     6b2:	9b 01       	movw	r18, r22
     6b4:	ac 01       	movw	r20, r24
     6b6:	ae e3       	ldi	r26, 0x3E	; 62
     6b8:	b0 e0       	ldi	r27, 0x00	; 0
     6ba:	0e 94 3f 35 	call	0x6a7e	; 0x6a7e <__muluhisi3>
     6be:	a7 01       	movw	r20, r14
     6c0:	96 01       	movw	r18, r12
     6c2:	0e 94 15 35 	call	0x6a2a	; 0x6a2a <__udivmodsi4>
     6c6:	ca 01       	movw	r24, r20
     6c8:	b9 01       	movw	r22, r18
     6ca:	0e 94 75 16 	call	0x2cea	; 0x2cea <vTaskDelay>
		PORTA ^= _BV(PA1);
     6ce:	82 b1       	in	r24, 0x02	; 2
     6d0:	8b 25       	eor	r24, r11
     6d2:	82 b9       	out	0x02, r24	; 2
		
		if ( HIH8120_OK !=  hih8120_measure() )
     6d4:	0e 94 9d 24 	call	0x493a	; 0x493a <hih8120_measure>
     6d8:	88 23       	and	r24, r24
     6da:	31 f0       	breq	.+12     	; 0x6e8 <HumSensorController_task+0x82>
		{
			printf("Humility sensor didn't measure!!!");
     6dc:	df 93       	push	r29
     6de:	cf 93       	push	r28
     6e0:	0e 94 0a 37 	call	0x6e14	; 0x6e14 <printf>
     6e4:	0f 90       	pop	r0
     6e6:	0f 90       	pop	r0
		}
		
		//wait sensor to get the value
		vTaskDelay(pdMS_TO_TICKS(humiditySensor_getReportInterval(humSensor)*500));
     6e8:	80 91 9b 15 	lds	r24, 0x159B	; 0x80159b <humSensor>
     6ec:	90 91 9c 15 	lds	r25, 0x159C	; 0x80159c <humSensor+0x1>
     6f0:	fe d2       	rcall	.+1532   	; 0xcee <humiditySensor_getReportInterval>
     6f2:	20 e0       	ldi	r18, 0x00	; 0
     6f4:	30 e0       	ldi	r19, 0x00	; 0
     6f6:	4a ef       	ldi	r20, 0xFA	; 250
     6f8:	53 e4       	ldi	r21, 0x43	; 67
     6fa:	0e 94 59 22 	call	0x44b2	; 0x44b2 <__mulsf3>
     6fe:	0e 94 9f 21 	call	0x433e	; 0x433e <__fixunssfsi>
     702:	9b 01       	movw	r18, r22
     704:	ac 01       	movw	r20, r24
     706:	ae e3       	ldi	r26, 0x3E	; 62
     708:	b0 e0       	ldi	r27, 0x00	; 0
     70a:	0e 94 3f 35 	call	0x6a7e	; 0x6a7e <__muluhisi3>
     70e:	a7 01       	movw	r20, r14
     710:	96 01       	movw	r18, r12
     712:	0e 94 15 35 	call	0x6a2a	; 0x6a2a <__udivmodsi4>
     716:	ca 01       	movw	r24, r20
     718:	b9 01       	movw	r22, r18
     71a:	0e 94 75 16 	call	0x2cea	; 0x2cea <vTaskDelay>
		PORTA ^= _BV(PA1);
     71e:	82 b1       	in	r24, 0x02	; 2
     720:	8b 25       	eor	r24, r11
     722:	82 b9       	out	0x02, r24	; 2
		
		//save new value
		humility = hih8120_getHumidity();
     724:	0e 94 ae 24 	call	0x495c	; 0x495c <hih8120_getHumidity>
     728:	ab 01       	movw	r20, r22
     72a:	bc 01       	movw	r22, r24
     72c:	40 93 b2 08 	sts	0x08B2, r20	; 0x8008b2 <__data_end>
     730:	50 93 b3 08 	sts	0x08B3, r21	; 0x8008b3 <__data_end+0x1>
     734:	60 93 b4 08 	sts	0x08B4, r22	; 0x8008b4 <__data_end+0x2>
     738:	70 93 b5 08 	sts	0x08B5, r23	; 0x8008b5 <__data_end+0x3>
		humiditySensor_setValue(humSensor,humility);
     73c:	80 91 9b 15 	lds	r24, 0x159B	; 0x80159b <humSensor>
     740:	90 91 9c 15 	lds	r25, 0x159C	; 0x80159c <humSensor+0x1>
     744:	ac d2       	rcall	.+1368   	; 0xc9e <humiditySensor_setValue>
		//print temperature (the print of float is ?, so print it as int)
		int a = humiditySensor_getValue(humSensor);
     746:	80 91 9b 15 	lds	r24, 0x159B	; 0x80159b <humSensor>
     74a:	90 91 9c 15 	lds	r25, 0x159C	; 0x80159c <humSensor+0x1>
     74e:	f4 d2       	rcall	.+1512   	; 0xd38 <humiditySensor_getValue>
		int b = humiditySensor_getValue(humSensor)*10000-a*10000;
     750:	80 91 9b 15 	lds	r24, 0x159B	; 0x80159b <humSensor>
     754:	90 91 9c 15 	lds	r25, 0x159C	; 0x80159c <humSensor+0x1>
     758:	ef d2       	rcall	.+1502   	; 0xd38 <humiditySensor_getValue>
		myTime_t time = humiditySensor_getUpdateTime(humSensor);
     75a:	80 91 9b 15 	lds	r24, 0x159B	; 0x80159b <humSensor>
     75e:	90 91 9c 15 	lds	r25, 0x159C	; 0x80159c <humSensor+0x1>
     762:	0f d3       	rcall	.+1566   	; 0xd82 <humiditySensor_getUpdateTime>
     764:	8f cf       	rjmp	.-226    	; 0x684 <HumSensorController_task+0x1e>

00000766 <HumSensorController_create>:
		//printf("Hum%d.%d",a,b);
	}
     766:	ef 92       	push	r14
}

void HumSensorController_create(humiditySensor_t sensor)
{
     768:	ff 92       	push	r15
     76a:	0f 93       	push	r16
	humSensor = sensor;
     76c:	90 93 9c 15 	sts	0x159C, r25	; 0x80159c <humSensor+0x1>
     770:	80 93 9b 15 	sts	0x159B, r24	; 0x80159b <humSensor>
	printf("Humility sensor started!!!\n");
     774:	8a ee       	ldi	r24, 0xEA	; 234
     776:	92 e0       	ldi	r25, 0x02	; 2
     778:	0e 94 1d 37 	call	0x6e3a	; 0x6e3a <puts>
	xTaskCreate(HumSensorController_task, "HumSensorTask", configMINIMAL_STACK_SIZE, (void*)1, tskIDLE_PRIORITY + 1, NULL);
     77c:	e1 2c       	mov	r14, r1
     77e:	f1 2c       	mov	r15, r1
     780:	01 e0       	ldi	r16, 0x01	; 1
     782:	21 e0       	ldi	r18, 0x01	; 1
     784:	30 e0       	ldi	r19, 0x00	; 0
     786:	40 ec       	ldi	r20, 0xC0	; 192
     788:	50 e0       	ldi	r21, 0x00	; 0
     78a:	65 e0       	ldi	r22, 0x05	; 5
     78c:	73 e0       	ldi	r23, 0x03	; 3
     78e:	83 e3       	ldi	r24, 0x33	; 51
     790:	93 e0       	ldi	r25, 0x03	; 3
     792:	0e 94 d9 12 	call	0x25b2	; 0x25b2 <xTaskCreate>
	//vTaskStartScheduler();
     796:	0f 91       	pop	r16
     798:	ff 90       	pop	r15
     79a:	ef 90       	pop	r14
     79c:	08 95       	ret

0000079e <sevenSegmentDisplayController_task>:
	{
		//Show hh.mm on 7-segment Display
		PORTA ^= _BV(PA7);
		myTime_t nowTime = myTime_getNowTime();
		float time = myTime_getHour(nowTime)*100+myTime_getMin(nowTime);
		display_7seg_display(time/100,2);
     79e:	0f 2e       	mov	r0, r31
     7a0:	f4 e6       	ldi	r31, 0x64	; 100
     7a2:	8f 2e       	mov	r8, r31
     7a4:	f0 2d       	mov	r31, r0
		vTaskDelay(pdMS_TO_TICKS(updateTime*1000));
     7a6:	0f 2e       	mov	r0, r31
     7a8:	f8 ee       	ldi	r31, 0xE8	; 232
     7aa:	cf 2e       	mov	r12, r31
     7ac:	f3 e0       	ldi	r31, 0x03	; 3
     7ae:	df 2e       	mov	r13, r31
     7b0:	e1 2c       	mov	r14, r1
     7b2:	f1 2c       	mov	r15, r1
     7b4:	f0 2d       	mov	r31, r0
		PORTA ^= _BV(PA7);
		
		//Show temperature on 7-segment Display
		PORTA ^= _BV(PA6);
     7b6:	68 94       	set
     7b8:	99 24       	eor	r9, r9
     7ba:	96 f8       	bld	r9, 6
		display_7seg_display(temperatureSensor_getValue(temperatureSensor),2);
		vTaskDelay(pdMS_TO_TICKS(updateTime*1000));
		PORTA ^= _BV(PA6);
		
		//Show humidity on 7-segment Display
		PORTA ^= _BV(PA5);
     7bc:	68 94       	set
     7be:	aa 24       	eor	r10, r10
     7c0:	a5 f8       	bld	r10, 5
		display_7seg_display(humiditySensor_getValue(humiditySensor),2);
		vTaskDelay(pdMS_TO_TICKS(updateTime*1000));
		PORTA ^= _BV(PA5);
		
		//Show carbon dioxide on 7-segment Display
		PORTA ^= _BV(PA4);
     7c2:	68 94       	set
     7c4:	bb 24       	eor	r11, r11
     7c6:	b4 f8       	bld	r11, 4
void sevenSegmentDisplayController_task(void *pvParameters)
{
	while(1)
	{
		//Show hh.mm on 7-segment Display
		PORTA ^= _BV(PA7);
     7c8:	82 b1       	in	r24, 0x02	; 2
     7ca:	80 58       	subi	r24, 0x80	; 128
     7cc:	82 b9       	out	0x02, r24	; 2
		myTime_t nowTime = myTime_getNowTime();
     7ce:	89 d4       	rcall	.+2322   	; 0x10e2 <myTime_getNowTime>
     7d0:	ec 01       	movw	r28, r24
		float time = myTime_getHour(nowTime)*100+myTime_getMin(nowTime);
     7d2:	8d d4       	rcall	.+2330   	; 0x10ee <myTime_getHour>
     7d4:	8c 01       	movw	r16, r24
     7d6:	ce 01       	movw	r24, r28
     7d8:	8e d4       	rcall	.+2332   	; 0x10f6 <myTime_getMin>
     7da:	80 9e       	mul	r8, r16
		display_7seg_display(time/100,2);
     7dc:	b0 01       	movw	r22, r0
     7de:	81 9e       	mul	r8, r17
     7e0:	70 0d       	add	r23, r0
     7e2:	11 24       	eor	r1, r1
     7e4:	86 0f       	add	r24, r22
     7e6:	97 1f       	adc	r25, r23
     7e8:	bc 01       	movw	r22, r24
     7ea:	99 0f       	add	r25, r25
     7ec:	88 0b       	sbc	r24, r24
     7ee:	99 0b       	sbc	r25, r25
     7f0:	0e 94 cd 21 	call	0x439a	; 0x439a <__floatsisf>
     7f4:	20 e0       	ldi	r18, 0x00	; 0
     7f6:	30 e0       	ldi	r19, 0x00	; 0
     7f8:	48 ec       	ldi	r20, 0xC8	; 200
     7fa:	52 e4       	ldi	r21, 0x42	; 66
     7fc:	0e 94 32 21 	call	0x4264	; 0x4264 <__divsf3>
     800:	42 e0       	ldi	r20, 0x02	; 2
     802:	0e 94 e2 22 	call	0x45c4	; 0x45c4 <display_7seg_display>
     806:	20 e0       	ldi	r18, 0x00	; 0
		vTaskDelay(pdMS_TO_TICKS(updateTime*1000));
     808:	30 e0       	ldi	r19, 0x00	; 0
     80a:	4a e7       	ldi	r20, 0x7A	; 122
     80c:	54 e4       	ldi	r21, 0x44	; 68
     80e:	60 91 9d 15 	lds	r22, 0x159D	; 0x80159d <updateTime>
     812:	70 91 9e 15 	lds	r23, 0x159E	; 0x80159e <updateTime+0x1>
     816:	80 91 9f 15 	lds	r24, 0x159F	; 0x80159f <updateTime+0x2>
     81a:	90 91 a0 15 	lds	r25, 0x15A0	; 0x8015a0 <updateTime+0x3>
     81e:	0e 94 59 22 	call	0x44b2	; 0x44b2 <__mulsf3>
     822:	0e 94 9f 21 	call	0x433e	; 0x433e <__fixunssfsi>
     826:	9b 01       	movw	r18, r22
     828:	ac 01       	movw	r20, r24
     82a:	ae e3       	ldi	r26, 0x3E	; 62
     82c:	b0 e0       	ldi	r27, 0x00	; 0
     82e:	0e 94 3f 35 	call	0x6a7e	; 0x6a7e <__muluhisi3>
     832:	a7 01       	movw	r20, r14
     834:	96 01       	movw	r18, r12
     836:	0e 94 15 35 	call	0x6a2a	; 0x6a2a <__udivmodsi4>
     83a:	ca 01       	movw	r24, r20
     83c:	b9 01       	movw	r22, r18
     83e:	0e 94 75 16 	call	0x2cea	; 0x2cea <vTaskDelay>
     842:	82 b1       	in	r24, 0x02	; 2
		PORTA ^= _BV(PA7);
     844:	80 58       	subi	r24, 0x80	; 128
     846:	82 b9       	out	0x02, r24	; 2
     848:	82 b1       	in	r24, 0x02	; 2
		
		//Show temperature on 7-segment Display
		PORTA ^= _BV(PA6);
     84a:	89 25       	eor	r24, r9
		temperatureSensor_t temperatureSensor = sensorModelManager_getTemperatureSensor();
     84c:	82 b9       	out	0x02, r24	; 2
     84e:	9e d3       	rcall	.+1852   	; 0xf8c <sensorModelManager_getTemperatureSensor>
		display_7seg_display(temperatureSensor_getValue(temperatureSensor),2);
     850:	36 d3       	rcall	.+1644   	; 0xebe <temperatureSensor_getValue>
     852:	42 e0       	ldi	r20, 0x02	; 2
     854:	0e 94 e2 22 	call	0x45c4	; 0x45c4 <display_7seg_display>
     858:	20 e0       	ldi	r18, 0x00	; 0
		vTaskDelay(pdMS_TO_TICKS(updateTime*1000));
     85a:	30 e0       	ldi	r19, 0x00	; 0
     85c:	4a e7       	ldi	r20, 0x7A	; 122
     85e:	54 e4       	ldi	r21, 0x44	; 68
     860:	60 91 9d 15 	lds	r22, 0x159D	; 0x80159d <updateTime>
     864:	70 91 9e 15 	lds	r23, 0x159E	; 0x80159e <updateTime+0x1>
     868:	80 91 9f 15 	lds	r24, 0x159F	; 0x80159f <updateTime+0x2>
     86c:	90 91 a0 15 	lds	r25, 0x15A0	; 0x8015a0 <updateTime+0x3>
     870:	0e 94 59 22 	call	0x44b2	; 0x44b2 <__mulsf3>
     874:	0e 94 9f 21 	call	0x433e	; 0x433e <__fixunssfsi>
     878:	9b 01       	movw	r18, r22
     87a:	ac 01       	movw	r20, r24
     87c:	ae e3       	ldi	r26, 0x3E	; 62
     87e:	b0 e0       	ldi	r27, 0x00	; 0
     880:	0e 94 3f 35 	call	0x6a7e	; 0x6a7e <__muluhisi3>
     884:	a7 01       	movw	r20, r14
     886:	96 01       	movw	r18, r12
     888:	0e 94 15 35 	call	0x6a2a	; 0x6a2a <__udivmodsi4>
     88c:	ca 01       	movw	r24, r20
     88e:	b9 01       	movw	r22, r18
     890:	0e 94 75 16 	call	0x2cea	; 0x2cea <vTaskDelay>
     894:	82 b1       	in	r24, 0x02	; 2
		PORTA ^= _BV(PA6);
     896:	89 25       	eor	r24, r9
     898:	82 b9       	out	0x02, r24	; 2
		
		//Show humidity on 7-segment Display
		PORTA ^= _BV(PA5);
     89a:	82 b1       	in	r24, 0x02	; 2
     89c:	8a 25       	eor	r24, r10
     89e:	82 b9       	out	0x02, r24	; 2
		humiditySensor_t humiditySensor = sensorModelManager_getHumiditySensor();
     8a0:	7a d3       	rcall	.+1780   	; 0xf96 <sensorModelManager_getHumiditySensor>
     8a2:	4a d2       	rcall	.+1172   	; 0xd38 <humiditySensor_getValue>
		display_7seg_display(humiditySensor_getValue(humiditySensor),2);
     8a4:	42 e0       	ldi	r20, 0x02	; 2
     8a6:	0e 94 e2 22 	call	0x45c4	; 0x45c4 <display_7seg_display>
     8aa:	20 e0       	ldi	r18, 0x00	; 0
     8ac:	30 e0       	ldi	r19, 0x00	; 0
		vTaskDelay(pdMS_TO_TICKS(updateTime*1000));
     8ae:	4a e7       	ldi	r20, 0x7A	; 122
     8b0:	54 e4       	ldi	r21, 0x44	; 68
     8b2:	60 91 9d 15 	lds	r22, 0x159D	; 0x80159d <updateTime>
     8b6:	70 91 9e 15 	lds	r23, 0x159E	; 0x80159e <updateTime+0x1>
     8ba:	80 91 9f 15 	lds	r24, 0x159F	; 0x80159f <updateTime+0x2>
     8be:	90 91 a0 15 	lds	r25, 0x15A0	; 0x8015a0 <updateTime+0x3>
     8c2:	0e 94 59 22 	call	0x44b2	; 0x44b2 <__mulsf3>
     8c6:	0e 94 9f 21 	call	0x433e	; 0x433e <__fixunssfsi>
     8ca:	9b 01       	movw	r18, r22
     8cc:	ac 01       	movw	r20, r24
     8ce:	ae e3       	ldi	r26, 0x3E	; 62
     8d0:	b0 e0       	ldi	r27, 0x00	; 0
     8d2:	0e 94 3f 35 	call	0x6a7e	; 0x6a7e <__muluhisi3>
     8d6:	a7 01       	movw	r20, r14
     8d8:	96 01       	movw	r18, r12
     8da:	0e 94 15 35 	call	0x6a2a	; 0x6a2a <__udivmodsi4>
     8de:	ca 01       	movw	r24, r20
     8e0:	b9 01       	movw	r22, r18
     8e2:	0e 94 75 16 	call	0x2cea	; 0x2cea <vTaskDelay>
     8e6:	82 b1       	in	r24, 0x02	; 2
		PORTA ^= _BV(PA5);
     8e8:	8a 25       	eor	r24, r10
     8ea:	82 b9       	out	0x02, r24	; 2
		
		//Show carbon dioxide on 7-segment Display
		PORTA ^= _BV(PA4);
     8ec:	82 b1       	in	r24, 0x02	; 2
     8ee:	8b 25       	eor	r24, r11
     8f0:	82 b9       	out	0x02, r24	; 2
		carbonDioxideSensor_t carbonDioxideSensor = sensorModelManager_getCarbonDioxideSensor();
     8f2:	56 d3       	rcall	.+1708   	; 0xfa0 <sensorModelManager_getCarbonDioxideSensor>
     8f4:	63 d1       	rcall	.+710    	; 0xbbc <carbonDioxideSensor_getValue>
		display_7seg_display(carbonDioxideSensor_getValue(carbonDioxideSensor),0);
     8f6:	bc 01       	movw	r22, r24
     8f8:	99 0f       	add	r25, r25
     8fa:	88 0b       	sbc	r24, r24
     8fc:	99 0b       	sbc	r25, r25
     8fe:	0e 94 cd 21 	call	0x439a	; 0x439a <__floatsisf>
     902:	40 e0       	ldi	r20, 0x00	; 0
     904:	0e 94 e2 22 	call	0x45c4	; 0x45c4 <display_7seg_display>
     908:	20 e0       	ldi	r18, 0x00	; 0
     90a:	30 e0       	ldi	r19, 0x00	; 0
		vTaskDelay(pdMS_TO_TICKS(updateTime*1000));
     90c:	4a e7       	ldi	r20, 0x7A	; 122
     90e:	54 e4       	ldi	r21, 0x44	; 68
     910:	60 91 9d 15 	lds	r22, 0x159D	; 0x80159d <updateTime>
     914:	70 91 9e 15 	lds	r23, 0x159E	; 0x80159e <updateTime+0x1>
     918:	80 91 9f 15 	lds	r24, 0x159F	; 0x80159f <updateTime+0x2>
     91c:	90 91 a0 15 	lds	r25, 0x15A0	; 0x8015a0 <updateTime+0x3>
     920:	0e 94 59 22 	call	0x44b2	; 0x44b2 <__mulsf3>
     924:	0e 94 9f 21 	call	0x433e	; 0x433e <__fixunssfsi>
     928:	9b 01       	movw	r18, r22
     92a:	ac 01       	movw	r20, r24
     92c:	ae e3       	ldi	r26, 0x3E	; 62
     92e:	b0 e0       	ldi	r27, 0x00	; 0
     930:	0e 94 3f 35 	call	0x6a7e	; 0x6a7e <__muluhisi3>
     934:	a7 01       	movw	r20, r14
     936:	96 01       	movw	r18, r12
     938:	0e 94 15 35 	call	0x6a2a	; 0x6a2a <__udivmodsi4>
     93c:	ca 01       	movw	r24, r20
     93e:	b9 01       	movw	r22, r18
     940:	0e 94 75 16 	call	0x2cea	; 0x2cea <vTaskDelay>
     944:	82 b1       	in	r24, 0x02	; 2
     946:	8b 25       	eor	r24, r11
		PORTA ^= _BV(PA4);
     948:	82 b9       	out	0x02, r24	; 2
     94a:	3e cf       	rjmp	.-388    	; 0x7c8 <sevenSegmentDisplayController_task+0x2a>

0000094c <sevenSegmentDisplayController_create>:
     94c:	ef 92       	push	r14
     94e:	ff 92       	push	r15
	}
}

void sevenSegmentDisplayController_create(float displayUpdateTime)
{
     950:	0f 93       	push	r16
	updateTime = displayUpdateTime;
     952:	60 93 9d 15 	sts	0x159D, r22	; 0x80159d <updateTime>
     956:	70 93 9e 15 	sts	0x159E, r23	; 0x80159e <updateTime+0x1>
     95a:	80 93 9f 15 	sts	0x159F, r24	; 0x80159f <updateTime+0x2>
     95e:	90 93 a0 15 	sts	0x15A0, r25	; 0x8015a0 <updateTime+0x3>
	//Init 7-segment Display
	display_7seg_initialise(NULL);
     962:	80 e0       	ldi	r24, 0x00	; 0
     964:	90 e0       	ldi	r25, 0x00	; 0
     966:	0e 94 94 23 	call	0x4728	; 0x4728 <display_7seg_initialise>
	display_7seg_powerUp();
     96a:	0e 94 89 23 	call	0x4712	; 0x4712 <display_7seg_powerUp>
	
	printf("7-segment Display started!!!\n");
     96e:	83 e1       	ldi	r24, 0x13	; 19
     970:	93 e0       	ldi	r25, 0x03	; 3
     972:	0e 94 1d 37 	call	0x6e3a	; 0x6e3a <puts>
	xTaskCreate(sevenSegmentDisplayController_task, "7-segment Display Task", configMINIMAL_STACK_SIZE, (void*)1, tskIDLE_PRIORITY + 1, NULL);
     976:	e1 2c       	mov	r14, r1
     978:	f1 2c       	mov	r15, r1
     97a:	01 e0       	ldi	r16, 0x01	; 1
     97c:	21 e0       	ldi	r18, 0x01	; 1
     97e:	30 e0       	ldi	r19, 0x00	; 0
     980:	40 ec       	ldi	r20, 0xC0	; 192
     982:	50 e0       	ldi	r21, 0x00	; 0
     984:	60 e3       	ldi	r22, 0x30	; 48
     986:	73 e0       	ldi	r23, 0x03	; 3
     988:	8f ec       	ldi	r24, 0xCF	; 207
     98a:	93 e0       	ldi	r25, 0x03	; 3
     98c:	0e 94 d9 12 	call	0x25b2	; 0x25b2 <xTaskCreate>
     990:	0f 91       	pop	r16
     992:	ff 90       	pop	r15
     994:	ef 90       	pop	r14
     996:	08 95       	ret

00000998 <temperatureSensorController_task>:
{
	for(;;)
	{
		if ( HIH8120_OK != hih8120_wakeup() )
		{
			printf("Temperature sensor didn't wakeup!!!");
     998:	04 ea       	ldi	r16, 0xA4	; 164
     99a:	12 e0       	ldi	r17, 0x02	; 2
		}
		
		//wait sensor to wakeup
		vTaskDelay(pdMS_TO_TICKS(temperatureSensor_getReportInterval(temSensor)*500));
     99c:	0f 2e       	mov	r0, r31
     99e:	f8 ee       	ldi	r31, 0xE8	; 232
     9a0:	cf 2e       	mov	r12, r31
     9a2:	f3 e0       	ldi	r31, 0x03	; 3
     9a4:	df 2e       	mov	r13, r31
     9a6:	e1 2c       	mov	r14, r1
     9a8:	f1 2c       	mov	r15, r1
     9aa:	f0 2d       	mov	r31, r0
		PORTA ^= _BV(PA0);
     9ac:	bb 24       	eor	r11, r11
     9ae:	b3 94       	inc	r11
		
		if ( HIH8120_OK !=  hih8120_measure() )
		{
			printf("Temperature sensor didn't measure!!!");
     9b0:	c7 e4       	ldi	r28, 0x47	; 71
     9b2:	d3 e0       	ldi	r29, 0x03	; 3

void temperatureSensorController_task(void *pvParameters)
{
	for(;;)
	{
		if ( HIH8120_OK != hih8120_wakeup() )
     9b4:	0e 94 88 24 	call	0x4910	; 0x4910 <hih8120_wakeup>
     9b8:	88 23       	and	r24, r24
     9ba:	31 f0       	breq	.+12     	; 0x9c8 <temperatureSensorController_task+0x30>
		{
			printf("Temperature sensor didn't wakeup!!!");
     9bc:	1f 93       	push	r17
     9be:	0f 93       	push	r16
     9c0:	0e 94 0a 37 	call	0x6e14	; 0x6e14 <printf>
     9c4:	0f 90       	pop	r0
     9c6:	0f 90       	pop	r0
		}
		
		//wait sensor to wakeup
		vTaskDelay(pdMS_TO_TICKS(temperatureSensor_getReportInterval(temSensor)*500));
     9c8:	80 91 a1 15 	lds	r24, 0x15A1	; 0x8015a1 <temSensor>
     9cc:	90 91 a2 15 	lds	r25, 0x15A2	; 0x8015a2 <temSensor+0x1>
     9d0:	51 d2       	rcall	.+1186   	; 0xe74 <temperatureSensor_getReportInterval>
     9d2:	20 e0       	ldi	r18, 0x00	; 0
     9d4:	30 e0       	ldi	r19, 0x00	; 0
     9d6:	4a ef       	ldi	r20, 0xFA	; 250
     9d8:	53 e4       	ldi	r21, 0x43	; 67
     9da:	0e 94 59 22 	call	0x44b2	; 0x44b2 <__mulsf3>
     9de:	0e 94 9f 21 	call	0x433e	; 0x433e <__fixunssfsi>
     9e2:	9b 01       	movw	r18, r22
     9e4:	ac 01       	movw	r20, r24
     9e6:	ae e3       	ldi	r26, 0x3E	; 62
     9e8:	b0 e0       	ldi	r27, 0x00	; 0
     9ea:	0e 94 3f 35 	call	0x6a7e	; 0x6a7e <__muluhisi3>
     9ee:	a7 01       	movw	r20, r14
     9f0:	96 01       	movw	r18, r12
     9f2:	0e 94 15 35 	call	0x6a2a	; 0x6a2a <__udivmodsi4>
     9f6:	ca 01       	movw	r24, r20
     9f8:	b9 01       	movw	r22, r18
     9fa:	0e 94 75 16 	call	0x2cea	; 0x2cea <vTaskDelay>
		PORTA ^= _BV(PA0);
     9fe:	82 b1       	in	r24, 0x02	; 2
     a00:	8b 25       	eor	r24, r11
     a02:	82 b9       	out	0x02, r24	; 2
		
		if ( HIH8120_OK !=  hih8120_measure() )
     a04:	0e 94 9d 24 	call	0x493a	; 0x493a <hih8120_measure>
     a08:	88 23       	and	r24, r24
     a0a:	31 f0       	breq	.+12     	; 0xa18 <temperatureSensorController_task+0x80>
		{
			printf("Temperature sensor didn't measure!!!");
     a0c:	df 93       	push	r29
     a0e:	cf 93       	push	r28
     a10:	0e 94 0a 37 	call	0x6e14	; 0x6e14 <printf>
     a14:	0f 90       	pop	r0
     a16:	0f 90       	pop	r0
		}
		
		//wait sensor to get the value
		vTaskDelay(pdMS_TO_TICKS(temperatureSensor_getReportInterval(temSensor)*500));
     a18:	80 91 a1 15 	lds	r24, 0x15A1	; 0x8015a1 <temSensor>
     a1c:	90 91 a2 15 	lds	r25, 0x15A2	; 0x8015a2 <temSensor+0x1>
     a20:	29 d2       	rcall	.+1106   	; 0xe74 <temperatureSensor_getReportInterval>
     a22:	20 e0       	ldi	r18, 0x00	; 0
     a24:	30 e0       	ldi	r19, 0x00	; 0
     a26:	4a ef       	ldi	r20, 0xFA	; 250
     a28:	53 e4       	ldi	r21, 0x43	; 67
     a2a:	0e 94 59 22 	call	0x44b2	; 0x44b2 <__mulsf3>
     a2e:	0e 94 9f 21 	call	0x433e	; 0x433e <__fixunssfsi>
     a32:	9b 01       	movw	r18, r22
     a34:	ac 01       	movw	r20, r24
     a36:	ae e3       	ldi	r26, 0x3E	; 62
     a38:	b0 e0       	ldi	r27, 0x00	; 0
     a3a:	0e 94 3f 35 	call	0x6a7e	; 0x6a7e <__muluhisi3>
     a3e:	a7 01       	movw	r20, r14
     a40:	96 01       	movw	r18, r12
     a42:	0e 94 15 35 	call	0x6a2a	; 0x6a2a <__udivmodsi4>
     a46:	ca 01       	movw	r24, r20
     a48:	b9 01       	movw	r22, r18
     a4a:	0e 94 75 16 	call	0x2cea	; 0x2cea <vTaskDelay>
		PORTA ^= _BV(PA0);
     a4e:	82 b1       	in	r24, 0x02	; 2
     a50:	8b 25       	eor	r24, r11
     a52:	82 b9       	out	0x02, r24	; 2
		
		//save new value
		temperature = hih8120_getTemperature();
     a54:	0e 94 c0 24 	call	0x4980	; 0x4980 <hih8120_getTemperature>
     a58:	ab 01       	movw	r20, r22
     a5a:	bc 01       	movw	r22, r24
     a5c:	40 93 b6 08 	sts	0x08B6, r20	; 0x8008b6 <temperature>
     a60:	50 93 b7 08 	sts	0x08B7, r21	; 0x8008b7 <temperature+0x1>
     a64:	60 93 b8 08 	sts	0x08B8, r22	; 0x8008b8 <temperature+0x2>
     a68:	70 93 b9 08 	sts	0x08B9, r23	; 0x8008b9 <temperature+0x3>
		temperatureSensor_setValue(temSensor,temperature);
     a6c:	80 91 a1 15 	lds	r24, 0x15A1	; 0x8015a1 <temSensor>
     a70:	90 91 a2 15 	lds	r25, 0x15A2	; 0x8015a2 <temSensor+0x1>
     a74:	d7 d1       	rcall	.+942    	; 0xe24 <temperatureSensor_setValue>
		//print temperature (the print of float is ?, so print it as int)
		int a = temperatureSensor_getValue(temSensor);
     a76:	80 91 a1 15 	lds	r24, 0x15A1	; 0x8015a1 <temSensor>
     a7a:	90 91 a2 15 	lds	r25, 0x15A2	; 0x8015a2 <temSensor+0x1>
     a7e:	1f d2       	rcall	.+1086   	; 0xebe <temperatureSensor_getValue>
		int b = temperatureSensor_getValue(temSensor)*10000-a*10000;
     a80:	80 91 a1 15 	lds	r24, 0x15A1	; 0x8015a1 <temSensor>
     a84:	90 91 a2 15 	lds	r25, 0x15A2	; 0x8015a2 <temSensor+0x1>
     a88:	1a d2       	rcall	.+1076   	; 0xebe <temperatureSensor_getValue>
		myTime_t time = temperatureSensor_getUpdateTime(temSensor);
     a8a:	80 91 a1 15 	lds	r24, 0x15A1	; 0x8015a1 <temSensor>
     a8e:	90 91 a2 15 	lds	r25, 0x15A2	; 0x8015a2 <temSensor+0x1>
     a92:	3a d2       	rcall	.+1140   	; 0xf08 <temperatureSensor_getUpdateTime>
     a94:	8f cf       	rjmp	.-226    	; 0x9b4 <temperatureSensorController_task+0x1c>

00000a96 <temperatureSensorController_create>:
		//printf("temperature:%d.%d",a,b);
	}
     a96:	ef 92       	push	r14
}

void temperatureSensorController_create(temperatureSensor_t sensor)
{
     a98:	ff 92       	push	r15
     a9a:	0f 93       	push	r16
	temSensor = sensor;
     a9c:	90 93 a2 15 	sts	0x15A2, r25	; 0x8015a2 <temSensor+0x1>
     aa0:	80 93 a1 15 	sts	0x15A1, r24	; 0x8015a1 <temSensor>
	printf("Temperature sensor started!!!\n");
     aa4:	8c e6       	ldi	r24, 0x6C	; 108
     aa6:	93 e0       	ldi	r25, 0x03	; 3
     aa8:	0e 94 1d 37 	call	0x6e3a	; 0x6e3a <puts>
	xTaskCreate(temperatureSensorController_task, "TemperatureSensorTask", configMINIMAL_STACK_SIZE, (void*)1, tskIDLE_PRIORITY + 1, NULL);
     aac:	e1 2c       	mov	r14, r1
     aae:	f1 2c       	mov	r15, r1
     ab0:	01 e0       	ldi	r16, 0x01	; 1
     ab2:	21 e0       	ldi	r18, 0x01	; 1
     ab4:	30 e0       	ldi	r19, 0x00	; 0
     ab6:	40 ec       	ldi	r20, 0xC0	; 192
     ab8:	50 e0       	ldi	r21, 0x00	; 0
     aba:	6a e8       	ldi	r22, 0x8A	; 138
     abc:	73 e0       	ldi	r23, 0x03	; 3
     abe:	8c ec       	ldi	r24, 0xCC	; 204
     ac0:	94 e0       	ldi	r25, 0x04	; 4
     ac2:	0e 94 d9 12 	call	0x25b2	; 0x25b2 <xTaskCreate>
	//vTaskStartScheduler();
     ac6:	0f 91       	pop	r16
     ac8:	ff 90       	pop	r15
     aca:	ef 90       	pop	r14
     acc:	08 95       	ret

00000ace <carbonDioxideSensor_create>:
void carbonDioxideSensor_setReportInterval(carbonDioxideSensor_t self,float reportInterval)
{
	xSemaphoreTake(self->readWriteSemaphore, portMAX_DELAY);
	self->reportInterval = reportInterval;
	xSemaphoreGive(self->readWriteSemaphore);
}
     ace:	cf 92       	push	r12
     ad0:	df 92       	push	r13
     ad2:	ef 92       	push	r14
     ad4:	ff 92       	push	r15
     ad6:	0f 93       	push	r16
     ad8:	cf 93       	push	r28
     ada:	df 93       	push	r29
     adc:	6b 01       	movw	r12, r22
     ade:	7c 01       	movw	r14, r24
     ae0:	61 e0       	ldi	r22, 0x01	; 1
     ae2:	70 e0       	ldi	r23, 0x00	; 0
     ae4:	8a e0       	ldi	r24, 0x0A	; 10
     ae6:	90 e0       	ldi	r25, 0x00	; 0
     ae8:	0e 94 6c 35 	call	0x6ad8	; 0x6ad8 <calloc>
     aec:	ec 01       	movw	r28, r24
     aee:	89 2b       	or	r24, r25
     af0:	b1 f0       	breq	.+44     	; 0xb1e <carbonDioxideSensor_create+0x50>
     af2:	c8 82       	st	Y, r12
     af4:	d9 82       	std	Y+1, r13	; 0x01
     af6:	ea 82       	std	Y+2, r14	; 0x02
     af8:	fb 82       	std	Y+3, r15	; 0x03
     afa:	1d 82       	std	Y+5, r1	; 0x05
     afc:	1c 82       	std	Y+4, r1	; 0x04
     afe:	b2 d2       	rcall	.+1380   	; 0x1064 <myTime_create>
     b00:	99 87       	std	Y+9, r25	; 0x09
     b02:	88 87       	std	Y+8, r24	; 0x08
     b04:	43 e0       	ldi	r20, 0x03	; 3
     b06:	60 e0       	ldi	r22, 0x00	; 0
     b08:	81 e0       	ldi	r24, 0x01	; 1
     b0a:	f0 d6       	rcall	.+3552   	; 0x18ec <xQueueGenericCreate>
     b0c:	9f 83       	std	Y+7, r25	; 0x07
     b0e:	8e 83       	std	Y+6, r24	; 0x06
     b10:	00 e0       	ldi	r16, 0x00	; 0
     b12:	20 e0       	ldi	r18, 0x00	; 0
     b14:	30 e0       	ldi	r19, 0x00	; 0
     b16:	a9 01       	movw	r20, r18
     b18:	60 e0       	ldi	r22, 0x00	; 0
     b1a:	70 e0       	ldi	r23, 0x00	; 0
     b1c:	08 d7       	rcall	.+3600   	; 0x192e <xQueueGenericSend>
     b1e:	ce 01       	movw	r24, r28
     b20:	df 91       	pop	r29
     b22:	cf 91       	pop	r28
     b24:	0f 91       	pop	r16
     b26:	ff 90       	pop	r15
     b28:	ef 90       	pop	r14
     b2a:	df 90       	pop	r13
     b2c:	cf 90       	pop	r12
     b2e:	08 95       	ret

00000b30 <carbonDioxideSensor_setValue>:

void carbonDioxideSensor_setValue(carbonDioxideSensor_t self,int value)
{
     b30:	0f 93       	push	r16
     b32:	1f 93       	push	r17
     b34:	cf 93       	push	r28
     b36:	df 93       	push	r29
     b38:	ec 01       	movw	r28, r24
     b3a:	8b 01       	movw	r16, r22
	xSemaphoreTake(self->readWriteSemaphore, portMAX_DELAY);
     b3c:	4f ef       	ldi	r20, 0xFF	; 255
     b3e:	5f ef       	ldi	r21, 0xFF	; 255
     b40:	ba 01       	movw	r22, r20
     b42:	8e 81       	ldd	r24, Y+6	; 0x06
     b44:	9f 81       	ldd	r25, Y+7	; 0x07
     b46:	0e 94 0e 0e 	call	0x1c1c	; 0x1c1c <xQueueSemaphoreTake>
	self->value = value;
     b4a:	1d 83       	std	Y+5, r17	; 0x05
     b4c:	0c 83       	std	Y+4, r16	; 0x04
	myTime_updateToNowTime(self->updateTime);
     b4e:	88 85       	ldd	r24, Y+8	; 0x08
     b50:	99 85       	ldd	r25, Y+9	; 0x09
     b52:	a0 d2       	rcall	.+1344   	; 0x1094 <myTime_updateToNowTime>
	xSemaphoreGive(self->readWriteSemaphore);
     b54:	00 e0       	ldi	r16, 0x00	; 0
     b56:	20 e0       	ldi	r18, 0x00	; 0
     b58:	30 e0       	ldi	r19, 0x00	; 0
     b5a:	a9 01       	movw	r20, r18
     b5c:	60 e0       	ldi	r22, 0x00	; 0
     b5e:	70 e0       	ldi	r23, 0x00	; 0
     b60:	8e 81       	ldd	r24, Y+6	; 0x06
     b62:	9f 81       	ldd	r25, Y+7	; 0x07
     b64:	e4 d6       	rcall	.+3528   	; 0x192e <xQueueGenericSend>
}
     b66:	df 91       	pop	r29
     b68:	cf 91       	pop	r28
     b6a:	1f 91       	pop	r17
     b6c:	0f 91       	pop	r16
     b6e:	08 95       	ret

00000b70 <carbonDioxideSensor_getReportInterval>:

float carbonDioxideSensor_getReportInterval(carbonDioxideSensor_t self)
{
     b70:	cf 92       	push	r12
     b72:	df 92       	push	r13
     b74:	ef 92       	push	r14
     b76:	ff 92       	push	r15
     b78:	0f 93       	push	r16
     b7a:	cf 93       	push	r28
     b7c:	df 93       	push	r29
     b7e:	ec 01       	movw	r28, r24
	xSemaphoreTake(self->readWriteSemaphore, portMAX_DELAY);
     b80:	4f ef       	ldi	r20, 0xFF	; 255
     b82:	5f ef       	ldi	r21, 0xFF	; 255
     b84:	ba 01       	movw	r22, r20
     b86:	8e 81       	ldd	r24, Y+6	; 0x06
     b88:	9f 81       	ldd	r25, Y+7	; 0x07
     b8a:	0e 94 0e 0e 	call	0x1c1c	; 0x1c1c <xQueueSemaphoreTake>
	float result = self->reportInterval;
     b8e:	c8 80       	ld	r12, Y
     b90:	d9 80       	ldd	r13, Y+1	; 0x01
     b92:	ea 80       	ldd	r14, Y+2	; 0x02
     b94:	fb 80       	ldd	r15, Y+3	; 0x03
	xSemaphoreGive(self->readWriteSemaphore);
     b96:	00 e0       	ldi	r16, 0x00	; 0
     b98:	20 e0       	ldi	r18, 0x00	; 0
     b9a:	30 e0       	ldi	r19, 0x00	; 0
     b9c:	a9 01       	movw	r20, r18
     b9e:	60 e0       	ldi	r22, 0x00	; 0
     ba0:	70 e0       	ldi	r23, 0x00	; 0
     ba2:	8e 81       	ldd	r24, Y+6	; 0x06
     ba4:	9f 81       	ldd	r25, Y+7	; 0x07
     ba6:	c3 d6       	rcall	.+3462   	; 0x192e <xQueueGenericSend>
	return result;
}
     ba8:	c7 01       	movw	r24, r14
     baa:	b6 01       	movw	r22, r12
     bac:	df 91       	pop	r29
     bae:	cf 91       	pop	r28
     bb0:	0f 91       	pop	r16
     bb2:	ff 90       	pop	r15
     bb4:	ef 90       	pop	r14
     bb6:	df 90       	pop	r13
     bb8:	cf 90       	pop	r12
     bba:	08 95       	ret

00000bbc <carbonDioxideSensor_getValue>:

int carbonDioxideSensor_getValue(carbonDioxideSensor_t self)
{
     bbc:	ef 92       	push	r14
     bbe:	ff 92       	push	r15
     bc0:	0f 93       	push	r16
     bc2:	cf 93       	push	r28
     bc4:	df 93       	push	r29
     bc6:	ec 01       	movw	r28, r24
	xSemaphoreTake(self->readWriteSemaphore, portMAX_DELAY);
     bc8:	4f ef       	ldi	r20, 0xFF	; 255
     bca:	5f ef       	ldi	r21, 0xFF	; 255
     bcc:	ba 01       	movw	r22, r20
     bce:	8e 81       	ldd	r24, Y+6	; 0x06
     bd0:	9f 81       	ldd	r25, Y+7	; 0x07
     bd2:	0e 94 0e 0e 	call	0x1c1c	; 0x1c1c <xQueueSemaphoreTake>
	int result = self->value;
     bd6:	ec 80       	ldd	r14, Y+4	; 0x04
     bd8:	fd 80       	ldd	r15, Y+5	; 0x05
	xSemaphoreGive(self->readWriteSemaphore);
     bda:	00 e0       	ldi	r16, 0x00	; 0
     bdc:	20 e0       	ldi	r18, 0x00	; 0
     bde:	30 e0       	ldi	r19, 0x00	; 0
     be0:	a9 01       	movw	r20, r18
     be2:	60 e0       	ldi	r22, 0x00	; 0
     be4:	70 e0       	ldi	r23, 0x00	; 0
     be6:	8e 81       	ldd	r24, Y+6	; 0x06
     be8:	9f 81       	ldd	r25, Y+7	; 0x07
     bea:	a1 d6       	rcall	.+3394   	; 0x192e <xQueueGenericSend>
	return result;
}
     bec:	c7 01       	movw	r24, r14
     bee:	df 91       	pop	r29
     bf0:	cf 91       	pop	r28
     bf2:	0f 91       	pop	r16
     bf4:	ff 90       	pop	r15
     bf6:	ef 90       	pop	r14
     bf8:	08 95       	ret

00000bfa <carbonDioxideSensor_getUpdateTime>:

myTime_t carbonDioxideSensor_getUpdateTime(carbonDioxideSensor_t self)
{
     bfa:	ef 92       	push	r14
     bfc:	ff 92       	push	r15
     bfe:	0f 93       	push	r16
     c00:	cf 93       	push	r28
     c02:	df 93       	push	r29
     c04:	ec 01       	movw	r28, r24
	xSemaphoreTake(self->readWriteSemaphore, portMAX_DELAY);
     c06:	4f ef       	ldi	r20, 0xFF	; 255
     c08:	5f ef       	ldi	r21, 0xFF	; 255
     c0a:	ba 01       	movw	r22, r20
     c0c:	8e 81       	ldd	r24, Y+6	; 0x06
     c0e:	9f 81       	ldd	r25, Y+7	; 0x07
     c10:	0e 94 0e 0e 	call	0x1c1c	; 0x1c1c <xQueueSemaphoreTake>
	myTime_t result = self->updateTime;
     c14:	e8 84       	ldd	r14, Y+8	; 0x08
     c16:	f9 84       	ldd	r15, Y+9	; 0x09
	xSemaphoreGive(self->readWriteSemaphore);
     c18:	00 e0       	ldi	r16, 0x00	; 0
     c1a:	20 e0       	ldi	r18, 0x00	; 0
     c1c:	30 e0       	ldi	r19, 0x00	; 0
     c1e:	a9 01       	movw	r20, r18
     c20:	60 e0       	ldi	r22, 0x00	; 0
     c22:	70 e0       	ldi	r23, 0x00	; 0
     c24:	8e 81       	ldd	r24, Y+6	; 0x06
     c26:	9f 81       	ldd	r25, Y+7	; 0x07
     c28:	82 d6       	rcall	.+3332   	; 0x192e <xQueueGenericSend>
	return result;
}
     c2a:	c7 01       	movw	r24, r14
     c2c:	df 91       	pop	r29
     c2e:	cf 91       	pop	r28
     c30:	0f 91       	pop	r16
     c32:	ff 90       	pop	r15
     c34:	ef 90       	pop	r14
     c36:	08 95       	ret

00000c38 <humiditySensor_create>:
void humiditySensor_setReportInterval(humiditySensor_t self,float reportInterval)
{
	xSemaphoreTake(self->readWriteSemaphore, portMAX_DELAY);
	self->reportInterval = reportInterval;
	xSemaphoreGive(self->readWriteSemaphore);
}
     c38:	cf 92       	push	r12
     c3a:	df 92       	push	r13
     c3c:	ef 92       	push	r14
     c3e:	ff 92       	push	r15
     c40:	0f 93       	push	r16
     c42:	cf 93       	push	r28
     c44:	df 93       	push	r29
     c46:	6b 01       	movw	r12, r22
     c48:	7c 01       	movw	r14, r24
     c4a:	61 e0       	ldi	r22, 0x01	; 1
     c4c:	70 e0       	ldi	r23, 0x00	; 0
     c4e:	8c e0       	ldi	r24, 0x0C	; 12
     c50:	90 e0       	ldi	r25, 0x00	; 0
     c52:	0e 94 6c 35 	call	0x6ad8	; 0x6ad8 <calloc>
     c56:	ec 01       	movw	r28, r24
     c58:	89 2b       	or	r24, r25
     c5a:	c1 f0       	breq	.+48     	; 0xc8c <humiditySensor_create+0x54>
     c5c:	c8 82       	st	Y, r12
     c5e:	d9 82       	std	Y+1, r13	; 0x01
     c60:	ea 82       	std	Y+2, r14	; 0x02
     c62:	fb 82       	std	Y+3, r15	; 0x03
     c64:	1c 82       	std	Y+4, r1	; 0x04
     c66:	1d 82       	std	Y+5, r1	; 0x05
     c68:	1e 82       	std	Y+6, r1	; 0x06
     c6a:	1f 82       	std	Y+7, r1	; 0x07
     c6c:	fb d1       	rcall	.+1014   	; 0x1064 <myTime_create>
     c6e:	9b 87       	std	Y+11, r25	; 0x0b
     c70:	8a 87       	std	Y+10, r24	; 0x0a
     c72:	43 e0       	ldi	r20, 0x03	; 3
     c74:	60 e0       	ldi	r22, 0x00	; 0
     c76:	81 e0       	ldi	r24, 0x01	; 1
     c78:	39 d6       	rcall	.+3186   	; 0x18ec <xQueueGenericCreate>
     c7a:	99 87       	std	Y+9, r25	; 0x09
     c7c:	88 87       	std	Y+8, r24	; 0x08
     c7e:	00 e0       	ldi	r16, 0x00	; 0
     c80:	20 e0       	ldi	r18, 0x00	; 0
     c82:	30 e0       	ldi	r19, 0x00	; 0
     c84:	a9 01       	movw	r20, r18
     c86:	60 e0       	ldi	r22, 0x00	; 0
     c88:	70 e0       	ldi	r23, 0x00	; 0
     c8a:	51 d6       	rcall	.+3234   	; 0x192e <xQueueGenericSend>
     c8c:	ce 01       	movw	r24, r28
     c8e:	df 91       	pop	r29
     c90:	cf 91       	pop	r28
     c92:	0f 91       	pop	r16
     c94:	ff 90       	pop	r15
     c96:	ef 90       	pop	r14
     c98:	df 90       	pop	r13
     c9a:	cf 90       	pop	r12
     c9c:	08 95       	ret

00000c9e <humiditySensor_setValue>:

void humiditySensor_setValue(humiditySensor_t self,float value)
{
     c9e:	cf 92       	push	r12
     ca0:	df 92       	push	r13
     ca2:	ef 92       	push	r14
     ca4:	ff 92       	push	r15
     ca6:	0f 93       	push	r16
     ca8:	cf 93       	push	r28
     caa:	df 93       	push	r29
     cac:	ec 01       	movw	r28, r24
     cae:	6a 01       	movw	r12, r20
     cb0:	7b 01       	movw	r14, r22
	xSemaphoreTake(self->readWriteSemaphore, portMAX_DELAY);
     cb2:	4f ef       	ldi	r20, 0xFF	; 255
     cb4:	5f ef       	ldi	r21, 0xFF	; 255
     cb6:	ba 01       	movw	r22, r20
     cb8:	88 85       	ldd	r24, Y+8	; 0x08
     cba:	99 85       	ldd	r25, Y+9	; 0x09
     cbc:	af d7       	rcall	.+3934   	; 0x1c1c <xQueueSemaphoreTake>
	self->value = value;
     cbe:	cc 82       	std	Y+4, r12	; 0x04
     cc0:	dd 82       	std	Y+5, r13	; 0x05
     cc2:	ee 82       	std	Y+6, r14	; 0x06
     cc4:	ff 82       	std	Y+7, r15	; 0x07
	myTime_updateToNowTime(self->updateTime);
     cc6:	8a 85       	ldd	r24, Y+10	; 0x0a
     cc8:	9b 85       	ldd	r25, Y+11	; 0x0b
     cca:	e4 d1       	rcall	.+968    	; 0x1094 <myTime_updateToNowTime>
	xSemaphoreGive(self->readWriteSemaphore);
     ccc:	00 e0       	ldi	r16, 0x00	; 0
     cce:	20 e0       	ldi	r18, 0x00	; 0
     cd0:	30 e0       	ldi	r19, 0x00	; 0
     cd2:	a9 01       	movw	r20, r18
     cd4:	60 e0       	ldi	r22, 0x00	; 0
     cd6:	70 e0       	ldi	r23, 0x00	; 0
     cd8:	88 85       	ldd	r24, Y+8	; 0x08
     cda:	99 85       	ldd	r25, Y+9	; 0x09
     cdc:	28 d6       	rcall	.+3152   	; 0x192e <xQueueGenericSend>
}
     cde:	df 91       	pop	r29
     ce0:	cf 91       	pop	r28
     ce2:	0f 91       	pop	r16
     ce4:	ff 90       	pop	r15
     ce6:	ef 90       	pop	r14
     ce8:	df 90       	pop	r13
     cea:	cf 90       	pop	r12
     cec:	08 95       	ret

00000cee <humiditySensor_getReportInterval>:

float humiditySensor_getReportInterval(humiditySensor_t self)
{
     cee:	cf 92       	push	r12
     cf0:	df 92       	push	r13
     cf2:	ef 92       	push	r14
     cf4:	ff 92       	push	r15
     cf6:	0f 93       	push	r16
     cf8:	cf 93       	push	r28
     cfa:	df 93       	push	r29
     cfc:	ec 01       	movw	r28, r24
	xSemaphoreTake(self->readWriteSemaphore, portMAX_DELAY);
     cfe:	4f ef       	ldi	r20, 0xFF	; 255
     d00:	5f ef       	ldi	r21, 0xFF	; 255
     d02:	ba 01       	movw	r22, r20
     d04:	88 85       	ldd	r24, Y+8	; 0x08
     d06:	99 85       	ldd	r25, Y+9	; 0x09
     d08:	89 d7       	rcall	.+3858   	; 0x1c1c <xQueueSemaphoreTake>
	float result = self->reportInterval;
     d0a:	c8 80       	ld	r12, Y
     d0c:	d9 80       	ldd	r13, Y+1	; 0x01
     d0e:	ea 80       	ldd	r14, Y+2	; 0x02
     d10:	fb 80       	ldd	r15, Y+3	; 0x03
	xSemaphoreGive(self->readWriteSemaphore);
     d12:	00 e0       	ldi	r16, 0x00	; 0
     d14:	20 e0       	ldi	r18, 0x00	; 0
     d16:	30 e0       	ldi	r19, 0x00	; 0
     d18:	a9 01       	movw	r20, r18
     d1a:	60 e0       	ldi	r22, 0x00	; 0
     d1c:	70 e0       	ldi	r23, 0x00	; 0
     d1e:	88 85       	ldd	r24, Y+8	; 0x08
     d20:	99 85       	ldd	r25, Y+9	; 0x09
     d22:	05 d6       	rcall	.+3082   	; 0x192e <xQueueGenericSend>
	return result;
}
     d24:	c7 01       	movw	r24, r14
     d26:	b6 01       	movw	r22, r12
     d28:	df 91       	pop	r29
     d2a:	cf 91       	pop	r28
     d2c:	0f 91       	pop	r16
     d2e:	ff 90       	pop	r15
     d30:	ef 90       	pop	r14
     d32:	df 90       	pop	r13
     d34:	cf 90       	pop	r12
     d36:	08 95       	ret

00000d38 <humiditySensor_getValue>:

float humiditySensor_getValue(humiditySensor_t self)
{
     d38:	cf 92       	push	r12
     d3a:	df 92       	push	r13
     d3c:	ef 92       	push	r14
     d3e:	ff 92       	push	r15
     d40:	0f 93       	push	r16
     d42:	cf 93       	push	r28
     d44:	df 93       	push	r29
     d46:	ec 01       	movw	r28, r24
	xSemaphoreTake(self->readWriteSemaphore, portMAX_DELAY);
     d48:	4f ef       	ldi	r20, 0xFF	; 255
     d4a:	5f ef       	ldi	r21, 0xFF	; 255
     d4c:	ba 01       	movw	r22, r20
     d4e:	88 85       	ldd	r24, Y+8	; 0x08
     d50:	99 85       	ldd	r25, Y+9	; 0x09
     d52:	64 d7       	rcall	.+3784   	; 0x1c1c <xQueueSemaphoreTake>
	float result = self->value;
     d54:	cc 80       	ldd	r12, Y+4	; 0x04
     d56:	dd 80       	ldd	r13, Y+5	; 0x05
     d58:	ee 80       	ldd	r14, Y+6	; 0x06
     d5a:	ff 80       	ldd	r15, Y+7	; 0x07
	xSemaphoreGive(self->readWriteSemaphore);
     d5c:	00 e0       	ldi	r16, 0x00	; 0
     d5e:	20 e0       	ldi	r18, 0x00	; 0
     d60:	30 e0       	ldi	r19, 0x00	; 0
     d62:	a9 01       	movw	r20, r18
     d64:	60 e0       	ldi	r22, 0x00	; 0
     d66:	70 e0       	ldi	r23, 0x00	; 0
     d68:	88 85       	ldd	r24, Y+8	; 0x08
     d6a:	99 85       	ldd	r25, Y+9	; 0x09
     d6c:	e0 d5       	rcall	.+3008   	; 0x192e <xQueueGenericSend>
	return result;
}
     d6e:	c7 01       	movw	r24, r14
     d70:	b6 01       	movw	r22, r12
     d72:	df 91       	pop	r29
     d74:	cf 91       	pop	r28
     d76:	0f 91       	pop	r16
     d78:	ff 90       	pop	r15
     d7a:	ef 90       	pop	r14
     d7c:	df 90       	pop	r13
     d7e:	cf 90       	pop	r12
     d80:	08 95       	ret

00000d82 <humiditySensor_getUpdateTime>:

myTime_t humiditySensor_getUpdateTime(humiditySensor_t self)
{
     d82:	ef 92       	push	r14
     d84:	ff 92       	push	r15
     d86:	0f 93       	push	r16
     d88:	cf 93       	push	r28
     d8a:	df 93       	push	r29
     d8c:	ec 01       	movw	r28, r24
	xSemaphoreTake(self->readWriteSemaphore, portMAX_DELAY);
     d8e:	4f ef       	ldi	r20, 0xFF	; 255
     d90:	5f ef       	ldi	r21, 0xFF	; 255
     d92:	ba 01       	movw	r22, r20
     d94:	88 85       	ldd	r24, Y+8	; 0x08
     d96:	99 85       	ldd	r25, Y+9	; 0x09
     d98:	41 d7       	rcall	.+3714   	; 0x1c1c <xQueueSemaphoreTake>
	myTime_t result = self->updateTime;
     d9a:	ea 84       	ldd	r14, Y+10	; 0x0a
     d9c:	fb 84       	ldd	r15, Y+11	; 0x0b
	xSemaphoreGive(self->readWriteSemaphore);
     d9e:	00 e0       	ldi	r16, 0x00	; 0
     da0:	20 e0       	ldi	r18, 0x00	; 0
     da2:	30 e0       	ldi	r19, 0x00	; 0
     da4:	a9 01       	movw	r20, r18
     da6:	60 e0       	ldi	r22, 0x00	; 0
     da8:	70 e0       	ldi	r23, 0x00	; 0
     daa:	88 85       	ldd	r24, Y+8	; 0x08
     dac:	99 85       	ldd	r25, Y+9	; 0x09
     dae:	bf d5       	rcall	.+2942   	; 0x192e <xQueueGenericSend>
	return result;
}
     db0:	c7 01       	movw	r24, r14
     db2:	df 91       	pop	r29
     db4:	cf 91       	pop	r28
     db6:	0f 91       	pop	r16
     db8:	ff 90       	pop	r15
     dba:	ef 90       	pop	r14
     dbc:	08 95       	ret

00000dbe <temperatureSensor_create>:
void temperatureSensor_setReportInterval(temperatureSensor_t self,float reportInterval)
{
	xSemaphoreTake(self->readWriteSemaphore, portMAX_DELAY);
	self->reportInterval = reportInterval;
	xSemaphoreGive(self->readWriteSemaphore);
}
     dbe:	cf 92       	push	r12
     dc0:	df 92       	push	r13
     dc2:	ef 92       	push	r14
     dc4:	ff 92       	push	r15
     dc6:	0f 93       	push	r16
     dc8:	cf 93       	push	r28
     dca:	df 93       	push	r29
     dcc:	6b 01       	movw	r12, r22
     dce:	7c 01       	movw	r14, r24
     dd0:	61 e0       	ldi	r22, 0x01	; 1
     dd2:	70 e0       	ldi	r23, 0x00	; 0
     dd4:	8c e0       	ldi	r24, 0x0C	; 12
     dd6:	90 e0       	ldi	r25, 0x00	; 0
     dd8:	0e 94 6c 35 	call	0x6ad8	; 0x6ad8 <calloc>
     ddc:	ec 01       	movw	r28, r24
     dde:	89 2b       	or	r24, r25
     de0:	c1 f0       	breq	.+48     	; 0xe12 <temperatureSensor_create+0x54>
     de2:	c8 82       	st	Y, r12
     de4:	d9 82       	std	Y+1, r13	; 0x01
     de6:	ea 82       	std	Y+2, r14	; 0x02
     de8:	fb 82       	std	Y+3, r15	; 0x03
     dea:	1c 82       	std	Y+4, r1	; 0x04
     dec:	1d 82       	std	Y+5, r1	; 0x05
     dee:	1e 82       	std	Y+6, r1	; 0x06
     df0:	1f 82       	std	Y+7, r1	; 0x07
     df2:	38 d1       	rcall	.+624    	; 0x1064 <myTime_create>
     df4:	9b 87       	std	Y+11, r25	; 0x0b
     df6:	8a 87       	std	Y+10, r24	; 0x0a
     df8:	43 e0       	ldi	r20, 0x03	; 3
     dfa:	60 e0       	ldi	r22, 0x00	; 0
     dfc:	81 e0       	ldi	r24, 0x01	; 1
     dfe:	76 d5       	rcall	.+2796   	; 0x18ec <xQueueGenericCreate>
     e00:	99 87       	std	Y+9, r25	; 0x09
     e02:	88 87       	std	Y+8, r24	; 0x08
     e04:	00 e0       	ldi	r16, 0x00	; 0
     e06:	20 e0       	ldi	r18, 0x00	; 0
     e08:	30 e0       	ldi	r19, 0x00	; 0
     e0a:	a9 01       	movw	r20, r18
     e0c:	60 e0       	ldi	r22, 0x00	; 0
     e0e:	70 e0       	ldi	r23, 0x00	; 0
     e10:	8e d5       	rcall	.+2844   	; 0x192e <xQueueGenericSend>
     e12:	ce 01       	movw	r24, r28
     e14:	df 91       	pop	r29
     e16:	cf 91       	pop	r28
     e18:	0f 91       	pop	r16
     e1a:	ff 90       	pop	r15
     e1c:	ef 90       	pop	r14
     e1e:	df 90       	pop	r13
     e20:	cf 90       	pop	r12
     e22:	08 95       	ret

00000e24 <temperatureSensor_setValue>:

void temperatureSensor_setValue(temperatureSensor_t self,float value)
{
     e24:	cf 92       	push	r12
     e26:	df 92       	push	r13
     e28:	ef 92       	push	r14
     e2a:	ff 92       	push	r15
     e2c:	0f 93       	push	r16
     e2e:	cf 93       	push	r28
     e30:	df 93       	push	r29
     e32:	ec 01       	movw	r28, r24
     e34:	6a 01       	movw	r12, r20
     e36:	7b 01       	movw	r14, r22
	xSemaphoreTake(self->readWriteSemaphore, portMAX_DELAY);
     e38:	4f ef       	ldi	r20, 0xFF	; 255
     e3a:	5f ef       	ldi	r21, 0xFF	; 255
     e3c:	ba 01       	movw	r22, r20
     e3e:	88 85       	ldd	r24, Y+8	; 0x08
     e40:	99 85       	ldd	r25, Y+9	; 0x09
     e42:	ec d6       	rcall	.+3544   	; 0x1c1c <xQueueSemaphoreTake>
	self->value = value;
     e44:	cc 82       	std	Y+4, r12	; 0x04
     e46:	dd 82       	std	Y+5, r13	; 0x05
     e48:	ee 82       	std	Y+6, r14	; 0x06
     e4a:	ff 82       	std	Y+7, r15	; 0x07
	myTime_updateToNowTime(self->updateTime);
     e4c:	8a 85       	ldd	r24, Y+10	; 0x0a
     e4e:	9b 85       	ldd	r25, Y+11	; 0x0b
     e50:	21 d1       	rcall	.+578    	; 0x1094 <myTime_updateToNowTime>
	xSemaphoreGive(self->readWriteSemaphore);
     e52:	00 e0       	ldi	r16, 0x00	; 0
     e54:	20 e0       	ldi	r18, 0x00	; 0
     e56:	30 e0       	ldi	r19, 0x00	; 0
     e58:	a9 01       	movw	r20, r18
     e5a:	60 e0       	ldi	r22, 0x00	; 0
     e5c:	70 e0       	ldi	r23, 0x00	; 0
     e5e:	88 85       	ldd	r24, Y+8	; 0x08
     e60:	99 85       	ldd	r25, Y+9	; 0x09
     e62:	65 d5       	rcall	.+2762   	; 0x192e <xQueueGenericSend>
}
     e64:	df 91       	pop	r29
     e66:	cf 91       	pop	r28
     e68:	0f 91       	pop	r16
     e6a:	ff 90       	pop	r15
     e6c:	ef 90       	pop	r14
     e6e:	df 90       	pop	r13
     e70:	cf 90       	pop	r12
     e72:	08 95       	ret

00000e74 <temperatureSensor_getReportInterval>:

float temperatureSensor_getReportInterval(temperatureSensor_t self)
{
     e74:	cf 92       	push	r12
     e76:	df 92       	push	r13
     e78:	ef 92       	push	r14
     e7a:	ff 92       	push	r15
     e7c:	0f 93       	push	r16
     e7e:	cf 93       	push	r28
     e80:	df 93       	push	r29
     e82:	ec 01       	movw	r28, r24
	xSemaphoreTake(self->readWriteSemaphore, portMAX_DELAY);
     e84:	4f ef       	ldi	r20, 0xFF	; 255
     e86:	5f ef       	ldi	r21, 0xFF	; 255
     e88:	ba 01       	movw	r22, r20
     e8a:	88 85       	ldd	r24, Y+8	; 0x08
     e8c:	99 85       	ldd	r25, Y+9	; 0x09
     e8e:	c6 d6       	rcall	.+3468   	; 0x1c1c <xQueueSemaphoreTake>
	float result = self->reportInterval;
     e90:	c8 80       	ld	r12, Y
     e92:	d9 80       	ldd	r13, Y+1	; 0x01
     e94:	ea 80       	ldd	r14, Y+2	; 0x02
     e96:	fb 80       	ldd	r15, Y+3	; 0x03
	xSemaphoreGive(self->readWriteSemaphore);
     e98:	00 e0       	ldi	r16, 0x00	; 0
     e9a:	20 e0       	ldi	r18, 0x00	; 0
     e9c:	30 e0       	ldi	r19, 0x00	; 0
     e9e:	a9 01       	movw	r20, r18
     ea0:	60 e0       	ldi	r22, 0x00	; 0
     ea2:	70 e0       	ldi	r23, 0x00	; 0
     ea4:	88 85       	ldd	r24, Y+8	; 0x08
     ea6:	99 85       	ldd	r25, Y+9	; 0x09
     ea8:	42 d5       	rcall	.+2692   	; 0x192e <xQueueGenericSend>
	return result;
}
     eaa:	c7 01       	movw	r24, r14
     eac:	b6 01       	movw	r22, r12
     eae:	df 91       	pop	r29
     eb0:	cf 91       	pop	r28
     eb2:	0f 91       	pop	r16
     eb4:	ff 90       	pop	r15
     eb6:	ef 90       	pop	r14
     eb8:	df 90       	pop	r13
     eba:	cf 90       	pop	r12
     ebc:	08 95       	ret

00000ebe <temperatureSensor_getValue>:

float temperatureSensor_getValue(temperatureSensor_t self)
{
     ebe:	cf 92       	push	r12
     ec0:	df 92       	push	r13
     ec2:	ef 92       	push	r14
     ec4:	ff 92       	push	r15
     ec6:	0f 93       	push	r16
     ec8:	cf 93       	push	r28
     eca:	df 93       	push	r29
     ecc:	ec 01       	movw	r28, r24
	xSemaphoreTake(self->readWriteSemaphore, portMAX_DELAY);
     ece:	4f ef       	ldi	r20, 0xFF	; 255
     ed0:	5f ef       	ldi	r21, 0xFF	; 255
     ed2:	ba 01       	movw	r22, r20
     ed4:	88 85       	ldd	r24, Y+8	; 0x08
     ed6:	99 85       	ldd	r25, Y+9	; 0x09
     ed8:	a1 d6       	rcall	.+3394   	; 0x1c1c <xQueueSemaphoreTake>
	float result = self->value;
     eda:	cc 80       	ldd	r12, Y+4	; 0x04
     edc:	dd 80       	ldd	r13, Y+5	; 0x05
     ede:	ee 80       	ldd	r14, Y+6	; 0x06
     ee0:	ff 80       	ldd	r15, Y+7	; 0x07
	xSemaphoreGive(self->readWriteSemaphore);
     ee2:	00 e0       	ldi	r16, 0x00	; 0
     ee4:	20 e0       	ldi	r18, 0x00	; 0
     ee6:	30 e0       	ldi	r19, 0x00	; 0
     ee8:	a9 01       	movw	r20, r18
     eea:	60 e0       	ldi	r22, 0x00	; 0
     eec:	70 e0       	ldi	r23, 0x00	; 0
     eee:	88 85       	ldd	r24, Y+8	; 0x08
     ef0:	99 85       	ldd	r25, Y+9	; 0x09
     ef2:	1d d5       	rcall	.+2618   	; 0x192e <xQueueGenericSend>
	return result;
}
     ef4:	c7 01       	movw	r24, r14
     ef6:	b6 01       	movw	r22, r12
     ef8:	df 91       	pop	r29
     efa:	cf 91       	pop	r28
     efc:	0f 91       	pop	r16
     efe:	ff 90       	pop	r15
     f00:	ef 90       	pop	r14
     f02:	df 90       	pop	r13
     f04:	cf 90       	pop	r12
     f06:	08 95       	ret

00000f08 <temperatureSensor_getUpdateTime>:

myTime_t temperatureSensor_getUpdateTime(temperatureSensor_t self)
{
     f08:	ef 92       	push	r14
     f0a:	ff 92       	push	r15
     f0c:	0f 93       	push	r16
     f0e:	cf 93       	push	r28
     f10:	df 93       	push	r29
     f12:	ec 01       	movw	r28, r24
	xSemaphoreTake(self->readWriteSemaphore, portMAX_DELAY);
     f14:	4f ef       	ldi	r20, 0xFF	; 255
     f16:	5f ef       	ldi	r21, 0xFF	; 255
     f18:	ba 01       	movw	r22, r20
     f1a:	88 85       	ldd	r24, Y+8	; 0x08
     f1c:	99 85       	ldd	r25, Y+9	; 0x09
     f1e:	7e d6       	rcall	.+3324   	; 0x1c1c <xQueueSemaphoreTake>
	myTime_t result = self->updateTime;
     f20:	ea 84       	ldd	r14, Y+10	; 0x0a
     f22:	fb 84       	ldd	r15, Y+11	; 0x0b
	xSemaphoreGive(self->readWriteSemaphore);
     f24:	00 e0       	ldi	r16, 0x00	; 0
     f26:	20 e0       	ldi	r18, 0x00	; 0
     f28:	30 e0       	ldi	r19, 0x00	; 0
     f2a:	a9 01       	movw	r20, r18
     f2c:	60 e0       	ldi	r22, 0x00	; 0
     f2e:	70 e0       	ldi	r23, 0x00	; 0
     f30:	88 85       	ldd	r24, Y+8	; 0x08
     f32:	99 85       	ldd	r25, Y+9	; 0x09
     f34:	fc d4       	rcall	.+2552   	; 0x192e <xQueueGenericSend>
	return result;
}
     f36:	c7 01       	movw	r24, r14
     f38:	df 91       	pop	r29
     f3a:	cf 91       	pop	r28
     f3c:	0f 91       	pop	r16
     f3e:	ff 90       	pop	r15
     f40:	ef 90       	pop	r14
     f42:	08 95       	ret

00000f44 <sensorModelManager_create>:
void sensorModelManager_setReportInterval(float reportInterval)
{
	temperatureSensor_setReportInterval(temperatureSensor,reportInterval);
	humiditySensor_setReportInterval(humiditySensor,reportInterval);
	carbonDioxideSensor_setReportInterval(carbonDioxideSensor,reportInterval);
}
     f44:	60 e0       	ldi	r22, 0x00	; 0
     f46:	70 e0       	ldi	r23, 0x00	; 0
     f48:	80 e0       	ldi	r24, 0x00	; 0
     f4a:	9f e3       	ldi	r25, 0x3F	; 63
     f4c:	ff dc       	rcall	.-1538   	; 0x94c <sevenSegmentDisplayController_create>
     f4e:	60 e0       	ldi	r22, 0x00	; 0
     f50:	70 e0       	ldi	r23, 0x00	; 0
     f52:	80 e8       	ldi	r24, 0x80	; 128
     f54:	9f e3       	ldi	r25, 0x3F	; 63
     f56:	33 df       	rcall	.-410    	; 0xdbe <temperatureSensor_create>
     f58:	90 93 a6 15 	sts	0x15A6, r25	; 0x8015a6 <temperatureSensor+0x1>
     f5c:	80 93 a5 15 	sts	0x15A5, r24	; 0x8015a5 <temperatureSensor>
     f60:	9a dd       	rcall	.-1228   	; 0xa96 <temperatureSensorController_create>
     f62:	60 e0       	ldi	r22, 0x00	; 0
     f64:	70 e0       	ldi	r23, 0x00	; 0
     f66:	80 e8       	ldi	r24, 0x80	; 128
     f68:	9f e3       	ldi	r25, 0x3F	; 63
     f6a:	66 de       	rcall	.-820    	; 0xc38 <humiditySensor_create>
     f6c:	90 93 a8 15 	sts	0x15A8, r25	; 0x8015a8 <humiditySensor+0x1>
     f70:	80 93 a7 15 	sts	0x15A7, r24	; 0x8015a7 <humiditySensor>
     f74:	f8 db       	rcall	.-2064   	; 0x766 <HumSensorController_create>
     f76:	60 e0       	ldi	r22, 0x00	; 0
     f78:	70 e0       	ldi	r23, 0x00	; 0
     f7a:	80 e8       	ldi	r24, 0x80	; 128
     f7c:	9f e3       	ldi	r25, 0x3F	; 63
     f7e:	a7 dd       	rcall	.-1202   	; 0xace <carbonDioxideSensor_create>
     f80:	90 93 a4 15 	sts	0x15A4, r25	; 0x8015a4 <carbonDioxideSensor+0x1>
     f84:	80 93 a3 15 	sts	0x15A3, r24	; 0x8015a3 <carbonDioxideSensor>
     f88:	52 cb       	rjmp	.-2396   	; 0x62e <CO2SensorController_create>
     f8a:	08 95       	ret

00000f8c <sensorModelManager_getTemperatureSensor>:

temperatureSensor_t sensorModelManager_getTemperatureSensor()
{
	return temperatureSensor;
}
     f8c:	80 91 a5 15 	lds	r24, 0x15A5	; 0x8015a5 <temperatureSensor>
     f90:	90 91 a6 15 	lds	r25, 0x15A6	; 0x8015a6 <temperatureSensor+0x1>
     f94:	08 95       	ret

00000f96 <sensorModelManager_getHumiditySensor>:

humiditySensor_t sensorModelManager_getHumiditySensor()
{
	return humiditySensor;
}
     f96:	80 91 a7 15 	lds	r24, 0x15A7	; 0x8015a7 <humiditySensor>
     f9a:	90 91 a8 15 	lds	r25, 0x15A8	; 0x8015a8 <humiditySensor+0x1>
     f9e:	08 95       	ret

00000fa0 <sensorModelManager_getCarbonDioxideSensor>:

carbonDioxideSensor_t sensorModelManager_getCarbonDioxideSensor()
{
	return carbonDioxideSensor;
}
     fa0:	80 91 a3 15 	lds	r24, 0x15A3	; 0x8015a3 <carbonDioxideSensor>
     fa4:	90 91 a4 15 	lds	r25, 0x15A4	; 0x8015a4 <carbonDioxideSensor+0x1>
     fa8:	08 95       	ret

00000faa <nowTimeClockTask>:
}

int myTime_getDay(myTime_t self)
{
	return self->day;
}
     faa:	6e e3       	ldi	r22, 0x3E	; 62
     fac:	70 e0       	ldi	r23, 0x00	; 0
     fae:	80 e0       	ldi	r24, 0x00	; 0
     fb0:	90 e0       	ldi	r25, 0x00	; 0
     fb2:	0e 94 75 16 	call	0x2cea	; 0x2cea <vTaskDelay>
     fb6:	e0 91 a9 15 	lds	r30, 0x15A9	; 0x8015a9 <nowTime>
     fba:	f0 91 aa 15 	lds	r31, 0x15AA	; 0x8015aa <nowTime+0x1>
     fbe:	82 85       	ldd	r24, Z+10	; 0x0a
     fc0:	93 85       	ldd	r25, Z+11	; 0x0b
     fc2:	01 96       	adiw	r24, 0x01	; 1
     fc4:	93 87       	std	Z+11, r25	; 0x0b
     fc6:	82 87       	std	Z+10, r24	; 0x0a
     fc8:	cc 97       	sbiw	r24, 0x3c	; 60
     fca:	7c f3       	brlt	.-34     	; 0xfaa <nowTimeClockTask>
     fcc:	80 85       	ldd	r24, Z+8	; 0x08
     fce:	91 85       	ldd	r25, Z+9	; 0x09
     fd0:	01 96       	adiw	r24, 0x01	; 1
     fd2:	91 87       	std	Z+9, r25	; 0x09
     fd4:	80 87       	std	Z+8, r24	; 0x08
     fd6:	13 86       	std	Z+11, r1	; 0x0b
     fd8:	12 86       	std	Z+10, r1	; 0x0a
     fda:	cc 97       	sbiw	r24, 0x3c	; 60
     fdc:	34 f3       	brlt	.-52     	; 0xfaa <nowTimeClockTask>
     fde:	86 81       	ldd	r24, Z+6	; 0x06
     fe0:	97 81       	ldd	r25, Z+7	; 0x07
     fe2:	01 96       	adiw	r24, 0x01	; 1
     fe4:	97 83       	std	Z+7, r25	; 0x07
     fe6:	86 83       	std	Z+6, r24	; 0x06
     fe8:	11 86       	std	Z+9, r1	; 0x09
     fea:	10 86       	std	Z+8, r1	; 0x08
     fec:	48 97       	sbiw	r24, 0x18	; 24
     fee:	ec f2       	brlt	.-70     	; 0xfaa <nowTimeClockTask>
     ff0:	17 82       	std	Z+7, r1	; 0x07
     ff2:	16 82       	std	Z+6, r1	; 0x06
     ff4:	da cf       	rjmp	.-76     	; 0xfaa <nowTimeClockTask>

00000ff6 <mytime_tryCreateNowTime>:
     ff6:	ef 92       	push	r14
     ff8:	ff 92       	push	r15
     ffa:	0f 93       	push	r16
     ffc:	80 91 a9 15 	lds	r24, 0x15A9	; 0x8015a9 <nowTime>
    1000:	90 91 aa 15 	lds	r25, 0x15AA	; 0x8015aa <nowTime+0x1>
    1004:	89 2b       	or	r24, r25
    1006:	51 f5       	brne	.+84     	; 0x105c <mytime_tryCreateNowTime+0x66>
    1008:	61 e0       	ldi	r22, 0x01	; 1
    100a:	70 e0       	ldi	r23, 0x00	; 0
    100c:	8c e0       	ldi	r24, 0x0C	; 12
    100e:	90 e0       	ldi	r25, 0x00	; 0
    1010:	0e 94 6c 35 	call	0x6ad8	; 0x6ad8 <calloc>
    1014:	fc 01       	movw	r30, r24
    1016:	90 93 aa 15 	sts	0x15AA, r25	; 0x8015aa <nowTime+0x1>
    101a:	80 93 a9 15 	sts	0x15A9, r24	; 0x8015a9 <nowTime>
    101e:	89 2b       	or	r24, r25
    1020:	e9 f0       	breq	.+58     	; 0x105c <mytime_tryCreateNowTime+0x66>
    1022:	11 82       	std	Z+1, r1	; 0x01
    1024:	10 82       	st	Z, r1
    1026:	13 82       	std	Z+3, r1	; 0x03
    1028:	12 82       	std	Z+2, r1	; 0x02
    102a:	15 82       	std	Z+5, r1	; 0x05
    102c:	14 82       	std	Z+4, r1	; 0x04
    102e:	17 82       	std	Z+7, r1	; 0x07
    1030:	16 82       	std	Z+6, r1	; 0x06
    1032:	11 86       	std	Z+9, r1	; 0x09
    1034:	10 86       	std	Z+8, r1	; 0x08
    1036:	13 86       	std	Z+11, r1	; 0x0b
    1038:	12 86       	std	Z+10, r1	; 0x0a
    103a:	80 ea       	ldi	r24, 0xA0	; 160
    103c:	93 e0       	ldi	r25, 0x03	; 3
    103e:	0e 94 1d 37 	call	0x6e3a	; 0x6e3a <puts>
    1042:	e1 2c       	mov	r14, r1
    1044:	f1 2c       	mov	r15, r1
    1046:	01 e0       	ldi	r16, 0x01	; 1
    1048:	21 e0       	ldi	r18, 0x01	; 1
    104a:	30 e0       	ldi	r19, 0x00	; 0
    104c:	40 ec       	ldi	r20, 0xC0	; 192
    104e:	50 e0       	ldi	r21, 0x00	; 0
    1050:	6a eb       	ldi	r22, 0xBA	; 186
    1052:	73 e0       	ldi	r23, 0x03	; 3
    1054:	85 ed       	ldi	r24, 0xD5	; 213
    1056:	97 e0       	ldi	r25, 0x07	; 7
    1058:	0e 94 d9 12 	call	0x25b2	; 0x25b2 <xTaskCreate>
    105c:	0f 91       	pop	r16
    105e:	ff 90       	pop	r15
    1060:	ef 90       	pop	r14
    1062:	08 95       	ret

00001064 <myTime_create>:
    1064:	c8 df       	rcall	.-112    	; 0xff6 <mytime_tryCreateNowTime>
    1066:	61 e0       	ldi	r22, 0x01	; 1
    1068:	70 e0       	ldi	r23, 0x00	; 0
    106a:	8c e0       	ldi	r24, 0x0C	; 12
    106c:	90 e0       	ldi	r25, 0x00	; 0
    106e:	0e 94 6c 35 	call	0x6ad8	; 0x6ad8 <calloc>
    1072:	fc 01       	movw	r30, r24
    1074:	89 2b       	or	r24, r25
    1076:	61 f0       	breq	.+24     	; 0x1090 <myTime_create+0x2c>
    1078:	11 82       	std	Z+1, r1	; 0x01
    107a:	10 82       	st	Z, r1
    107c:	13 82       	std	Z+3, r1	; 0x03
    107e:	12 82       	std	Z+2, r1	; 0x02
    1080:	15 82       	std	Z+5, r1	; 0x05
    1082:	14 82       	std	Z+4, r1	; 0x04
    1084:	17 82       	std	Z+7, r1	; 0x07
    1086:	16 82       	std	Z+6, r1	; 0x06
    1088:	11 86       	std	Z+9, r1	; 0x09
    108a:	10 86       	std	Z+8, r1	; 0x08
    108c:	13 86       	std	Z+11, r1	; 0x0b
    108e:	12 86       	std	Z+10, r1	; 0x0a
    1090:	cf 01       	movw	r24, r30
    1092:	08 95       	ret

00001094 <myTime_updateToNowTime>:
    1094:	cf 93       	push	r28
    1096:	df 93       	push	r29
    1098:	ec 01       	movw	r28, r24
    109a:	ad df       	rcall	.-166    	; 0xff6 <mytime_tryCreateNowTime>
    109c:	e0 91 a9 15 	lds	r30, 0x15A9	; 0x8015a9 <nowTime>
    10a0:	f0 91 aa 15 	lds	r31, 0x15AA	; 0x8015aa <nowTime+0x1>
    10a4:	80 81       	ld	r24, Z
    10a6:	91 81       	ldd	r25, Z+1	; 0x01
    10a8:	99 83       	std	Y+1, r25	; 0x01
    10aa:	88 83       	st	Y, r24
    10ac:	e0 91 a9 15 	lds	r30, 0x15A9	; 0x8015a9 <nowTime>
    10b0:	f0 91 aa 15 	lds	r31, 0x15AA	; 0x8015aa <nowTime+0x1>
    10b4:	82 81       	ldd	r24, Z+2	; 0x02
    10b6:	93 81       	ldd	r25, Z+3	; 0x03
    10b8:	9b 83       	std	Y+3, r25	; 0x03
    10ba:	8a 83       	std	Y+2, r24	; 0x02
    10bc:	84 81       	ldd	r24, Z+4	; 0x04
    10be:	95 81       	ldd	r25, Z+5	; 0x05
    10c0:	9d 83       	std	Y+5, r25	; 0x05
    10c2:	8c 83       	std	Y+4, r24	; 0x04
    10c4:	86 81       	ldd	r24, Z+6	; 0x06
    10c6:	97 81       	ldd	r25, Z+7	; 0x07
    10c8:	9f 83       	std	Y+7, r25	; 0x07
    10ca:	8e 83       	std	Y+6, r24	; 0x06
    10cc:	80 85       	ldd	r24, Z+8	; 0x08
    10ce:	91 85       	ldd	r25, Z+9	; 0x09
    10d0:	99 87       	std	Y+9, r25	; 0x09
    10d2:	88 87       	std	Y+8, r24	; 0x08
    10d4:	82 85       	ldd	r24, Z+10	; 0x0a
    10d6:	93 85       	ldd	r25, Z+11	; 0x0b
    10d8:	9b 87       	std	Y+11, r25	; 0x0b
    10da:	8a 87       	std	Y+10, r24	; 0x0a
    10dc:	df 91       	pop	r29
    10de:	cf 91       	pop	r28
    10e0:	08 95       	ret

000010e2 <myTime_getNowTime>:
    10e2:	89 df       	rcall	.-238    	; 0xff6 <mytime_tryCreateNowTime>
    10e4:	80 91 a9 15 	lds	r24, 0x15A9	; 0x8015a9 <nowTime>
    10e8:	90 91 aa 15 	lds	r25, 0x15AA	; 0x8015aa <nowTime+0x1>
    10ec:	08 95       	ret

000010ee <myTime_getHour>:

int myTime_getHour(myTime_t self)
{
	return self->hour;
}
    10ee:	fc 01       	movw	r30, r24
    10f0:	86 81       	ldd	r24, Z+6	; 0x06
    10f2:	97 81       	ldd	r25, Z+7	; 0x07
    10f4:	08 95       	ret

000010f6 <myTime_getMin>:

int myTime_getMin(myTime_t self)
{
	return self->min;
}
    10f6:	fc 01       	movw	r30, r24
    10f8:	80 85       	ldd	r24, Z+8	; 0x08
    10fa:	91 85       	ldd	r25, Z+9	; 0x09
    10fc:	08 95       	ret

000010fe <prvInsertBlockIntoFreeList>:
    xBlockAllocatedBit = ( ( size_t ) 1 ) << ( ( sizeof( size_t ) * heapBITS_PER_BYTE ) - 1 );
}
/*-----------------------------------------------------------*/

static void prvInsertBlockIntoFreeList( BlockLink_t * pxBlockToInsert ) /* PRIVILEGED_FUNCTION */
{
    10fe:	cf 93       	push	r28
    1100:	df 93       	push	r29
    1102:	dc 01       	movw	r26, r24
    BlockLink_t * pxIterator;
    uint8_t * puc;

    /* Iterate through the list until a block is found that has a higher address
     * than the block being inserted. */
    for( pxIterator = &xStart; pxIterator->pxNextFreeBlock < pxBlockToInsert; pxIterator = pxIterator->pxNextFreeBlock )
    1104:	e6 ec       	ldi	r30, 0xC6	; 198
    1106:	f8 e0       	ldi	r31, 0x08	; 8
    1108:	01 c0       	rjmp	.+2      	; 0x110c <prvInsertBlockIntoFreeList+0xe>
    110a:	f9 01       	movw	r30, r18
    110c:	20 81       	ld	r18, Z
    110e:	31 81       	ldd	r19, Z+1	; 0x01
    1110:	2a 17       	cp	r18, r26
    1112:	3b 07       	cpc	r19, r27
    1114:	d0 f3       	brcs	.-12     	; 0x110a <prvInsertBlockIntoFreeList+0xc>

    /* Do the block being inserted, and the block it is being inserted after
     * make a contiguous block of memory? */
    puc = ( uint8_t * ) pxIterator;

    if( ( puc + pxIterator->xBlockSize ) == ( uint8_t * ) pxBlockToInsert )
    1116:	82 81       	ldd	r24, Z+2	; 0x02
    1118:	93 81       	ldd	r25, Z+3	; 0x03
    111a:	af 01       	movw	r20, r30
    111c:	48 0f       	add	r20, r24
    111e:	59 1f       	adc	r21, r25
    1120:	a4 17       	cp	r26, r20
    1122:	b5 07       	cpc	r27, r21
    1124:	49 f4       	brne	.+18     	; 0x1138 <prvInsertBlockIntoFreeList+0x3a>
    {
        pxIterator->xBlockSize += pxBlockToInsert->xBlockSize;
    1126:	12 96       	adiw	r26, 0x02	; 2
    1128:	4d 91       	ld	r20, X+
    112a:	5c 91       	ld	r21, X
    112c:	13 97       	sbiw	r26, 0x03	; 3
    112e:	84 0f       	add	r24, r20
    1130:	95 1f       	adc	r25, r21
    1132:	93 83       	std	Z+3, r25	; 0x03
    1134:	82 83       	std	Z+2, r24	; 0x02
    1136:	df 01       	movw	r26, r30

    /* Do the block being inserted, and the block it is being inserted before
     * make a contiguous block of memory? */
    puc = ( uint8_t * ) pxBlockToInsert;

    if( ( puc + pxBlockToInsert->xBlockSize ) == ( uint8_t * ) pxIterator->pxNextFreeBlock )
    1138:	12 96       	adiw	r26, 0x02	; 2
    113a:	8d 91       	ld	r24, X+
    113c:	9c 91       	ld	r25, X
    113e:	13 97       	sbiw	r26, 0x03	; 3
    1140:	ed 01       	movw	r28, r26
    1142:	c8 0f       	add	r28, r24
    1144:	d9 1f       	adc	r29, r25
    1146:	2c 17       	cp	r18, r28
    1148:	3d 07       	cpc	r19, r29
    114a:	d9 f4       	brne	.+54     	; 0x1182 <prvInsertBlockIntoFreeList+0x84>
    {
        if( pxIterator->pxNextFreeBlock != pxEnd )
    114c:	20 91 c4 08 	lds	r18, 0x08C4	; 0x8008c4 <pxEnd>
    1150:	30 91 c5 08 	lds	r19, 0x08C5	; 0x8008c5 <pxEnd+0x1>
    1154:	c2 17       	cp	r28, r18
    1156:	d3 07       	cpc	r29, r19
    1158:	81 f0       	breq	.+32     	; 0x117a <prvInsertBlockIntoFreeList+0x7c>
        {
            /* Form one big block from the two blocks. */
            pxBlockToInsert->xBlockSize += pxIterator->pxNextFreeBlock->xBlockSize;
    115a:	2a 81       	ldd	r18, Y+2	; 0x02
    115c:	3b 81       	ldd	r19, Y+3	; 0x03
    115e:	82 0f       	add	r24, r18
    1160:	93 1f       	adc	r25, r19
    1162:	13 96       	adiw	r26, 0x03	; 3
    1164:	9c 93       	st	X, r25
    1166:	8e 93       	st	-X, r24
    1168:	12 97       	sbiw	r26, 0x02	; 2
            pxBlockToInsert->pxNextFreeBlock = pxIterator->pxNextFreeBlock->pxNextFreeBlock;
    116a:	c0 81       	ld	r28, Z
    116c:	d1 81       	ldd	r29, Z+1	; 0x01
    116e:	88 81       	ld	r24, Y
    1170:	99 81       	ldd	r25, Y+1	; 0x01
    1172:	11 96       	adiw	r26, 0x01	; 1
    1174:	9c 93       	st	X, r25
    1176:	8e 93       	st	-X, r24
    1178:	07 c0       	rjmp	.+14     	; 0x1188 <prvInsertBlockIntoFreeList+0x8a>
        }
        else
        {
            pxBlockToInsert->pxNextFreeBlock = pxEnd;
    117a:	11 96       	adiw	r26, 0x01	; 1
    117c:	dc 93       	st	X, r29
    117e:	ce 93       	st	-X, r28
    1180:	03 c0       	rjmp	.+6      	; 0x1188 <prvInsertBlockIntoFreeList+0x8a>
        }
    }
    else
    {
        pxBlockToInsert->pxNextFreeBlock = pxIterator->pxNextFreeBlock;
    1182:	11 96       	adiw	r26, 0x01	; 1
    1184:	3c 93       	st	X, r19
    1186:	2e 93       	st	-X, r18

    /* If the block being inserted plugged a gab, so was merged with the block
     * before and the block after, then it's pxNextFreeBlock pointer will have
     * already been set, and should not be set here as that would make it point
     * to itself. */
    if( pxIterator != pxBlockToInsert )
    1188:	ae 17       	cp	r26, r30
    118a:	bf 07       	cpc	r27, r31
    118c:	11 f0       	breq	.+4      	; 0x1192 <prvInsertBlockIntoFreeList+0x94>
    {
        pxIterator->pxNextFreeBlock = pxBlockToInsert;
    118e:	b1 83       	std	Z+1, r27	; 0x01
    1190:	a0 83       	st	Z, r26
    }
    else
    {
        mtCOVERAGE_TEST_MARKER();
    }
}
    1192:	df 91       	pop	r29
    1194:	cf 91       	pop	r28
    1196:	08 95       	ret

00001198 <pvPortMalloc>:
PRIVILEGED_DATA static size_t xBlockAllocatedBit = 0;

/*-----------------------------------------------------------*/

void * pvPortMalloc( size_t xWantedSize )
{
    1198:	cf 92       	push	r12
    119a:	df 92       	push	r13
    119c:	ef 92       	push	r14
    119e:	ff 92       	push	r15
    11a0:	0f 93       	push	r16
    11a2:	1f 93       	push	r17
    11a4:	cf 93       	push	r28
    11a6:	df 93       	push	r29
    11a8:	ec 01       	movw	r28, r24
    BlockLink_t * pxBlock, * pxPreviousBlock, * pxNewBlockLink;
    void * pvReturn = NULL;

    vTaskSuspendAll();
    11aa:	0e 94 4b 14 	call	0x2896	; 0x2896 <vTaskSuspendAll>
    {
        /* If this is the first call to malloc then the heap will require
         * initialisation to setup the list of free blocks. */
        if( pxEnd == NULL )
    11ae:	80 91 c4 08 	lds	r24, 0x08C4	; 0x8008c4 <pxEnd>
    11b2:	90 91 c5 08 	lds	r25, 0x08C5	; 0x8008c5 <pxEnd+0x1>
    11b6:	89 2b       	or	r24, r25
    11b8:	41 f5       	brne	.+80     	; 0x120a <pvPortMalloc+0x72>

    pucAlignedHeap = ( uint8_t * ) uxAddress;

    /* xStart is used to hold a pointer to the first item in the list of free
     * blocks.  The void cast is used to prevent compiler warnings. */
    xStart.pxNextFreeBlock = ( void * ) pucAlignedHeap;
    11ba:	e6 ec       	ldi	r30, 0xC6	; 198
    11bc:	f8 e0       	ldi	r31, 0x08	; 8
    11be:	aa ec       	ldi	r26, 0xCA	; 202
    11c0:	b8 e0       	ldi	r27, 0x08	; 8
    11c2:	b1 83       	std	Z+1, r27	; 0x01
    11c4:	a0 83       	st	Z, r26
    xStart.xBlockSize = ( size_t ) 0;
    11c6:	13 82       	std	Z+3, r1	; 0x03
    11c8:	12 82       	std	Z+2, r1	; 0x02
    /* pxEnd is used to mark the end of the list of free blocks and is inserted
     * at the end of the heap space. */
    uxAddress = ( ( size_t ) pucAlignedHeap ) + xTotalHeapSize;
    uxAddress -= xHeapStructSize;
    uxAddress &= ~( ( size_t ) portBYTE_ALIGNMENT_MASK );
    pxEnd = ( void * ) uxAddress;
    11ca:	ea e8       	ldi	r30, 0x8A	; 138
    11cc:	f2 e1       	ldi	r31, 0x12	; 18
    11ce:	f0 93 c5 08 	sts	0x08C5, r31	; 0x8008c5 <pxEnd+0x1>
    11d2:	e0 93 c4 08 	sts	0x08C4, r30	; 0x8008c4 <pxEnd>
    pxEnd->xBlockSize = 0;
    11d6:	13 82       	std	Z+3, r1	; 0x03
    11d8:	12 82       	std	Z+2, r1	; 0x02
    pxEnd->pxNextFreeBlock = NULL;
    11da:	11 82       	std	Z+1, r1	; 0x01
    11dc:	10 82       	st	Z, r1

    /* To start with there is a single free block that is sized to take up the
     * entire heap space, minus the space taken by pxEnd. */
    pxFirstFreeBlock = ( void * ) pucAlignedHeap;
    pxFirstFreeBlock->xBlockSize = uxAddress - ( size_t ) pxFirstFreeBlock;
    11de:	80 ec       	ldi	r24, 0xC0	; 192
    11e0:	99 e0       	ldi	r25, 0x09	; 9
    11e2:	13 96       	adiw	r26, 0x03	; 3
    11e4:	9c 93       	st	X, r25
    11e6:	8e 93       	st	-X, r24
    11e8:	12 97       	sbiw	r26, 0x02	; 2
    pxFirstFreeBlock->pxNextFreeBlock = pxEnd;
    11ea:	ed 93       	st	X+, r30
    11ec:	fc 93       	st	X, r31

    /* Only one block exists - and it covers the entire usable heap space. */
    xMinimumEverFreeBytesRemaining = pxFirstFreeBlock->xBlockSize;
    11ee:	90 93 c1 08 	sts	0x08C1, r25	; 0x8008c1 <xMinimumEverFreeBytesRemaining+0x1>
    11f2:	80 93 c0 08 	sts	0x08C0, r24	; 0x8008c0 <xMinimumEverFreeBytesRemaining>
    xFreeBytesRemaining = pxFirstFreeBlock->xBlockSize;
    11f6:	90 93 c3 08 	sts	0x08C3, r25	; 0x8008c3 <xFreeBytesRemaining+0x1>
    11fa:	80 93 c2 08 	sts	0x08C2, r24	; 0x8008c2 <xFreeBytesRemaining>

    /* Work out the position of the top bit in a size_t variable. */
    xBlockAllocatedBit = ( ( size_t ) 1 ) << ( ( sizeof( size_t ) * heapBITS_PER_BYTE ) - 1 );
    11fe:	80 e0       	ldi	r24, 0x00	; 0
    1200:	90 e8       	ldi	r25, 0x80	; 128
    1202:	90 93 bb 08 	sts	0x08BB, r25	; 0x8008bb <xBlockAllocatedBit+0x1>
    1206:	80 93 ba 08 	sts	0x08BA, r24	; 0x8008ba <xBlockAllocatedBit>

        /* Check the requested block size is not so large that the top bit is
         * set.  The top bit of the block size member of the BlockLink_t structure
         * is used to determine who owns the block - the application or the
         * kernel, so it must be free. */
        if( ( xWantedSize & xBlockAllocatedBit ) == 0 )
    120a:	e0 90 ba 08 	lds	r14, 0x08BA	; 0x8008ba <xBlockAllocatedBit>
    120e:	f0 90 bb 08 	lds	r15, 0x08BB	; 0x8008bb <xBlockAllocatedBit+0x1>
    1212:	c7 01       	movw	r24, r14
    1214:	8c 23       	and	r24, r28
    1216:	9d 23       	and	r25, r29
    1218:	89 2b       	or	r24, r25
    121a:	09 f0       	breq	.+2      	; 0x121e <pvPortMalloc+0x86>
    121c:	75 c0       	rjmp	.+234    	; 0x1308 <pvPortMalloc+0x170>
        {
            /* The wanted size must be increased so it can contain a BlockLink_t
             * structure in addition to the requested amount of bytes. */
            if( ( xWantedSize > 0 ) && 
    121e:	20 97       	sbiw	r28, 0x00	; 0
    1220:	09 f4       	brne	.+2      	; 0x1224 <pvPortMalloc+0x8c>
    1222:	75 c0       	rjmp	.+234    	; 0x130e <pvPortMalloc+0x176>
                ( ( xWantedSize + xHeapStructSize ) >  xWantedSize ) ) /* Overflow check */
    1224:	9e 01       	movw	r18, r28
    1226:	2c 5f       	subi	r18, 0xFC	; 252
    1228:	3f 4f       	sbci	r19, 0xFF	; 255
         * kernel, so it must be free. */
        if( ( xWantedSize & xBlockAllocatedBit ) == 0 )
        {
            /* The wanted size must be increased so it can contain a BlockLink_t
             * structure in addition to the requested amount of bytes. */
            if( ( xWantedSize > 0 ) && 
    122a:	c2 17       	cp	r28, r18
    122c:	d3 07       	cpc	r29, r19
    122e:	08 f0       	brcs	.+2      	; 0x1232 <pvPortMalloc+0x9a>
    1230:	6e c0       	rjmp	.+220    	; 0x130e <pvPortMalloc+0x176>
            else 
            {
                xWantedSize = 0;
            }

            if( ( xWantedSize > 0 ) && ( xWantedSize <= xFreeBytesRemaining ) )
    1232:	21 15       	cp	r18, r1
    1234:	31 05       	cpc	r19, r1
    1236:	09 f4       	brne	.+2      	; 0x123a <pvPortMalloc+0xa2>
    1238:	67 c0       	rjmp	.+206    	; 0x1308 <pvPortMalloc+0x170>
    123a:	00 91 c2 08 	lds	r16, 0x08C2	; 0x8008c2 <xFreeBytesRemaining>
    123e:	10 91 c3 08 	lds	r17, 0x08C3	; 0x8008c3 <xFreeBytesRemaining+0x1>
    1242:	02 17       	cp	r16, r18
    1244:	13 07       	cpc	r17, r19
    1246:	08 f4       	brcc	.+2      	; 0x124a <pvPortMalloc+0xb2>
    1248:	5f c0       	rjmp	.+190    	; 0x1308 <pvPortMalloc+0x170>
            {
                /* Traverse the list from the start	(lowest address) block until
                 * one of adequate size is found. */
                pxPreviousBlock = &xStart;
                pxBlock = xStart.pxNextFreeBlock;
    124a:	c0 91 c6 08 	lds	r28, 0x08C6	; 0x8008c6 <xStart>
    124e:	d0 91 c7 08 	lds	r29, 0x08C7	; 0x8008c7 <xStart+0x1>

            if( ( xWantedSize > 0 ) && ( xWantedSize <= xFreeBytesRemaining ) )
            {
                /* Traverse the list from the start	(lowest address) block until
                 * one of adequate size is found. */
                pxPreviousBlock = &xStart;
    1252:	e6 ec       	ldi	r30, 0xC6	; 198
    1254:	f8 e0       	ldi	r31, 0x08	; 8
                pxBlock = xStart.pxNextFreeBlock;

                while( ( pxBlock->xBlockSize < xWantedSize ) && ( pxBlock->pxNextFreeBlock != NULL ) )
    1256:	02 c0       	rjmp	.+4      	; 0x125c <pvPortMalloc+0xc4>
    1258:	fe 01       	movw	r30, r28
                {
                    pxPreviousBlock = pxBlock;
                    pxBlock = pxBlock->pxNextFreeBlock;
    125a:	ec 01       	movw	r28, r24
                /* Traverse the list from the start	(lowest address) block until
                 * one of adequate size is found. */
                pxPreviousBlock = &xStart;
                pxBlock = xStart.pxNextFreeBlock;

                while( ( pxBlock->xBlockSize < xWantedSize ) && ( pxBlock->pxNextFreeBlock != NULL ) )
    125c:	8a 81       	ldd	r24, Y+2	; 0x02
    125e:	9b 81       	ldd	r25, Y+3	; 0x03
    1260:	82 17       	cp	r24, r18
    1262:	93 07       	cpc	r25, r19
    1264:	20 f4       	brcc	.+8      	; 0x126e <pvPortMalloc+0xd6>
    1266:	88 81       	ld	r24, Y
    1268:	99 81       	ldd	r25, Y+1	; 0x01
    126a:	00 97       	sbiw	r24, 0x00	; 0
    126c:	a9 f7       	brne	.-22     	; 0x1258 <pvPortMalloc+0xc0>
                    pxBlock = pxBlock->pxNextFreeBlock;
                }

                /* If the end marker was reached then a block of adequate size
                 * was not found. */
                if( pxBlock != pxEnd )
    126e:	80 91 c4 08 	lds	r24, 0x08C4	; 0x8008c4 <pxEnd>
    1272:	90 91 c5 08 	lds	r25, 0x08C5	; 0x8008c5 <pxEnd+0x1>
    1276:	c8 17       	cp	r28, r24
    1278:	d9 07       	cpc	r29, r25
    127a:	09 f4       	brne	.+2      	; 0x127e <pvPortMalloc+0xe6>
    127c:	45 c0       	rjmp	.+138    	; 0x1308 <pvPortMalloc+0x170>
                {
                    /* Return the memory space pointed to - jumping over the
                     * BlockLink_t structure at its start. */
                    pvReturn = ( void * ) ( ( ( uint8_t * ) pxPreviousBlock->pxNextFreeBlock ) + xHeapStructSize );
    127e:	c0 80       	ld	r12, Z
    1280:	d1 80       	ldd	r13, Z+1	; 0x01
    1282:	84 e0       	ldi	r24, 0x04	; 4
    1284:	c8 0e       	add	r12, r24
    1286:	d1 1c       	adc	r13, r1

                    /* This block is being returned for use so must be taken out
                     * of the list of free blocks. */
                    pxPreviousBlock->pxNextFreeBlock = pxBlock->pxNextFreeBlock;
    1288:	88 81       	ld	r24, Y
    128a:	99 81       	ldd	r25, Y+1	; 0x01
    128c:	91 83       	std	Z+1, r25	; 0x01
    128e:	80 83       	st	Z, r24

                    /* If the block is larger than required it can be split into
                     * two. */
                    if( ( pxBlock->xBlockSize - xWantedSize ) > heapMINIMUM_BLOCK_SIZE )
    1290:	4a 81       	ldd	r20, Y+2	; 0x02
    1292:	5b 81       	ldd	r21, Y+3	; 0x03
    1294:	42 1b       	sub	r20, r18
    1296:	53 0b       	sbc	r21, r19
    1298:	49 30       	cpi	r20, 0x09	; 9
    129a:	51 05       	cpc	r21, r1
    129c:	48 f0       	brcs	.+18     	; 0x12b0 <pvPortMalloc+0x118>
                    {
                        /* This block is to be split into two.  Create a new
                         * block following the number of bytes requested. The void
                         * cast is used to prevent byte alignment warnings from the
                         * compiler. */
                        pxNewBlockLink = ( void * ) ( ( ( uint8_t * ) pxBlock ) + xWantedSize );
    129e:	ce 01       	movw	r24, r28
    12a0:	82 0f       	add	r24, r18
    12a2:	93 1f       	adc	r25, r19
                        configASSERT( ( ( ( size_t ) pxNewBlockLink ) & portBYTE_ALIGNMENT_MASK ) == 0 );

                        /* Calculate the sizes of two blocks split from the
                         * single block. */
                        pxNewBlockLink->xBlockSize = pxBlock->xBlockSize - xWantedSize;
    12a4:	fc 01       	movw	r30, r24
    12a6:	53 83       	std	Z+3, r21	; 0x03
    12a8:	42 83       	std	Z+2, r20	; 0x02
                        pxBlock->xBlockSize = xWantedSize;
    12aa:	3b 83       	std	Y+3, r19	; 0x03
    12ac:	2a 83       	std	Y+2, r18	; 0x02

                        /* Insert the new block into the list of free blocks. */
                        prvInsertBlockIntoFreeList( pxNewBlockLink );
    12ae:	27 df       	rcall	.-434    	; 0x10fe <prvInsertBlockIntoFreeList>
                    else
                    {
                        mtCOVERAGE_TEST_MARKER();
                    }

                    xFreeBytesRemaining -= pxBlock->xBlockSize;
    12b0:	8a 81       	ldd	r24, Y+2	; 0x02
    12b2:	9b 81       	ldd	r25, Y+3	; 0x03
    12b4:	08 1b       	sub	r16, r24
    12b6:	19 0b       	sbc	r17, r25
    12b8:	10 93 c3 08 	sts	0x08C3, r17	; 0x8008c3 <xFreeBytesRemaining+0x1>
    12bc:	00 93 c2 08 	sts	0x08C2, r16	; 0x8008c2 <xFreeBytesRemaining>

                    if( xFreeBytesRemaining < xMinimumEverFreeBytesRemaining )
    12c0:	20 91 c0 08 	lds	r18, 0x08C0	; 0x8008c0 <xMinimumEverFreeBytesRemaining>
    12c4:	30 91 c1 08 	lds	r19, 0x08C1	; 0x8008c1 <xMinimumEverFreeBytesRemaining+0x1>
    12c8:	02 17       	cp	r16, r18
    12ca:	13 07       	cpc	r17, r19
    12cc:	20 f4       	brcc	.+8      	; 0x12d6 <pvPortMalloc+0x13e>
                    {
                        xMinimumEverFreeBytesRemaining = xFreeBytesRemaining;
    12ce:	10 93 c1 08 	sts	0x08C1, r17	; 0x8008c1 <xMinimumEverFreeBytesRemaining+0x1>
    12d2:	00 93 c0 08 	sts	0x08C0, r16	; 0x8008c0 <xMinimumEverFreeBytesRemaining>
                        mtCOVERAGE_TEST_MARKER();
                    }

                    /* The block is being returned - it is allocated and owned
                     * by the application and has no "next" block. */
                    pxBlock->xBlockSize |= xBlockAllocatedBit;
    12d6:	e8 2a       	or	r14, r24
    12d8:	f9 2a       	or	r15, r25
    12da:	fb 82       	std	Y+3, r15	; 0x03
    12dc:	ea 82       	std	Y+2, r14	; 0x02
                    pxBlock->pxNextFreeBlock = NULL;
    12de:	19 82       	std	Y+1, r1	; 0x01
    12e0:	18 82       	st	Y, r1
                    xNumberOfSuccessfulAllocations++;
    12e2:	80 91 be 08 	lds	r24, 0x08BE	; 0x8008be <xNumberOfSuccessfulAllocations>
    12e6:	90 91 bf 08 	lds	r25, 0x08BF	; 0x8008bf <xNumberOfSuccessfulAllocations+0x1>
    12ea:	01 96       	adiw	r24, 0x01	; 1
    12ec:	90 93 bf 08 	sts	0x08BF, r25	; 0x8008bf <xNumberOfSuccessfulAllocations+0x1>
    12f0:	80 93 be 08 	sts	0x08BE, r24	; 0x8008be <xNumberOfSuccessfulAllocations>
            mtCOVERAGE_TEST_MARKER();
        }

        traceMALLOC( pvReturn, xWantedSize );
    }
    ( void ) xTaskResumeAll();
    12f4:	0e 94 8f 15 	call	0x2b1e	; 0x2b1e <xTaskResumeAll>

    #if ( configUSE_MALLOC_FAILED_HOOK == 1 )
        {
            if( pvReturn == NULL )
    12f8:	c1 14       	cp	r12, r1
    12fa:	d1 04       	cpc	r13, r1
    12fc:	59 f4       	brne	.+22     	; 0x1314 <pvPortMalloc+0x17c>
            {
                extern void vApplicationMallocFailedHook( void );
                vApplicationMallocFailedHook();
    12fe:	0e 94 5c 1e 	call	0x3cb8	; 0x3cb8 <vApplicationMallocFailedHook>
    1302:	c1 2c       	mov	r12, r1
    1304:	d1 2c       	mov	r13, r1
            }
        }
    #endif /* if ( configUSE_MALLOC_FAILED_HOOK == 1 ) */

    configASSERT( ( ( ( size_t ) pvReturn ) & ( size_t ) portBYTE_ALIGNMENT_MASK ) == 0 );
    return pvReturn;
    1306:	06 c0       	rjmp	.+12     	; 0x1314 <pvPortMalloc+0x17c>
            mtCOVERAGE_TEST_MARKER();
        }

        traceMALLOC( pvReturn, xWantedSize );
    }
    ( void ) xTaskResumeAll();
    1308:	0e 94 8f 15 	call	0x2b1e	; 0x2b1e <xTaskResumeAll>
    130c:	f8 cf       	rjmp	.-16     	; 0x12fe <pvPortMalloc+0x166>
    130e:	0e 94 8f 15 	call	0x2b1e	; 0x2b1e <xTaskResumeAll>
    1312:	f5 cf       	rjmp	.-22     	; 0x12fe <pvPortMalloc+0x166>
        }
    #endif /* if ( configUSE_MALLOC_FAILED_HOOK == 1 ) */

    configASSERT( ( ( ( size_t ) pvReturn ) & ( size_t ) portBYTE_ALIGNMENT_MASK ) == 0 );
    return pvReturn;
}
    1314:	c6 01       	movw	r24, r12
    1316:	df 91       	pop	r29
    1318:	cf 91       	pop	r28
    131a:	1f 91       	pop	r17
    131c:	0f 91       	pop	r16
    131e:	ff 90       	pop	r15
    1320:	ef 90       	pop	r14
    1322:	df 90       	pop	r13
    1324:	cf 90       	pop	r12
    1326:	08 95       	ret

00001328 <vPortFree>:
/*-----------------------------------------------------------*/

void vPortFree( void * pv )
{
    1328:	cf 93       	push	r28
    132a:	df 93       	push	r29
    uint8_t * puc = ( uint8_t * ) pv;
    BlockLink_t * pxLink;

    if( pv != NULL )
    132c:	00 97       	sbiw	r24, 0x00	; 0
    132e:	99 f1       	breq	.+102    	; 0x1396 <vPortFree+0x6e>

        /* Check the block is actually allocated. */
        configASSERT( ( pxLink->xBlockSize & xBlockAllocatedBit ) != 0 );
        configASSERT( pxLink->pxNextFreeBlock == NULL );

        if( ( pxLink->xBlockSize & xBlockAllocatedBit ) != 0 )
    1330:	fc 01       	movw	r30, r24
    1332:	34 97       	sbiw	r30, 0x04	; 4
    1334:	22 81       	ldd	r18, Z+2	; 0x02
    1336:	33 81       	ldd	r19, Z+3	; 0x03
    1338:	40 91 ba 08 	lds	r20, 0x08BA	; 0x8008ba <xBlockAllocatedBit>
    133c:	50 91 bb 08 	lds	r21, 0x08BB	; 0x8008bb <xBlockAllocatedBit+0x1>
    1340:	b9 01       	movw	r22, r18
    1342:	64 23       	and	r22, r20
    1344:	75 23       	and	r23, r21
    1346:	67 2b       	or	r22, r23
    1348:	31 f1       	breq	.+76     	; 0x1396 <vPortFree+0x6e>
        {
            if( pxLink->pxNextFreeBlock == NULL )
    134a:	60 81       	ld	r22, Z
    134c:	71 81       	ldd	r23, Z+1	; 0x01
    134e:	67 2b       	or	r22, r23
    1350:	11 f5       	brne	.+68     	; 0x1396 <vPortFree+0x6e>
            {
                /* The block is being returned to the heap - it is no longer
                 * allocated. */
                pxLink->xBlockSize &= ~xBlockAllocatedBit;
    1352:	ef 01       	movw	r28, r30
    1354:	40 95       	com	r20
    1356:	50 95       	com	r21
    1358:	24 23       	and	r18, r20
    135a:	35 23       	and	r19, r21
    135c:	33 83       	std	Z+3, r19	; 0x03
    135e:	22 83       	std	Z+2, r18	; 0x02

                vTaskSuspendAll();
    1360:	0e 94 4b 14 	call	0x2896	; 0x2896 <vTaskSuspendAll>
                {
                    /* Add this block to the list of free blocks. */
                    xFreeBytesRemaining += pxLink->xBlockSize;
    1364:	20 91 c2 08 	lds	r18, 0x08C2	; 0x8008c2 <xFreeBytesRemaining>
    1368:	30 91 c3 08 	lds	r19, 0x08C3	; 0x8008c3 <xFreeBytesRemaining+0x1>
    136c:	8a 81       	ldd	r24, Y+2	; 0x02
    136e:	9b 81       	ldd	r25, Y+3	; 0x03
    1370:	82 0f       	add	r24, r18
    1372:	93 1f       	adc	r25, r19
    1374:	90 93 c3 08 	sts	0x08C3, r25	; 0x8008c3 <xFreeBytesRemaining+0x1>
    1378:	80 93 c2 08 	sts	0x08C2, r24	; 0x8008c2 <xFreeBytesRemaining>
                    traceFREE( pv, pxLink->xBlockSize );
                    prvInsertBlockIntoFreeList( ( ( BlockLink_t * ) pxLink ) );
    137c:	ce 01       	movw	r24, r28
    137e:	bf de       	rcall	.-642    	; 0x10fe <prvInsertBlockIntoFreeList>
                    xNumberOfSuccessfulFrees++;
    1380:	80 91 bc 08 	lds	r24, 0x08BC	; 0x8008bc <xNumberOfSuccessfulFrees>
    1384:	90 91 bd 08 	lds	r25, 0x08BD	; 0x8008bd <xNumberOfSuccessfulFrees+0x1>
    1388:	01 96       	adiw	r24, 0x01	; 1
    138a:	90 93 bd 08 	sts	0x08BD, r25	; 0x8008bd <xNumberOfSuccessfulFrees+0x1>
    138e:	80 93 bc 08 	sts	0x08BC, r24	; 0x8008bc <xNumberOfSuccessfulFrees>
                }
                ( void ) xTaskResumeAll();
    1392:	0e 94 8f 15 	call	0x2b1e	; 0x2b1e <xTaskResumeAll>
        else
        {
            mtCOVERAGE_TEST_MARKER();
        }
    }
}
    1396:	df 91       	pop	r29
    1398:	cf 91       	pop	r28
    139a:	08 95       	ret

0000139c <vListInitialise>:

    /* Remember which list the item is in. */
    pxNewListItem->pxContainer = pxList;

    ( pxList->uxNumberOfItems )++;
}
    139c:	fc 01       	movw	r30, r24
    139e:	03 96       	adiw	r24, 0x03	; 3
    13a0:	92 83       	std	Z+2, r25	; 0x02
    13a2:	81 83       	std	Z+1, r24	; 0x01
    13a4:	4f ef       	ldi	r20, 0xFF	; 255
    13a6:	5f ef       	ldi	r21, 0xFF	; 255
    13a8:	ba 01       	movw	r22, r20
    13aa:	43 83       	std	Z+3, r20	; 0x03
    13ac:	54 83       	std	Z+4, r21	; 0x04
    13ae:	65 83       	std	Z+5, r22	; 0x05
    13b0:	76 83       	std	Z+6, r23	; 0x06
    13b2:	90 87       	std	Z+8, r25	; 0x08
    13b4:	87 83       	std	Z+7, r24	; 0x07
    13b6:	92 87       	std	Z+10, r25	; 0x0a
    13b8:	81 87       	std	Z+9, r24	; 0x09
    13ba:	10 82       	st	Z, r1
    13bc:	08 95       	ret

000013be <vListInitialiseItem>:
    13be:	fc 01       	movw	r30, r24
    13c0:	13 86       	std	Z+11, r1	; 0x0b
    13c2:	12 86       	std	Z+10, r1	; 0x0a
    13c4:	08 95       	ret

000013c6 <vListInsert>:
/*-----------------------------------------------------------*/

void vListInsert( List_t * const pxList,
                  ListItem_t * const pxNewListItem )
{
    13c6:	0f 93       	push	r16
    13c8:	1f 93       	push	r17
    13ca:	cf 93       	push	r28
    13cc:	df 93       	push	r29
    13ce:	eb 01       	movw	r28, r22
    ListItem_t * pxIterator;
    const TickType_t xValueOfInsertion = pxNewListItem->xItemValue;
    13d0:	08 81       	ld	r16, Y
    13d2:	19 81       	ldd	r17, Y+1	; 0x01
    13d4:	2a 81       	ldd	r18, Y+2	; 0x02
    13d6:	3b 81       	ldd	r19, Y+3	; 0x03
     * new list item should be placed after it.  This ensures that TCBs which are
     * stored in ready lists (all of which have the same xItemValue value) get a
     * share of the CPU.  However, if the xItemValue is the same as the back marker
     * the iteration loop below will not end.  Therefore the value is checked
     * first, and the algorithm slightly modified if necessary. */
    if( xValueOfInsertion == portMAX_DELAY )
    13d8:	0f 3f       	cpi	r16, 0xFF	; 255
    13da:	4f ef       	ldi	r20, 0xFF	; 255
    13dc:	14 07       	cpc	r17, r20
    13de:	24 07       	cpc	r18, r20
    13e0:	34 07       	cpc	r19, r20
    13e2:	21 f4       	brne	.+8      	; 0x13ec <vListInsert+0x26>
    {
        pxIterator = pxList->xListEnd.pxPrevious;
    13e4:	fc 01       	movw	r30, r24
    13e6:	a1 85       	ldd	r26, Z+9	; 0x09
    13e8:	b2 85       	ldd	r27, Z+10	; 0x0a
    13ea:	11 c0       	rjmp	.+34     	; 0x140e <vListInsert+0x48>
        *   4) Using a queue or semaphore before it has been initialised or
        *      before the scheduler has been started (are interrupts firing
        *      before vTaskStartScheduler() has been called?).
        **********************************************************************/

        for( pxIterator = ( ListItem_t * ) &( pxList->xListEnd ); pxIterator->pxNext->xItemValue <= xValueOfInsertion; pxIterator = pxIterator->pxNext ) /*lint !e826 !e740 !e9087 The mini list structure is used as the list end to save RAM.  This is checked and valid. *//*lint !e440 The iterator moves to a different value, not xValueOfInsertion. */
    13ec:	dc 01       	movw	r26, r24
    13ee:	13 96       	adiw	r26, 0x03	; 3
    13f0:	01 c0       	rjmp	.+2      	; 0x13f4 <vListInsert+0x2e>
    13f2:	df 01       	movw	r26, r30
    13f4:	14 96       	adiw	r26, 0x04	; 4
    13f6:	ed 91       	ld	r30, X+
    13f8:	fc 91       	ld	r31, X
    13fa:	15 97       	sbiw	r26, 0x05	; 5
    13fc:	40 81       	ld	r20, Z
    13fe:	51 81       	ldd	r21, Z+1	; 0x01
    1400:	62 81       	ldd	r22, Z+2	; 0x02
    1402:	73 81       	ldd	r23, Z+3	; 0x03
    1404:	04 17       	cp	r16, r20
    1406:	15 07       	cpc	r17, r21
    1408:	26 07       	cpc	r18, r22
    140a:	37 07       	cpc	r19, r23
    140c:	90 f7       	brcc	.-28     	; 0x13f2 <vListInsert+0x2c>
            /* There is nothing to do here, just iterating to the wanted
             * insertion position. */
        }
    }

    pxNewListItem->pxNext = pxIterator->pxNext;
    140e:	14 96       	adiw	r26, 0x04	; 4
    1410:	ed 91       	ld	r30, X+
    1412:	fc 91       	ld	r31, X
    1414:	15 97       	sbiw	r26, 0x05	; 5
    1416:	fd 83       	std	Y+5, r31	; 0x05
    1418:	ec 83       	std	Y+4, r30	; 0x04
    pxNewListItem->pxNext->pxPrevious = pxNewListItem;
    141a:	d7 83       	std	Z+7, r29	; 0x07
    141c:	c6 83       	std	Z+6, r28	; 0x06
    pxNewListItem->pxPrevious = pxIterator;
    141e:	bf 83       	std	Y+7, r27	; 0x07
    1420:	ae 83       	std	Y+6, r26	; 0x06
    pxIterator->pxNext = pxNewListItem;
    1422:	15 96       	adiw	r26, 0x05	; 5
    1424:	dc 93       	st	X, r29
    1426:	ce 93       	st	-X, r28
    1428:	14 97       	sbiw	r26, 0x04	; 4

    /* Remember which list the item is in.  This allows fast removal of the
     * item later. */
    pxNewListItem->pxContainer = pxList;
    142a:	9b 87       	std	Y+11, r25	; 0x0b
    142c:	8a 87       	std	Y+10, r24	; 0x0a

    ( pxList->uxNumberOfItems )++;
    142e:	fc 01       	movw	r30, r24
    1430:	20 81       	ld	r18, Z
    1432:	2f 5f       	subi	r18, 0xFF	; 255
    1434:	20 83       	st	Z, r18
}
    1436:	df 91       	pop	r29
    1438:	cf 91       	pop	r28
    143a:	1f 91       	pop	r17
    143c:	0f 91       	pop	r16
    143e:	08 95       	ret

00001440 <uxListRemove>:
/*-----------------------------------------------------------*/

UBaseType_t uxListRemove( ListItem_t * const pxItemToRemove )
{
    1440:	cf 93       	push	r28
    1442:	df 93       	push	r29
    1444:	fc 01       	movw	r30, r24
/* The list item knows which list it is in.  Obtain the list from the list
 * item. */
    List_t * const pxList = pxItemToRemove->pxContainer;
    1446:	a2 85       	ldd	r26, Z+10	; 0x0a
    1448:	b3 85       	ldd	r27, Z+11	; 0x0b

    pxItemToRemove->pxNext->pxPrevious = pxItemToRemove->pxPrevious;
    144a:	c4 81       	ldd	r28, Z+4	; 0x04
    144c:	d5 81       	ldd	r29, Z+5	; 0x05
    144e:	86 81       	ldd	r24, Z+6	; 0x06
    1450:	97 81       	ldd	r25, Z+7	; 0x07
    1452:	9f 83       	std	Y+7, r25	; 0x07
    1454:	8e 83       	std	Y+6, r24	; 0x06
    pxItemToRemove->pxPrevious->pxNext = pxItemToRemove->pxNext;
    1456:	c6 81       	ldd	r28, Z+6	; 0x06
    1458:	d7 81       	ldd	r29, Z+7	; 0x07
    145a:	84 81       	ldd	r24, Z+4	; 0x04
    145c:	95 81       	ldd	r25, Z+5	; 0x05
    145e:	9d 83       	std	Y+5, r25	; 0x05
    1460:	8c 83       	std	Y+4, r24	; 0x04

    /* Only used during decision coverage testing. */
    mtCOVERAGE_TEST_DELAY();

    /* Make sure the index is left pointing to a valid item. */
    if( pxList->pxIndex == pxItemToRemove )
    1462:	11 96       	adiw	r26, 0x01	; 1
    1464:	8d 91       	ld	r24, X+
    1466:	9c 91       	ld	r25, X
    1468:	12 97       	sbiw	r26, 0x02	; 2
    146a:	e8 17       	cp	r30, r24
    146c:	f9 07       	cpc	r31, r25
    146e:	31 f4       	brne	.+12     	; 0x147c <uxListRemove+0x3c>
    {
        pxList->pxIndex = pxItemToRemove->pxPrevious;
    1470:	86 81       	ldd	r24, Z+6	; 0x06
    1472:	97 81       	ldd	r25, Z+7	; 0x07
    1474:	12 96       	adiw	r26, 0x02	; 2
    1476:	9c 93       	st	X, r25
    1478:	8e 93       	st	-X, r24
    147a:	11 97       	sbiw	r26, 0x01	; 1
    else
    {
        mtCOVERAGE_TEST_MARKER();
    }

    pxItemToRemove->pxContainer = NULL;
    147c:	13 86       	std	Z+11, r1	; 0x0b
    147e:	12 86       	std	Z+10, r1	; 0x0a
    ( pxList->uxNumberOfItems )--;
    1480:	8c 91       	ld	r24, X
    1482:	81 50       	subi	r24, 0x01	; 1
    1484:	8c 93       	st	X, r24

    return pxList->uxNumberOfItems;
    1486:	8c 91       	ld	r24, X
}
    1488:	df 91       	pop	r29
    148a:	cf 91       	pop	r28
    148c:	08 95       	ret

0000148e <pxPortInitialiseStack>:
{
    portSAVE_CONTEXT();
    vTaskSwitchContext();
    portRESTORE_CONTEXT();

    __asm__ __volatile__ ( "reti" );
    148e:	fc 01       	movw	r30, r24
    1490:	60 83       	st	Z, r22
    1492:	31 97       	sbiw	r30, 0x01	; 1
    1494:	70 83       	st	Z, r23
    1496:	31 97       	sbiw	r30, 0x01	; 1
    1498:	10 82       	st	Z, r1
    149a:	31 97       	sbiw	r30, 0x01	; 1
    149c:	10 82       	st	Z, r1
    149e:	31 97       	sbiw	r30, 0x01	; 1
    14a0:	20 e8       	ldi	r18, 0x80	; 128
    14a2:	20 83       	st	Z, r18
    14a4:	31 97       	sbiw	r30, 0x01	; 1
    14a6:	10 82       	st	Z, r1
    14a8:	31 97       	sbiw	r30, 0x01	; 1
    14aa:	10 82       	st	Z, r1
    14ac:	31 97       	sbiw	r30, 0x01	; 1
    14ae:	10 82       	st	Z, r1
    14b0:	77 97       	sbiw	r30, 0x17	; 23
    14b2:	40 83       	st	Z, r20
    14b4:	31 97       	sbiw	r30, 0x01	; 1
    14b6:	50 83       	st	Z, r21
    14b8:	86 97       	sbiw	r24, 0x26	; 38
    14ba:	08 95       	ret

000014bc <xPortStartScheduler>:
    14bc:	a8 95       	wdr
    14be:	90 ec       	ldi	r25, 0xC0	; 192
    14c0:	88 e1       	ldi	r24, 0x18	; 24
    14c2:	0f b6       	in	r0, 0x3f	; 63
    14c4:	f8 94       	cli
    14c6:	a8 95       	wdr
    14c8:	80 93 60 00 	sts	0x0060, r24	; 0x800060 <__TEXT_REGION_LENGTH__+0x700060>
    14cc:	0f be       	out	0x3f, r0	; 63
    14ce:	90 93 60 00 	sts	0x0060, r25	; 0x800060 <__TEXT_REGION_LENGTH__+0x700060>
    14d2:	a0 91 4d 13 	lds	r26, 0x134D	; 0x80134d <pxCurrentTCB>
    14d6:	b0 91 4e 13 	lds	r27, 0x134E	; 0x80134e <pxCurrentTCB+0x1>
    14da:	cd 91       	ld	r28, X+
    14dc:	cd bf       	out	0x3d, r28	; 61
    14de:	dd 91       	ld	r29, X+
    14e0:	de bf       	out	0x3e, r29	; 62
    14e2:	ff 91       	pop	r31
    14e4:	ef 91       	pop	r30
    14e6:	df 91       	pop	r29
    14e8:	cf 91       	pop	r28
    14ea:	bf 91       	pop	r27
    14ec:	af 91       	pop	r26
    14ee:	9f 91       	pop	r25
    14f0:	8f 91       	pop	r24
    14f2:	7f 91       	pop	r23
    14f4:	6f 91       	pop	r22
    14f6:	5f 91       	pop	r21
    14f8:	4f 91       	pop	r20
    14fa:	3f 91       	pop	r19
    14fc:	2f 91       	pop	r18
    14fe:	1f 91       	pop	r17
    1500:	0f 91       	pop	r16
    1502:	ff 90       	pop	r15
    1504:	ef 90       	pop	r14
    1506:	df 90       	pop	r13
    1508:	cf 90       	pop	r12
    150a:	bf 90       	pop	r11
    150c:	af 90       	pop	r10
    150e:	9f 90       	pop	r9
    1510:	8f 90       	pop	r8
    1512:	7f 90       	pop	r7
    1514:	6f 90       	pop	r6
    1516:	5f 90       	pop	r5
    1518:	4f 90       	pop	r4
    151a:	3f 90       	pop	r3
    151c:	2f 90       	pop	r2
    151e:	1f 90       	pop	r1
    1520:	0f 90       	pop	r0
    1522:	0c be       	out	0x3c, r0	; 60
    1524:	0f 90       	pop	r0
    1526:	0b be       	out	0x3b, r0	; 59
    1528:	0f 90       	pop	r0
    152a:	0f be       	out	0x3f, r0	; 63
    152c:	0f 90       	pop	r0
    152e:	08 95       	ret
    1530:	81 e0       	ldi	r24, 0x01	; 1
    1532:	08 95       	ret

00001534 <vPortYield>:
    1534:	0f 92       	push	r0
    1536:	0f b6       	in	r0, 0x3f	; 63
    1538:	f8 94       	cli
    153a:	0f 92       	push	r0
    153c:	0b b6       	in	r0, 0x3b	; 59
    153e:	0f 92       	push	r0
    1540:	0c b6       	in	r0, 0x3c	; 60
    1542:	0f 92       	push	r0
    1544:	1f 92       	push	r1
    1546:	11 24       	eor	r1, r1
    1548:	2f 92       	push	r2
    154a:	3f 92       	push	r3
    154c:	4f 92       	push	r4
    154e:	5f 92       	push	r5
    1550:	6f 92       	push	r6
    1552:	7f 92       	push	r7
    1554:	8f 92       	push	r8
    1556:	9f 92       	push	r9
    1558:	af 92       	push	r10
    155a:	bf 92       	push	r11
    155c:	cf 92       	push	r12
    155e:	df 92       	push	r13
    1560:	ef 92       	push	r14
    1562:	ff 92       	push	r15
    1564:	0f 93       	push	r16
    1566:	1f 93       	push	r17
    1568:	2f 93       	push	r18
    156a:	3f 93       	push	r19
    156c:	4f 93       	push	r20
    156e:	5f 93       	push	r21
    1570:	6f 93       	push	r22
    1572:	7f 93       	push	r23
    1574:	8f 93       	push	r24
    1576:	9f 93       	push	r25
    1578:	af 93       	push	r26
    157a:	bf 93       	push	r27
    157c:	cf 93       	push	r28
    157e:	df 93       	push	r29
    1580:	ef 93       	push	r30
    1582:	ff 93       	push	r31
    1584:	a0 91 4d 13 	lds	r26, 0x134D	; 0x80134d <pxCurrentTCB>
    1588:	b0 91 4e 13 	lds	r27, 0x134E	; 0x80134e <pxCurrentTCB+0x1>
    158c:	0d b6       	in	r0, 0x3d	; 61
    158e:	0d 92       	st	X+, r0
    1590:	0e b6       	in	r0, 0x3e	; 62
    1592:	0d 92       	st	X+, r0
    1594:	0e 94 8e 16 	call	0x2d1c	; 0x2d1c <vTaskSwitchContext>
    1598:	a0 91 4d 13 	lds	r26, 0x134D	; 0x80134d <pxCurrentTCB>
    159c:	b0 91 4e 13 	lds	r27, 0x134E	; 0x80134e <pxCurrentTCB+0x1>
    15a0:	cd 91       	ld	r28, X+
    15a2:	cd bf       	out	0x3d, r28	; 61
    15a4:	dd 91       	ld	r29, X+
    15a6:	de bf       	out	0x3e, r29	; 62
    15a8:	ff 91       	pop	r31
    15aa:	ef 91       	pop	r30
    15ac:	df 91       	pop	r29
    15ae:	cf 91       	pop	r28
    15b0:	bf 91       	pop	r27
    15b2:	af 91       	pop	r26
    15b4:	9f 91       	pop	r25
    15b6:	8f 91       	pop	r24
    15b8:	7f 91       	pop	r23
    15ba:	6f 91       	pop	r22
    15bc:	5f 91       	pop	r21
    15be:	4f 91       	pop	r20
    15c0:	3f 91       	pop	r19
    15c2:	2f 91       	pop	r18
    15c4:	1f 91       	pop	r17
    15c6:	0f 91       	pop	r16
    15c8:	ff 90       	pop	r15
    15ca:	ef 90       	pop	r14
    15cc:	df 90       	pop	r13
    15ce:	cf 90       	pop	r12
    15d0:	bf 90       	pop	r11
    15d2:	af 90       	pop	r10
    15d4:	9f 90       	pop	r9
    15d6:	8f 90       	pop	r8
    15d8:	7f 90       	pop	r7
    15da:	6f 90       	pop	r6
    15dc:	5f 90       	pop	r5
    15de:	4f 90       	pop	r4
    15e0:	3f 90       	pop	r3
    15e2:	2f 90       	pop	r2
    15e4:	1f 90       	pop	r1
    15e6:	0f 90       	pop	r0
    15e8:	0c be       	out	0x3c, r0	; 60
    15ea:	0f 90       	pop	r0
    15ec:	0b be       	out	0x3b, r0	; 59
    15ee:	0f 90       	pop	r0
    15f0:	0f be       	out	0x3f, r0	; 63
    15f2:	0f 90       	pop	r0
    15f4:	08 95       	ret

000015f6 <vPortYieldFromTick>:
 * call comes from the tick ISR.
 */
void vPortYieldFromTick( void ) __attribute__ ( ( hot, flatten, naked ) );
void vPortYieldFromTick( void )
{
    portSAVE_CONTEXT();
    15f6:	0f 92       	push	r0
    15f8:	0f b6       	in	r0, 0x3f	; 63
    15fa:	f8 94       	cli
    15fc:	0f 92       	push	r0
    15fe:	0b b6       	in	r0, 0x3b	; 59
    1600:	0f 92       	push	r0
    1602:	0c b6       	in	r0, 0x3c	; 60
    1604:	0f 92       	push	r0
    1606:	1f 92       	push	r1
    1608:	11 24       	eor	r1, r1
    160a:	2f 92       	push	r2
    160c:	3f 92       	push	r3
    160e:	4f 92       	push	r4
    1610:	5f 92       	push	r5
    1612:	6f 92       	push	r6
    1614:	7f 92       	push	r7
    1616:	8f 92       	push	r8
    1618:	9f 92       	push	r9
    161a:	af 92       	push	r10
    161c:	bf 92       	push	r11
    161e:	cf 92       	push	r12
    1620:	df 92       	push	r13
    1622:	ef 92       	push	r14
    1624:	ff 92       	push	r15
    1626:	0f 93       	push	r16
    1628:	1f 93       	push	r17
    162a:	2f 93       	push	r18
    162c:	3f 93       	push	r19
    162e:	4f 93       	push	r20
    1630:	5f 93       	push	r21
    1632:	6f 93       	push	r22
    1634:	7f 93       	push	r23
    1636:	8f 93       	push	r24
    1638:	9f 93       	push	r25
    163a:	af 93       	push	r26
    163c:	bf 93       	push	r27
    163e:	cf 93       	push	r28
    1640:	df 93       	push	r29
    1642:	ef 93       	push	r30
    1644:	ff 93       	push	r31
    1646:	a0 91 4d 13 	lds	r26, 0x134D	; 0x80134d <pxCurrentTCB>
    164a:	b0 91 4e 13 	lds	r27, 0x134E	; 0x80134e <pxCurrentTCB+0x1>
    164e:	0d b6       	in	r0, 0x3d	; 61
    1650:	0d 92       	st	X+, r0
    1652:	0e b6       	in	r0, 0x3e	; 62
    1654:	0d 92       	st	X+, r0
    sleep_reset();        /* reset the sleep_mode() faster than sleep_disable(); */
    1656:	13 be       	out	0x33, r1	; 51
    if( xTaskIncrementTick() != pdFALSE )
    1658:	0e 94 5f 14 	call	0x28be	; 0x28be <xTaskIncrementTick>
    165c:	81 11       	cpse	r24, r1
    {
        vTaskSwitchContext();
    165e:	0e 94 8e 16 	call	0x2d1c	; 0x2d1c <vTaskSwitchContext>
    }
    portRESTORE_CONTEXT();
    1662:	a0 91 4d 13 	lds	r26, 0x134D	; 0x80134d <pxCurrentTCB>
    1666:	b0 91 4e 13 	lds	r27, 0x134E	; 0x80134e <pxCurrentTCB+0x1>
    166a:	cd 91       	ld	r28, X+
    166c:	cd bf       	out	0x3d, r28	; 61
    166e:	dd 91       	ld	r29, X+
    1670:	de bf       	out	0x3e, r29	; 62
    1672:	ff 91       	pop	r31
    1674:	ef 91       	pop	r30
    1676:	df 91       	pop	r29
    1678:	cf 91       	pop	r28
    167a:	bf 91       	pop	r27
    167c:	af 91       	pop	r26
    167e:	9f 91       	pop	r25
    1680:	8f 91       	pop	r24
    1682:	7f 91       	pop	r23
    1684:	6f 91       	pop	r22
    1686:	5f 91       	pop	r21
    1688:	4f 91       	pop	r20
    168a:	3f 91       	pop	r19
    168c:	2f 91       	pop	r18
    168e:	1f 91       	pop	r17
    1690:	0f 91       	pop	r16
    1692:	ff 90       	pop	r15
    1694:	ef 90       	pop	r14
    1696:	df 90       	pop	r13
    1698:	cf 90       	pop	r12
    169a:	bf 90       	pop	r11
    169c:	af 90       	pop	r10
    169e:	9f 90       	pop	r9
    16a0:	8f 90       	pop	r8
    16a2:	7f 90       	pop	r7
    16a4:	6f 90       	pop	r6
    16a6:	5f 90       	pop	r5
    16a8:	4f 90       	pop	r4
    16aa:	3f 90       	pop	r3
    16ac:	2f 90       	pop	r2
    16ae:	1f 90       	pop	r1
    16b0:	0f 90       	pop	r0
    16b2:	0c be       	out	0x3c, r0	; 60
    16b4:	0f 90       	pop	r0
    16b6:	0b be       	out	0x3b, r0	; 59
    16b8:	0f 90       	pop	r0
    16ba:	0f be       	out	0x3f, r0	; 63
    16bc:	0f 90       	pop	r0

    __asm__ __volatile__ ( "ret" );
    16be:	08 95       	ret

000016c0 <__vector_12>:
    ISR(portSCHEDULER_ISR, ISR_NAKED) __attribute__ ((hot, flatten));
/*  ISR(portSCHEDULER_ISR, ISR_NAKED ISR_NOBLOCK) __attribute__ ((hot, flatten));
 */
    ISR(portSCHEDULER_ISR)
    {
        vPortYieldFromTick();
    16c0:	9a df       	rcall	.-204    	; 0x15f6 <vPortYieldFromTick>
        __asm__ __volatile__ ( "reti" );
    16c2:	18 95       	reti

000016c4 <prvIsQueueEmpty>:
    {
        xReturn = pdFALSE;
    }

    return xReturn;
} /*lint !e818 xQueue could not be pointer to const because it is a typedef. */
    16c4:	0f b6       	in	r0, 0x3f	; 63
    16c6:	f8 94       	cli
    16c8:	0f 92       	push	r0
    16ca:	fc 01       	movw	r30, r24
    16cc:	96 8d       	ldd	r25, Z+30	; 0x1e
    16ce:	0f 90       	pop	r0
    16d0:	0f be       	out	0x3f, r0	; 63
    16d2:	81 e0       	ldi	r24, 0x01	; 1
    16d4:	91 11       	cpse	r25, r1
    16d6:	80 e0       	ldi	r24, 0x00	; 0
    16d8:	08 95       	ret

000016da <prvCopyDataToQueue>:
    16da:	0f 93       	push	r16
    16dc:	1f 93       	push	r17
    16de:	cf 93       	push	r28
    16e0:	df 93       	push	r29
    16e2:	ec 01       	movw	r28, r24
    16e4:	04 2f       	mov	r16, r20
    16e6:	1e 8d       	ldd	r17, Y+30	; 0x1e
    16e8:	48 a1       	ldd	r20, Y+32	; 0x20
    16ea:	41 11       	cpse	r20, r1
    16ec:	0c c0       	rjmp	.+24     	; 0x1706 <prvCopyDataToQueue+0x2c>
    16ee:	88 81       	ld	r24, Y
    16f0:	99 81       	ldd	r25, Y+1	; 0x01
    16f2:	89 2b       	or	r24, r25
    16f4:	09 f0       	breq	.+2      	; 0x16f8 <prvCopyDataToQueue+0x1e>
    16f6:	42 c0       	rjmp	.+132    	; 0x177c <prvCopyDataToQueue+0xa2>
    16f8:	8c 81       	ldd	r24, Y+4	; 0x04
    16fa:	9d 81       	ldd	r25, Y+5	; 0x05
    16fc:	0e 94 26 19 	call	0x324c	; 0x324c <xTaskPriorityDisinherit>
    1700:	1d 82       	std	Y+5, r1	; 0x05
    1702:	1c 82       	std	Y+4, r1	; 0x04
    1704:	42 c0       	rjmp	.+132    	; 0x178a <prvCopyDataToQueue+0xb0>
    1706:	01 11       	cpse	r16, r1
    1708:	17 c0       	rjmp	.+46     	; 0x1738 <prvCopyDataToQueue+0x5e>
    170a:	50 e0       	ldi	r21, 0x00	; 0
    170c:	8a 81       	ldd	r24, Y+2	; 0x02
    170e:	9b 81       	ldd	r25, Y+3	; 0x03
    1710:	0e 94 ab 36 	call	0x6d56	; 0x6d56 <memcpy>
    1714:	28 a1       	ldd	r18, Y+32	; 0x20
    1716:	8a 81       	ldd	r24, Y+2	; 0x02
    1718:	9b 81       	ldd	r25, Y+3	; 0x03
    171a:	82 0f       	add	r24, r18
    171c:	91 1d       	adc	r25, r1
    171e:	9b 83       	std	Y+3, r25	; 0x03
    1720:	8a 83       	std	Y+2, r24	; 0x02
    1722:	2c 81       	ldd	r18, Y+4	; 0x04
    1724:	3d 81       	ldd	r19, Y+5	; 0x05
    1726:	82 17       	cp	r24, r18
    1728:	93 07       	cpc	r25, r19
    172a:	50 f1       	brcs	.+84     	; 0x1780 <prvCopyDataToQueue+0xa6>
    172c:	88 81       	ld	r24, Y
    172e:	99 81       	ldd	r25, Y+1	; 0x01
    1730:	9b 83       	std	Y+3, r25	; 0x03
    1732:	8a 83       	std	Y+2, r24	; 0x02
    1734:	80 e0       	ldi	r24, 0x00	; 0
    1736:	29 c0       	rjmp	.+82     	; 0x178a <prvCopyDataToQueue+0xb0>
    1738:	50 e0       	ldi	r21, 0x00	; 0
    173a:	8e 81       	ldd	r24, Y+6	; 0x06
    173c:	9f 81       	ldd	r25, Y+7	; 0x07
    173e:	0e 94 ab 36 	call	0x6d56	; 0x6d56 <memcpy>
    1742:	88 a1       	ldd	r24, Y+32	; 0x20
    1744:	90 e0       	ldi	r25, 0x00	; 0
    1746:	91 95       	neg	r25
    1748:	81 95       	neg	r24
    174a:	91 09       	sbc	r25, r1
    174c:	2e 81       	ldd	r18, Y+6	; 0x06
    174e:	3f 81       	ldd	r19, Y+7	; 0x07
    1750:	28 0f       	add	r18, r24
    1752:	39 1f       	adc	r19, r25
    1754:	3f 83       	std	Y+7, r19	; 0x07
    1756:	2e 83       	std	Y+6, r18	; 0x06
    1758:	48 81       	ld	r20, Y
    175a:	59 81       	ldd	r21, Y+1	; 0x01
    175c:	24 17       	cp	r18, r20
    175e:	35 07       	cpc	r19, r21
    1760:	30 f4       	brcc	.+12     	; 0x176e <prvCopyDataToQueue+0x94>
    1762:	2c 81       	ldd	r18, Y+4	; 0x04
    1764:	3d 81       	ldd	r19, Y+5	; 0x05
    1766:	82 0f       	add	r24, r18
    1768:	93 1f       	adc	r25, r19
    176a:	9f 83       	std	Y+7, r25	; 0x07
    176c:	8e 83       	std	Y+6, r24	; 0x06
    176e:	02 30       	cpi	r16, 0x02	; 2
    1770:	49 f4       	brne	.+18     	; 0x1784 <prvCopyDataToQueue+0xaa>
    1772:	11 23       	and	r17, r17
    1774:	49 f0       	breq	.+18     	; 0x1788 <prvCopyDataToQueue+0xae>
    1776:	11 50       	subi	r17, 0x01	; 1
    1778:	80 e0       	ldi	r24, 0x00	; 0
    177a:	07 c0       	rjmp	.+14     	; 0x178a <prvCopyDataToQueue+0xb0>
    177c:	80 e0       	ldi	r24, 0x00	; 0
    177e:	05 c0       	rjmp	.+10     	; 0x178a <prvCopyDataToQueue+0xb0>
    1780:	80 e0       	ldi	r24, 0x00	; 0
    1782:	03 c0       	rjmp	.+6      	; 0x178a <prvCopyDataToQueue+0xb0>
    1784:	80 e0       	ldi	r24, 0x00	; 0
    1786:	01 c0       	rjmp	.+2      	; 0x178a <prvCopyDataToQueue+0xb0>
    1788:	80 e0       	ldi	r24, 0x00	; 0
    178a:	1f 5f       	subi	r17, 0xFF	; 255
    178c:	1e 8f       	std	Y+30, r17	; 0x1e
    178e:	df 91       	pop	r29
    1790:	cf 91       	pop	r28
    1792:	1f 91       	pop	r17
    1794:	0f 91       	pop	r16
    1796:	08 95       	ret

00001798 <prvCopyDataFromQueue>:
    1798:	fc 01       	movw	r30, r24
    179a:	40 a1       	ldd	r20, Z+32	; 0x20
    179c:	44 23       	and	r20, r20
    179e:	a9 f0       	breq	.+42     	; 0x17ca <prvCopyDataFromQueue+0x32>
    17a0:	50 e0       	ldi	r21, 0x00	; 0
    17a2:	26 81       	ldd	r18, Z+6	; 0x06
    17a4:	37 81       	ldd	r19, Z+7	; 0x07
    17a6:	24 0f       	add	r18, r20
    17a8:	35 1f       	adc	r19, r21
    17aa:	37 83       	std	Z+7, r19	; 0x07
    17ac:	26 83       	std	Z+6, r18	; 0x06
    17ae:	84 81       	ldd	r24, Z+4	; 0x04
    17b0:	95 81       	ldd	r25, Z+5	; 0x05
    17b2:	28 17       	cp	r18, r24
    17b4:	39 07       	cpc	r19, r25
    17b6:	20 f0       	brcs	.+8      	; 0x17c0 <prvCopyDataFromQueue+0x28>
    17b8:	80 81       	ld	r24, Z
    17ba:	91 81       	ldd	r25, Z+1	; 0x01
    17bc:	97 83       	std	Z+7, r25	; 0x07
    17be:	86 83       	std	Z+6, r24	; 0x06
    17c0:	cb 01       	movw	r24, r22
    17c2:	66 81       	ldd	r22, Z+6	; 0x06
    17c4:	77 81       	ldd	r23, Z+7	; 0x07
    17c6:	0c 94 ab 36 	jmp	0x6d56	; 0x6d56 <memcpy>
    17ca:	08 95       	ret

000017cc <prvUnlockQueue>:
    17cc:	ef 92       	push	r14
    17ce:	ff 92       	push	r15
    17d0:	0f 93       	push	r16
    17d2:	1f 93       	push	r17
    17d4:	cf 93       	push	r28
    17d6:	8c 01       	movw	r16, r24
    17d8:	0f b6       	in	r0, 0x3f	; 63
    17da:	f8 94       	cli
    17dc:	0f 92       	push	r0
    17de:	fc 01       	movw	r30, r24
    17e0:	c2 a1       	ldd	r28, Z+34	; 0x22
    17e2:	1c 16       	cp	r1, r28
    17e4:	ac f4       	brge	.+42     	; 0x1810 <prvUnlockQueue+0x44>
    17e6:	83 89       	ldd	r24, Z+19	; 0x13
    17e8:	81 11       	cpse	r24, r1
    17ea:	06 c0       	rjmp	.+12     	; 0x17f8 <prvUnlockQueue+0x2c>
    17ec:	11 c0       	rjmp	.+34     	; 0x1810 <prvUnlockQueue+0x44>
    17ee:	f8 01       	movw	r30, r16
    17f0:	83 89       	ldd	r24, Z+19	; 0x13
    17f2:	81 11       	cpse	r24, r1
    17f4:	05 c0       	rjmp	.+10     	; 0x1800 <prvUnlockQueue+0x34>
    17f6:	0c c0       	rjmp	.+24     	; 0x1810 <prvUnlockQueue+0x44>
    17f8:	78 01       	movw	r14, r16
    17fa:	f3 e1       	ldi	r31, 0x13	; 19
    17fc:	ef 0e       	add	r14, r31
    17fe:	f1 1c       	adc	r15, r1
    1800:	c7 01       	movw	r24, r14
    1802:	0e 94 58 17 	call	0x2eb0	; 0x2eb0 <xTaskRemoveFromEventList>
    1806:	81 11       	cpse	r24, r1
    1808:	0e 94 88 18 	call	0x3110	; 0x3110 <vTaskMissedYield>
    180c:	c1 50       	subi	r28, 0x01	; 1
    180e:	79 f7       	brne	.-34     	; 0x17ee <prvUnlockQueue+0x22>
    1810:	8f ef       	ldi	r24, 0xFF	; 255
    1812:	f8 01       	movw	r30, r16
    1814:	82 a3       	std	Z+34, r24	; 0x22
    1816:	0f 90       	pop	r0
    1818:	0f be       	out	0x3f, r0	; 63
    181a:	0f b6       	in	r0, 0x3f	; 63
    181c:	f8 94       	cli
    181e:	0f 92       	push	r0
    1820:	c1 a1       	ldd	r28, Z+33	; 0x21
    1822:	1c 16       	cp	r1, r28
    1824:	ac f4       	brge	.+42     	; 0x1850 <prvUnlockQueue+0x84>
    1826:	80 85       	ldd	r24, Z+8	; 0x08
    1828:	81 11       	cpse	r24, r1
    182a:	06 c0       	rjmp	.+12     	; 0x1838 <prvUnlockQueue+0x6c>
    182c:	11 c0       	rjmp	.+34     	; 0x1850 <prvUnlockQueue+0x84>
    182e:	f8 01       	movw	r30, r16
    1830:	80 85       	ldd	r24, Z+8	; 0x08
    1832:	81 11       	cpse	r24, r1
    1834:	05 c0       	rjmp	.+10     	; 0x1840 <prvUnlockQueue+0x74>
    1836:	0c c0       	rjmp	.+24     	; 0x1850 <prvUnlockQueue+0x84>
    1838:	78 01       	movw	r14, r16
    183a:	f8 e0       	ldi	r31, 0x08	; 8
    183c:	ef 0e       	add	r14, r31
    183e:	f1 1c       	adc	r15, r1
    1840:	c7 01       	movw	r24, r14
    1842:	0e 94 58 17 	call	0x2eb0	; 0x2eb0 <xTaskRemoveFromEventList>
    1846:	81 11       	cpse	r24, r1
    1848:	0e 94 88 18 	call	0x3110	; 0x3110 <vTaskMissedYield>
    184c:	c1 50       	subi	r28, 0x01	; 1
    184e:	79 f7       	brne	.-34     	; 0x182e <prvUnlockQueue+0x62>
    1850:	8f ef       	ldi	r24, 0xFF	; 255
    1852:	f8 01       	movw	r30, r16
    1854:	81 a3       	std	Z+33, r24	; 0x21
    1856:	0f 90       	pop	r0
    1858:	0f be       	out	0x3f, r0	; 63
    185a:	cf 91       	pop	r28
    185c:	1f 91       	pop	r17
    185e:	0f 91       	pop	r16
    1860:	ff 90       	pop	r15
    1862:	ef 90       	pop	r14
    1864:	08 95       	ret

00001866 <xQueueGenericReset>:
    1866:	cf 93       	push	r28
    1868:	df 93       	push	r29
    186a:	ec 01       	movw	r28, r24
    186c:	0f b6       	in	r0, 0x3f	; 63
    186e:	f8 94       	cli
    1870:	0f 92       	push	r0
    1872:	e8 81       	ld	r30, Y
    1874:	f9 81       	ldd	r31, Y+1	; 0x01
    1876:	8f 8d       	ldd	r24, Y+31	; 0x1f
    1878:	28 a1       	ldd	r18, Y+32	; 0x20
    187a:	90 e0       	ldi	r25, 0x00	; 0
    187c:	30 e0       	ldi	r19, 0x00	; 0
    187e:	82 9f       	mul	r24, r18
    1880:	a0 01       	movw	r20, r0
    1882:	83 9f       	mul	r24, r19
    1884:	50 0d       	add	r21, r0
    1886:	92 9f       	mul	r25, r18
    1888:	50 0d       	add	r21, r0
    188a:	11 24       	eor	r1, r1
    188c:	4e 0f       	add	r20, r30
    188e:	5f 1f       	adc	r21, r31
    1890:	5d 83       	std	Y+5, r21	; 0x05
    1892:	4c 83       	std	Y+4, r20	; 0x04
    1894:	1e 8e       	std	Y+30, r1	; 0x1e
    1896:	fb 83       	std	Y+3, r31	; 0x03
    1898:	ea 83       	std	Y+2, r30	; 0x02
    189a:	01 97       	sbiw	r24, 0x01	; 1
    189c:	82 9f       	mul	r24, r18
    189e:	a0 01       	movw	r20, r0
    18a0:	83 9f       	mul	r24, r19
    18a2:	50 0d       	add	r21, r0
    18a4:	92 9f       	mul	r25, r18
    18a6:	50 0d       	add	r21, r0
    18a8:	11 24       	eor	r1, r1
    18aa:	cf 01       	movw	r24, r30
    18ac:	84 0f       	add	r24, r20
    18ae:	95 1f       	adc	r25, r21
    18b0:	9f 83       	std	Y+7, r25	; 0x07
    18b2:	8e 83       	std	Y+6, r24	; 0x06
    18b4:	8f ef       	ldi	r24, 0xFF	; 255
    18b6:	89 a3       	std	Y+33, r24	; 0x21
    18b8:	8a a3       	std	Y+34, r24	; 0x22
    18ba:	61 11       	cpse	r22, r1
    18bc:	0b c0       	rjmp	.+22     	; 0x18d4 <xQueueGenericReset+0x6e>
    18be:	88 85       	ldd	r24, Y+8	; 0x08
    18c0:	88 23       	and	r24, r24
    18c2:	71 f0       	breq	.+28     	; 0x18e0 <xQueueGenericReset+0x7a>
    18c4:	ce 01       	movw	r24, r28
    18c6:	08 96       	adiw	r24, 0x08	; 8
    18c8:	0e 94 58 17 	call	0x2eb0	; 0x2eb0 <xTaskRemoveFromEventList>
    18cc:	88 23       	and	r24, r24
    18ce:	41 f0       	breq	.+16     	; 0x18e0 <xQueueGenericReset+0x7a>
    18d0:	31 de       	rcall	.-926    	; 0x1534 <vPortYield>
    18d2:	06 c0       	rjmp	.+12     	; 0x18e0 <xQueueGenericReset+0x7a>
    18d4:	ce 01       	movw	r24, r28
    18d6:	08 96       	adiw	r24, 0x08	; 8
    18d8:	61 dd       	rcall	.-1342   	; 0x139c <vListInitialise>
    18da:	ce 01       	movw	r24, r28
    18dc:	43 96       	adiw	r24, 0x13	; 19
    18de:	5e dd       	rcall	.-1348   	; 0x139c <vListInitialise>
    18e0:	0f 90       	pop	r0
    18e2:	0f be       	out	0x3f, r0	; 63
    18e4:	81 e0       	ldi	r24, 0x01	; 1
    18e6:	df 91       	pop	r29
    18e8:	cf 91       	pop	r28
    18ea:	08 95       	ret

000018ec <xQueueGenericCreate>:
    18ec:	0f 93       	push	r16
    18ee:	1f 93       	push	r17
    18f0:	cf 93       	push	r28
    18f2:	df 93       	push	r29
    18f4:	08 2f       	mov	r16, r24
    18f6:	16 2f       	mov	r17, r22
    18f8:	86 9f       	mul	r24, r22
    18fa:	c0 01       	movw	r24, r0
    18fc:	11 24       	eor	r1, r1
    18fe:	83 96       	adiw	r24, 0x23	; 35
    1900:	4b dc       	rcall	.-1898   	; 0x1198 <pvPortMalloc>
    1902:	ec 01       	movw	r28, r24
    1904:	00 97       	sbiw	r24, 0x00	; 0
    1906:	69 f0       	breq	.+26     	; 0x1922 <xQueueGenericCreate+0x36>
    1908:	11 11       	cpse	r17, r1
    190a:	03 c0       	rjmp	.+6      	; 0x1912 <xQueueGenericCreate+0x26>
    190c:	99 83       	std	Y+1, r25	; 0x01
    190e:	88 83       	st	Y, r24
    1910:	03 c0       	rjmp	.+6      	; 0x1918 <xQueueGenericCreate+0x2c>
    1912:	83 96       	adiw	r24, 0x23	; 35
    1914:	99 83       	std	Y+1, r25	; 0x01
    1916:	88 83       	st	Y, r24
    1918:	0f 8f       	std	Y+31, r16	; 0x1f
    191a:	18 a3       	std	Y+32, r17	; 0x20
    191c:	61 e0       	ldi	r22, 0x01	; 1
    191e:	ce 01       	movw	r24, r28
    1920:	a2 df       	rcall	.-188    	; 0x1866 <xQueueGenericReset>
    1922:	ce 01       	movw	r24, r28
    1924:	df 91       	pop	r29
    1926:	cf 91       	pop	r28
    1928:	1f 91       	pop	r17
    192a:	0f 91       	pop	r16
    192c:	08 95       	ret

0000192e <xQueueGenericSend>:
    192e:	9f 92       	push	r9
    1930:	af 92       	push	r10
    1932:	bf 92       	push	r11
    1934:	cf 92       	push	r12
    1936:	df 92       	push	r13
    1938:	ef 92       	push	r14
    193a:	ff 92       	push	r15
    193c:	0f 93       	push	r16
    193e:	1f 93       	push	r17
    1940:	cf 93       	push	r28
    1942:	df 93       	push	r29
    1944:	cd b7       	in	r28, 0x3d	; 61
    1946:	de b7       	in	r29, 0x3e	; 62
    1948:	29 97       	sbiw	r28, 0x09	; 9
    194a:	0f b6       	in	r0, 0x3f	; 63
    194c:	f8 94       	cli
    194e:	de bf       	out	0x3e, r29	; 62
    1950:	0f be       	out	0x3f, r0	; 63
    1952:	cd bf       	out	0x3d, r28	; 61
    1954:	7c 01       	movw	r14, r24
    1956:	5b 01       	movw	r10, r22
    1958:	2e 83       	std	Y+6, r18	; 0x06
    195a:	3f 83       	std	Y+7, r19	; 0x07
    195c:	48 87       	std	Y+8, r20	; 0x08
    195e:	59 87       	std	Y+9, r21	; 0x09
    1960:	10 e0       	ldi	r17, 0x00	; 0
    1962:	99 24       	eor	r9, r9
    1964:	93 94       	inc	r9
    1966:	6c 01       	movw	r12, r24
    1968:	88 e0       	ldi	r24, 0x08	; 8
    196a:	c8 0e       	add	r12, r24
    196c:	d1 1c       	adc	r13, r1
    196e:	0f b6       	in	r0, 0x3f	; 63
    1970:	f8 94       	cli
    1972:	0f 92       	push	r0
    1974:	f7 01       	movw	r30, r14
    1976:	96 8d       	ldd	r25, Z+30	; 0x1e
    1978:	87 8d       	ldd	r24, Z+31	; 0x1f
    197a:	98 17       	cp	r25, r24
    197c:	10 f0       	brcs	.+4      	; 0x1982 <xQueueGenericSend+0x54>
    197e:	02 30       	cpi	r16, 0x02	; 2
    1980:	b1 f4       	brne	.+44     	; 0x19ae <xQueueGenericSend+0x80>
    1982:	40 2f       	mov	r20, r16
    1984:	b5 01       	movw	r22, r10
    1986:	c7 01       	movw	r24, r14
    1988:	a8 de       	rcall	.-688    	; 0x16da <prvCopyDataToQueue>
    198a:	f7 01       	movw	r30, r14
    198c:	93 89       	ldd	r25, Z+19	; 0x13
    198e:	99 23       	and	r25, r25
    1990:	41 f0       	breq	.+16     	; 0x19a2 <xQueueGenericSend+0x74>
    1992:	c7 01       	movw	r24, r14
    1994:	43 96       	adiw	r24, 0x13	; 19
    1996:	0e 94 58 17 	call	0x2eb0	; 0x2eb0 <xTaskRemoveFromEventList>
    199a:	88 23       	and	r24, r24
    199c:	21 f0       	breq	.+8      	; 0x19a6 <xQueueGenericSend+0x78>
    199e:	ca dd       	rcall	.-1132   	; 0x1534 <vPortYield>
    19a0:	02 c0       	rjmp	.+4      	; 0x19a6 <xQueueGenericSend+0x78>
    19a2:	81 11       	cpse	r24, r1
    19a4:	c7 dd       	rcall	.-1138   	; 0x1534 <vPortYield>
    19a6:	0f 90       	pop	r0
    19a8:	0f be       	out	0x3f, r0	; 63
    19aa:	81 e0       	ldi	r24, 0x01	; 1
    19ac:	51 c0       	rjmp	.+162    	; 0x1a50 <xQueueGenericSend+0x122>
    19ae:	8e 81       	ldd	r24, Y+6	; 0x06
    19b0:	9f 81       	ldd	r25, Y+7	; 0x07
    19b2:	a8 85       	ldd	r26, Y+8	; 0x08
    19b4:	b9 85       	ldd	r27, Y+9	; 0x09
    19b6:	89 2b       	or	r24, r25
    19b8:	8a 2b       	or	r24, r26
    19ba:	8b 2b       	or	r24, r27
    19bc:	21 f4       	brne	.+8      	; 0x19c6 <xQueueGenericSend+0x98>
    19be:	0f 90       	pop	r0
    19c0:	0f be       	out	0x3f, r0	; 63
    19c2:	80 e0       	ldi	r24, 0x00	; 0
    19c4:	45 c0       	rjmp	.+138    	; 0x1a50 <xQueueGenericSend+0x122>
    19c6:	11 11       	cpse	r17, r1
    19c8:	05 c0       	rjmp	.+10     	; 0x19d4 <xQueueGenericSend+0xa6>
    19ca:	ce 01       	movw	r24, r28
    19cc:	01 96       	adiw	r24, 0x01	; 1
    19ce:	0e 94 1e 18 	call	0x303c	; 0x303c <vTaskInternalSetTimeOutState>
    19d2:	19 2d       	mov	r17, r9
    19d4:	0f 90       	pop	r0
    19d6:	0f be       	out	0x3f, r0	; 63
    19d8:	5e d7       	rcall	.+3772   	; 0x2896 <vTaskSuspendAll>
    19da:	0f b6       	in	r0, 0x3f	; 63
    19dc:	f8 94       	cli
    19de:	0f 92       	push	r0
    19e0:	f7 01       	movw	r30, r14
    19e2:	81 a1       	ldd	r24, Z+33	; 0x21
    19e4:	8f 3f       	cpi	r24, 0xFF	; 255
    19e6:	09 f4       	brne	.+2      	; 0x19ea <xQueueGenericSend+0xbc>
    19e8:	11 a2       	std	Z+33, r1	; 0x21
    19ea:	f7 01       	movw	r30, r14
    19ec:	82 a1       	ldd	r24, Z+34	; 0x22
    19ee:	8f 3f       	cpi	r24, 0xFF	; 255
    19f0:	09 f4       	brne	.+2      	; 0x19f4 <xQueueGenericSend+0xc6>
    19f2:	12 a2       	std	Z+34, r1	; 0x22
    19f4:	0f 90       	pop	r0
    19f6:	0f be       	out	0x3f, r0	; 63
    19f8:	be 01       	movw	r22, r28
    19fa:	6a 5f       	subi	r22, 0xFA	; 250
    19fc:	7f 4f       	sbci	r23, 0xFF	; 255
    19fe:	ce 01       	movw	r24, r28
    1a00:	01 96       	adiw	r24, 0x01	; 1
    1a02:	0e 94 2f 18 	call	0x305e	; 0x305e <xTaskCheckForTimeOut>
    1a06:	81 11       	cpse	r24, r1
    1a08:	1e c0       	rjmp	.+60     	; 0x1a46 <xQueueGenericSend+0x118>
    1a0a:	0f b6       	in	r0, 0x3f	; 63
    1a0c:	f8 94       	cli
    1a0e:	0f 92       	push	r0
    1a10:	f7 01       	movw	r30, r14
    1a12:	96 8d       	ldd	r25, Z+30	; 0x1e
    1a14:	87 8d       	ldd	r24, Z+31	; 0x1f
    1a16:	0f 90       	pop	r0
    1a18:	0f be       	out	0x3f, r0	; 63
    1a1a:	98 13       	cpse	r25, r24
    1a1c:	0f c0       	rjmp	.+30     	; 0x1a3c <xQueueGenericSend+0x10e>
    1a1e:	4e 81       	ldd	r20, Y+6	; 0x06
    1a20:	5f 81       	ldd	r21, Y+7	; 0x07
    1a22:	68 85       	ldd	r22, Y+8	; 0x08
    1a24:	79 85       	ldd	r23, Y+9	; 0x09
    1a26:	c6 01       	movw	r24, r12
    1a28:	0e 94 ff 16 	call	0x2dfe	; 0x2dfe <vTaskPlaceOnEventList>
    1a2c:	c7 01       	movw	r24, r14
    1a2e:	ce de       	rcall	.-612    	; 0x17cc <prvUnlockQueue>
    1a30:	0e 94 8f 15 	call	0x2b1e	; 0x2b1e <xTaskResumeAll>
    1a34:	81 11       	cpse	r24, r1
    1a36:	9b cf       	rjmp	.-202    	; 0x196e <xQueueGenericSend+0x40>
    1a38:	7d dd       	rcall	.-1286   	; 0x1534 <vPortYield>
    1a3a:	99 cf       	rjmp	.-206    	; 0x196e <xQueueGenericSend+0x40>
    1a3c:	c7 01       	movw	r24, r14
    1a3e:	c6 de       	rcall	.-628    	; 0x17cc <prvUnlockQueue>
    1a40:	0e 94 8f 15 	call	0x2b1e	; 0x2b1e <xTaskResumeAll>
    1a44:	94 cf       	rjmp	.-216    	; 0x196e <xQueueGenericSend+0x40>
    1a46:	c7 01       	movw	r24, r14
    1a48:	c1 de       	rcall	.-638    	; 0x17cc <prvUnlockQueue>
    1a4a:	0e 94 8f 15 	call	0x2b1e	; 0x2b1e <xTaskResumeAll>
    1a4e:	80 e0       	ldi	r24, 0x00	; 0
    1a50:	29 96       	adiw	r28, 0x09	; 9
    1a52:	0f b6       	in	r0, 0x3f	; 63
    1a54:	f8 94       	cli
    1a56:	de bf       	out	0x3e, r29	; 62
    1a58:	0f be       	out	0x3f, r0	; 63
    1a5a:	cd bf       	out	0x3d, r28	; 61
    1a5c:	df 91       	pop	r29
    1a5e:	cf 91       	pop	r28
    1a60:	1f 91       	pop	r17
    1a62:	0f 91       	pop	r16
    1a64:	ff 90       	pop	r15
    1a66:	ef 90       	pop	r14
    1a68:	df 90       	pop	r13
    1a6a:	cf 90       	pop	r12
    1a6c:	bf 90       	pop	r11
    1a6e:	af 90       	pop	r10
    1a70:	9f 90       	pop	r9
    1a72:	08 95       	ret

00001a74 <xQueueGenericSendFromISR>:
    1a74:	ef 92       	push	r14
    1a76:	ff 92       	push	r15
    1a78:	0f 93       	push	r16
    1a7a:	1f 93       	push	r17
    1a7c:	cf 93       	push	r28
    1a7e:	df 93       	push	r29
    1a80:	8a 01       	movw	r16, r20
    1a82:	fc 01       	movw	r30, r24
    1a84:	56 8d       	ldd	r21, Z+30	; 0x1e
    1a86:	37 8d       	ldd	r19, Z+31	; 0x1f
    1a88:	53 17       	cp	r21, r19
    1a8a:	10 f0       	brcs	.+4      	; 0x1a90 <xQueueGenericSendFromISR+0x1c>
    1a8c:	22 30       	cpi	r18, 0x02	; 2
    1a8e:	f9 f4       	brne	.+62     	; 0x1ace <xQueueGenericSendFromISR+0x5a>
    1a90:	42 2f       	mov	r20, r18
    1a92:	78 01       	movw	r14, r16
    1a94:	ec 01       	movw	r28, r24
    1a96:	1a a1       	ldd	r17, Y+34	; 0x22
    1a98:	8e 8d       	ldd	r24, Y+30	; 0x1e
    1a9a:	ce 01       	movw	r24, r28
    1a9c:	1e de       	rcall	.-964    	; 0x16da <prvCopyDataToQueue>
    1a9e:	1f 3f       	cpi	r17, 0xFF	; 255
    1aa0:	81 f4       	brne	.+32     	; 0x1ac2 <xQueueGenericSendFromISR+0x4e>
    1aa2:	8b 89       	ldd	r24, Y+19	; 0x13
    1aa4:	88 23       	and	r24, r24
    1aa6:	a9 f0       	breq	.+42     	; 0x1ad2 <xQueueGenericSendFromISR+0x5e>
    1aa8:	ce 01       	movw	r24, r28
    1aaa:	43 96       	adiw	r24, 0x13	; 19
    1aac:	0e 94 58 17 	call	0x2eb0	; 0x2eb0 <xTaskRemoveFromEventList>
    1ab0:	88 23       	and	r24, r24
    1ab2:	89 f0       	breq	.+34     	; 0x1ad6 <xQueueGenericSendFromISR+0x62>
    1ab4:	e1 14       	cp	r14, r1
    1ab6:	f1 04       	cpc	r15, r1
    1ab8:	81 f0       	breq	.+32     	; 0x1ada <xQueueGenericSendFromISR+0x66>
    1aba:	81 e0       	ldi	r24, 0x01	; 1
    1abc:	f7 01       	movw	r30, r14
    1abe:	80 83       	st	Z, r24
    1ac0:	0d c0       	rjmp	.+26     	; 0x1adc <xQueueGenericSendFromISR+0x68>
    1ac2:	ff 24       	eor	r15, r15
    1ac4:	f3 94       	inc	r15
    1ac6:	f1 0e       	add	r15, r17
    1ac8:	fa a2       	std	Y+34, r15	; 0x22
    1aca:	81 e0       	ldi	r24, 0x01	; 1
    1acc:	07 c0       	rjmp	.+14     	; 0x1adc <xQueueGenericSendFromISR+0x68>
    1ace:	80 e0       	ldi	r24, 0x00	; 0
    1ad0:	05 c0       	rjmp	.+10     	; 0x1adc <xQueueGenericSendFromISR+0x68>
    1ad2:	81 e0       	ldi	r24, 0x01	; 1
    1ad4:	03 c0       	rjmp	.+6      	; 0x1adc <xQueueGenericSendFromISR+0x68>
    1ad6:	81 e0       	ldi	r24, 0x01	; 1
    1ad8:	01 c0       	rjmp	.+2      	; 0x1adc <xQueueGenericSendFromISR+0x68>
    1ada:	81 e0       	ldi	r24, 0x01	; 1
    1adc:	df 91       	pop	r29
    1ade:	cf 91       	pop	r28
    1ae0:	1f 91       	pop	r17
    1ae2:	0f 91       	pop	r16
    1ae4:	ff 90       	pop	r15
    1ae6:	ef 90       	pop	r14
    1ae8:	08 95       	ret

00001aea <xQueueReceive>:
    1aea:	9f 92       	push	r9
    1aec:	af 92       	push	r10
    1aee:	bf 92       	push	r11
    1af0:	cf 92       	push	r12
    1af2:	df 92       	push	r13
    1af4:	ef 92       	push	r14
    1af6:	ff 92       	push	r15
    1af8:	0f 93       	push	r16
    1afa:	1f 93       	push	r17
    1afc:	cf 93       	push	r28
    1afe:	df 93       	push	r29
    1b00:	cd b7       	in	r28, 0x3d	; 61
    1b02:	de b7       	in	r29, 0x3e	; 62
    1b04:	29 97       	sbiw	r28, 0x09	; 9
    1b06:	0f b6       	in	r0, 0x3f	; 63
    1b08:	f8 94       	cli
    1b0a:	de bf       	out	0x3e, r29	; 62
    1b0c:	0f be       	out	0x3f, r0	; 63
    1b0e:	cd bf       	out	0x3d, r28	; 61
    1b10:	8c 01       	movw	r16, r24
    1b12:	5b 01       	movw	r10, r22
    1b14:	2e 83       	std	Y+6, r18	; 0x06
    1b16:	3f 83       	std	Y+7, r19	; 0x07
    1b18:	48 87       	std	Y+8, r20	; 0x08
    1b1a:	59 87       	std	Y+9, r21	; 0x09
    1b1c:	e1 2c       	mov	r14, r1
    1b1e:	99 24       	eor	r9, r9
    1b20:	93 94       	inc	r9
    1b22:	6c 01       	movw	r12, r24
    1b24:	83 e1       	ldi	r24, 0x13	; 19
    1b26:	c8 0e       	add	r12, r24
    1b28:	d1 1c       	adc	r13, r1
    1b2a:	0f b6       	in	r0, 0x3f	; 63
    1b2c:	f8 94       	cli
    1b2e:	0f 92       	push	r0
    1b30:	f8 01       	movw	r30, r16
    1b32:	f6 8c       	ldd	r15, Z+30	; 0x1e
    1b34:	ff 20       	and	r15, r15
    1b36:	99 f0       	breq	.+38     	; 0x1b5e <xQueueReceive+0x74>
    1b38:	b5 01       	movw	r22, r10
    1b3a:	c8 01       	movw	r24, r16
    1b3c:	2d de       	rcall	.-934    	; 0x1798 <prvCopyDataFromQueue>
    1b3e:	fa 94       	dec	r15
    1b40:	f8 01       	movw	r30, r16
    1b42:	f6 8e       	std	Z+30, r15	; 0x1e
    1b44:	80 85       	ldd	r24, Z+8	; 0x08
    1b46:	88 23       	and	r24, r24
    1b48:	31 f0       	breq	.+12     	; 0x1b56 <xQueueReceive+0x6c>
    1b4a:	c8 01       	movw	r24, r16
    1b4c:	08 96       	adiw	r24, 0x08	; 8
    1b4e:	0e 94 58 17 	call	0x2eb0	; 0x2eb0 <xTaskRemoveFromEventList>
    1b52:	81 11       	cpse	r24, r1
    1b54:	ef dc       	rcall	.-1570   	; 0x1534 <vPortYield>
    1b56:	0f 90       	pop	r0
    1b58:	0f be       	out	0x3f, r0	; 63
    1b5a:	81 e0       	ldi	r24, 0x01	; 1
    1b5c:	4d c0       	rjmp	.+154    	; 0x1bf8 <xQueueReceive+0x10e>
    1b5e:	8e 81       	ldd	r24, Y+6	; 0x06
    1b60:	9f 81       	ldd	r25, Y+7	; 0x07
    1b62:	a8 85       	ldd	r26, Y+8	; 0x08
    1b64:	b9 85       	ldd	r27, Y+9	; 0x09
    1b66:	89 2b       	or	r24, r25
    1b68:	8a 2b       	or	r24, r26
    1b6a:	8b 2b       	or	r24, r27
    1b6c:	21 f4       	brne	.+8      	; 0x1b76 <xQueueReceive+0x8c>
    1b6e:	0f 90       	pop	r0
    1b70:	0f be       	out	0x3f, r0	; 63
    1b72:	80 e0       	ldi	r24, 0x00	; 0
    1b74:	41 c0       	rjmp	.+130    	; 0x1bf8 <xQueueReceive+0x10e>
    1b76:	e1 10       	cpse	r14, r1
    1b78:	05 c0       	rjmp	.+10     	; 0x1b84 <xQueueReceive+0x9a>
    1b7a:	ce 01       	movw	r24, r28
    1b7c:	01 96       	adiw	r24, 0x01	; 1
    1b7e:	0e 94 1e 18 	call	0x303c	; 0x303c <vTaskInternalSetTimeOutState>
    1b82:	e9 2c       	mov	r14, r9
    1b84:	0f 90       	pop	r0
    1b86:	0f be       	out	0x3f, r0	; 63
    1b88:	86 d6       	rcall	.+3340   	; 0x2896 <vTaskSuspendAll>
    1b8a:	0f b6       	in	r0, 0x3f	; 63
    1b8c:	f8 94       	cli
    1b8e:	0f 92       	push	r0
    1b90:	f8 01       	movw	r30, r16
    1b92:	81 a1       	ldd	r24, Z+33	; 0x21
    1b94:	8f 3f       	cpi	r24, 0xFF	; 255
    1b96:	09 f4       	brne	.+2      	; 0x1b9a <xQueueReceive+0xb0>
    1b98:	11 a2       	std	Z+33, r1	; 0x21
    1b9a:	f8 01       	movw	r30, r16
    1b9c:	82 a1       	ldd	r24, Z+34	; 0x22
    1b9e:	8f 3f       	cpi	r24, 0xFF	; 255
    1ba0:	09 f4       	brne	.+2      	; 0x1ba4 <xQueueReceive+0xba>
    1ba2:	12 a2       	std	Z+34, r1	; 0x22
    1ba4:	0f 90       	pop	r0
    1ba6:	0f be       	out	0x3f, r0	; 63
    1ba8:	be 01       	movw	r22, r28
    1baa:	6a 5f       	subi	r22, 0xFA	; 250
    1bac:	7f 4f       	sbci	r23, 0xFF	; 255
    1bae:	ce 01       	movw	r24, r28
    1bb0:	01 96       	adiw	r24, 0x01	; 1
    1bb2:	0e 94 2f 18 	call	0x305e	; 0x305e <xTaskCheckForTimeOut>
    1bb6:	81 11       	cpse	r24, r1
    1bb8:	16 c0       	rjmp	.+44     	; 0x1be6 <xQueueReceive+0xfc>
    1bba:	c8 01       	movw	r24, r16
    1bbc:	83 dd       	rcall	.-1274   	; 0x16c4 <prvIsQueueEmpty>
    1bbe:	88 23       	and	r24, r24
    1bc0:	71 f0       	breq	.+28     	; 0x1bde <xQueueReceive+0xf4>
    1bc2:	4e 81       	ldd	r20, Y+6	; 0x06
    1bc4:	5f 81       	ldd	r21, Y+7	; 0x07
    1bc6:	68 85       	ldd	r22, Y+8	; 0x08
    1bc8:	79 85       	ldd	r23, Y+9	; 0x09
    1bca:	c6 01       	movw	r24, r12
    1bcc:	0e 94 ff 16 	call	0x2dfe	; 0x2dfe <vTaskPlaceOnEventList>
    1bd0:	c8 01       	movw	r24, r16
    1bd2:	fc dd       	rcall	.-1032   	; 0x17cc <prvUnlockQueue>
    1bd4:	a4 d7       	rcall	.+3912   	; 0x2b1e <xTaskResumeAll>
    1bd6:	81 11       	cpse	r24, r1
    1bd8:	a8 cf       	rjmp	.-176    	; 0x1b2a <xQueueReceive+0x40>
    1bda:	ac dc       	rcall	.-1704   	; 0x1534 <vPortYield>
    1bdc:	a6 cf       	rjmp	.-180    	; 0x1b2a <xQueueReceive+0x40>
    1bde:	c8 01       	movw	r24, r16
    1be0:	f5 dd       	rcall	.-1046   	; 0x17cc <prvUnlockQueue>
    1be2:	9d d7       	rcall	.+3898   	; 0x2b1e <xTaskResumeAll>
    1be4:	a2 cf       	rjmp	.-188    	; 0x1b2a <xQueueReceive+0x40>
    1be6:	c8 01       	movw	r24, r16
    1be8:	f1 dd       	rcall	.-1054   	; 0x17cc <prvUnlockQueue>
    1bea:	99 d7       	rcall	.+3890   	; 0x2b1e <xTaskResumeAll>
    1bec:	c8 01       	movw	r24, r16
    1bee:	6a dd       	rcall	.-1324   	; 0x16c4 <prvIsQueueEmpty>
    1bf0:	88 23       	and	r24, r24
    1bf2:	09 f4       	brne	.+2      	; 0x1bf6 <xQueueReceive+0x10c>
    1bf4:	9a cf       	rjmp	.-204    	; 0x1b2a <xQueueReceive+0x40>
    1bf6:	80 e0       	ldi	r24, 0x00	; 0
    1bf8:	29 96       	adiw	r28, 0x09	; 9
    1bfa:	0f b6       	in	r0, 0x3f	; 63
    1bfc:	f8 94       	cli
    1bfe:	de bf       	out	0x3e, r29	; 62
    1c00:	0f be       	out	0x3f, r0	; 63
    1c02:	cd bf       	out	0x3d, r28	; 61
    1c04:	df 91       	pop	r29
    1c06:	cf 91       	pop	r28
    1c08:	1f 91       	pop	r17
    1c0a:	0f 91       	pop	r16
    1c0c:	ff 90       	pop	r15
    1c0e:	ef 90       	pop	r14
    1c10:	df 90       	pop	r13
    1c12:	cf 90       	pop	r12
    1c14:	bf 90       	pop	r11
    1c16:	af 90       	pop	r10
    1c18:	9f 90       	pop	r9
    1c1a:	08 95       	ret

00001c1c <xQueueSemaphoreTake>:
    1c1c:	bf 92       	push	r11
    1c1e:	cf 92       	push	r12
    1c20:	df 92       	push	r13
    1c22:	ef 92       	push	r14
    1c24:	ff 92       	push	r15
    1c26:	0f 93       	push	r16
    1c28:	1f 93       	push	r17
    1c2a:	cf 93       	push	r28
    1c2c:	df 93       	push	r29
    1c2e:	cd b7       	in	r28, 0x3d	; 61
    1c30:	de b7       	in	r29, 0x3e	; 62
    1c32:	29 97       	sbiw	r28, 0x09	; 9
    1c34:	0f b6       	in	r0, 0x3f	; 63
    1c36:	f8 94       	cli
    1c38:	de bf       	out	0x3e, r29	; 62
    1c3a:	0f be       	out	0x3f, r0	; 63
    1c3c:	cd bf       	out	0x3d, r28	; 61
    1c3e:	8c 01       	movw	r16, r24
    1c40:	4e 83       	std	Y+6, r20	; 0x06
    1c42:	5f 83       	std	Y+7, r21	; 0x07
    1c44:	68 87       	std	Y+8, r22	; 0x08
    1c46:	79 87       	std	Y+9, r23	; 0x09
    1c48:	b1 2c       	mov	r11, r1
    1c4a:	d1 2c       	mov	r13, r1
    1c4c:	cc 24       	eor	r12, r12
    1c4e:	c3 94       	inc	r12
    1c50:	7c 01       	movw	r14, r24
    1c52:	83 e1       	ldi	r24, 0x13	; 19
    1c54:	e8 0e       	add	r14, r24
    1c56:	f1 1c       	adc	r15, r1
    1c58:	0f b6       	in	r0, 0x3f	; 63
    1c5a:	f8 94       	cli
    1c5c:	0f 92       	push	r0
    1c5e:	d8 01       	movw	r26, r16
    1c60:	5e 96       	adiw	r26, 0x1e	; 30
    1c62:	8c 91       	ld	r24, X
    1c64:	5e 97       	sbiw	r26, 0x1e	; 30
    1c66:	88 23       	and	r24, r24
    1c68:	e1 f0       	breq	.+56     	; 0x1ca2 <xQueueSemaphoreTake+0x86>
    1c6a:	81 50       	subi	r24, 0x01	; 1
    1c6c:	5e 96       	adiw	r26, 0x1e	; 30
    1c6e:	8c 93       	st	X, r24
    1c70:	5e 97       	sbiw	r26, 0x1e	; 30
    1c72:	8d 91       	ld	r24, X+
    1c74:	9c 91       	ld	r25, X
    1c76:	89 2b       	or	r24, r25
    1c78:	29 f4       	brne	.+10     	; 0x1c84 <xQueueSemaphoreTake+0x68>
    1c7a:	0e 94 e8 19 	call	0x33d0	; 0x33d0 <pvTaskIncrementMutexHeldCount>
    1c7e:	f8 01       	movw	r30, r16
    1c80:	95 83       	std	Z+5, r25	; 0x05
    1c82:	84 83       	std	Z+4, r24	; 0x04
    1c84:	d8 01       	movw	r26, r16
    1c86:	18 96       	adiw	r26, 0x08	; 8
    1c88:	8c 91       	ld	r24, X
    1c8a:	88 23       	and	r24, r24
    1c8c:	31 f0       	breq	.+12     	; 0x1c9a <xQueueSemaphoreTake+0x7e>
    1c8e:	c8 01       	movw	r24, r16
    1c90:	08 96       	adiw	r24, 0x08	; 8
    1c92:	0e 94 58 17 	call	0x2eb0	; 0x2eb0 <xTaskRemoveFromEventList>
    1c96:	81 11       	cpse	r24, r1
    1c98:	4d dc       	rcall	.-1894   	; 0x1534 <vPortYield>
    1c9a:	0f 90       	pop	r0
    1c9c:	0f be       	out	0x3f, r0	; 63
    1c9e:	81 e0       	ldi	r24, 0x01	; 1
    1ca0:	7b c0       	rjmp	.+246    	; 0x1d98 <xQueueSemaphoreTake+0x17c>
    1ca2:	8e 81       	ldd	r24, Y+6	; 0x06
    1ca4:	9f 81       	ldd	r25, Y+7	; 0x07
    1ca6:	a8 85       	ldd	r26, Y+8	; 0x08
    1ca8:	b9 85       	ldd	r27, Y+9	; 0x09
    1caa:	89 2b       	or	r24, r25
    1cac:	8a 2b       	or	r24, r26
    1cae:	8b 2b       	or	r24, r27
    1cb0:	21 f4       	brne	.+8      	; 0x1cba <xQueueSemaphoreTake+0x9e>
    1cb2:	0f 90       	pop	r0
    1cb4:	0f be       	out	0x3f, r0	; 63
    1cb6:	80 e0       	ldi	r24, 0x00	; 0
    1cb8:	6f c0       	rjmp	.+222    	; 0x1d98 <xQueueSemaphoreTake+0x17c>
    1cba:	d1 10       	cpse	r13, r1
    1cbc:	05 c0       	rjmp	.+10     	; 0x1cc8 <xQueueSemaphoreTake+0xac>
    1cbe:	ce 01       	movw	r24, r28
    1cc0:	01 96       	adiw	r24, 0x01	; 1
    1cc2:	0e 94 1e 18 	call	0x303c	; 0x303c <vTaskInternalSetTimeOutState>
    1cc6:	dc 2c       	mov	r13, r12
    1cc8:	0f 90       	pop	r0
    1cca:	0f be       	out	0x3f, r0	; 63
    1ccc:	e4 d5       	rcall	.+3016   	; 0x2896 <vTaskSuspendAll>
    1cce:	0f b6       	in	r0, 0x3f	; 63
    1cd0:	f8 94       	cli
    1cd2:	0f 92       	push	r0
    1cd4:	f8 01       	movw	r30, r16
    1cd6:	81 a1       	ldd	r24, Z+33	; 0x21
    1cd8:	8f 3f       	cpi	r24, 0xFF	; 255
    1cda:	09 f4       	brne	.+2      	; 0x1cde <xQueueSemaphoreTake+0xc2>
    1cdc:	11 a2       	std	Z+33, r1	; 0x21
    1cde:	d8 01       	movw	r26, r16
    1ce0:	92 96       	adiw	r26, 0x22	; 34
    1ce2:	8c 91       	ld	r24, X
    1ce4:	92 97       	sbiw	r26, 0x22	; 34
    1ce6:	8f 3f       	cpi	r24, 0xFF	; 255
    1ce8:	11 f4       	brne	.+4      	; 0x1cee <xQueueSemaphoreTake+0xd2>
    1cea:	92 96       	adiw	r26, 0x22	; 34
    1cec:	1c 92       	st	X, r1
    1cee:	0f 90       	pop	r0
    1cf0:	0f be       	out	0x3f, r0	; 63
    1cf2:	be 01       	movw	r22, r28
    1cf4:	6a 5f       	subi	r22, 0xFA	; 250
    1cf6:	7f 4f       	sbci	r23, 0xFF	; 255
    1cf8:	ce 01       	movw	r24, r28
    1cfa:	01 96       	adiw	r24, 0x01	; 1
    1cfc:	0e 94 2f 18 	call	0x305e	; 0x305e <xTaskCheckForTimeOut>
    1d00:	81 11       	cpse	r24, r1
    1d02:	25 c0       	rjmp	.+74     	; 0x1d4e <xQueueSemaphoreTake+0x132>
    1d04:	c8 01       	movw	r24, r16
    1d06:	de dc       	rcall	.-1604   	; 0x16c4 <prvIsQueueEmpty>
    1d08:	88 23       	and	r24, r24
    1d0a:	e9 f0       	breq	.+58     	; 0x1d46 <xQueueSemaphoreTake+0x12a>
    1d0c:	f8 01       	movw	r30, r16
    1d0e:	80 81       	ld	r24, Z
    1d10:	91 81       	ldd	r25, Z+1	; 0x01
    1d12:	89 2b       	or	r24, r25
    1d14:	51 f4       	brne	.+20     	; 0x1d2a <xQueueSemaphoreTake+0x10e>
    1d16:	0f b6       	in	r0, 0x3f	; 63
    1d18:	f8 94       	cli
    1d1a:	0f 92       	push	r0
    1d1c:	84 81       	ldd	r24, Z+4	; 0x04
    1d1e:	95 81       	ldd	r25, Z+5	; 0x05
    1d20:	0e 94 9f 18 	call	0x313e	; 0x313e <xTaskPriorityInherit>
    1d24:	b8 2e       	mov	r11, r24
    1d26:	0f 90       	pop	r0
    1d28:	0f be       	out	0x3f, r0	; 63
    1d2a:	4e 81       	ldd	r20, Y+6	; 0x06
    1d2c:	5f 81       	ldd	r21, Y+7	; 0x07
    1d2e:	68 85       	ldd	r22, Y+8	; 0x08
    1d30:	79 85       	ldd	r23, Y+9	; 0x09
    1d32:	c7 01       	movw	r24, r14
    1d34:	0e 94 ff 16 	call	0x2dfe	; 0x2dfe <vTaskPlaceOnEventList>
    1d38:	c8 01       	movw	r24, r16
    1d3a:	48 dd       	rcall	.-1392   	; 0x17cc <prvUnlockQueue>
    1d3c:	f0 d6       	rcall	.+3552   	; 0x2b1e <xTaskResumeAll>
    1d3e:	81 11       	cpse	r24, r1
    1d40:	8b cf       	rjmp	.-234    	; 0x1c58 <xQueueSemaphoreTake+0x3c>
    1d42:	f8 db       	rcall	.-2064   	; 0x1534 <vPortYield>
    1d44:	89 cf       	rjmp	.-238    	; 0x1c58 <xQueueSemaphoreTake+0x3c>
    1d46:	c8 01       	movw	r24, r16
    1d48:	41 dd       	rcall	.-1406   	; 0x17cc <prvUnlockQueue>
    1d4a:	e9 d6       	rcall	.+3538   	; 0x2b1e <xTaskResumeAll>
    1d4c:	85 cf       	rjmp	.-246    	; 0x1c58 <xQueueSemaphoreTake+0x3c>
    1d4e:	c8 01       	movw	r24, r16
    1d50:	3d dd       	rcall	.-1414   	; 0x17cc <prvUnlockQueue>
    1d52:	e5 d6       	rcall	.+3530   	; 0x2b1e <xTaskResumeAll>
    1d54:	c8 01       	movw	r24, r16
    1d56:	b6 dc       	rcall	.-1684   	; 0x16c4 <prvIsQueueEmpty>
    1d58:	88 23       	and	r24, r24
    1d5a:	09 f4       	brne	.+2      	; 0x1d5e <xQueueSemaphoreTake+0x142>
    1d5c:	7d cf       	rjmp	.-262    	; 0x1c58 <xQueueSemaphoreTake+0x3c>
    1d5e:	bb 20       	and	r11, r11
    1d60:	d1 f0       	breq	.+52     	; 0x1d96 <xQueueSemaphoreTake+0x17a>
    1d62:	0f b6       	in	r0, 0x3f	; 63
    1d64:	f8 94       	cli
    1d66:	0f 92       	push	r0
    1d68:	f8 01       	movw	r30, r16
    1d6a:	83 89       	ldd	r24, Z+19	; 0x13
    1d6c:	88 23       	and	r24, r24
    1d6e:	39 f0       	breq	.+14     	; 0x1d7e <xQueueSemaphoreTake+0x162>
    1d70:	02 8c       	ldd	r0, Z+26	; 0x1a
    1d72:	f3 8d       	ldd	r31, Z+27	; 0x1b
    1d74:	e0 2d       	mov	r30, r0
    1d76:	80 81       	ld	r24, Z
    1d78:	6a e0       	ldi	r22, 0x0A	; 10
    1d7a:	68 1b       	sub	r22, r24
    1d7c:	01 c0       	rjmp	.+2      	; 0x1d80 <xQueueSemaphoreTake+0x164>
    1d7e:	60 e0       	ldi	r22, 0x00	; 0
    1d80:	d8 01       	movw	r26, r16
    1d82:	14 96       	adiw	r26, 0x04	; 4
    1d84:	8d 91       	ld	r24, X+
    1d86:	9c 91       	ld	r25, X
    1d88:	15 97       	sbiw	r26, 0x05	; 5
    1d8a:	0e 94 81 19 	call	0x3302	; 0x3302 <vTaskPriorityDisinheritAfterTimeout>
    1d8e:	0f 90       	pop	r0
    1d90:	0f be       	out	0x3f, r0	; 63
    1d92:	80 e0       	ldi	r24, 0x00	; 0
    1d94:	01 c0       	rjmp	.+2      	; 0x1d98 <xQueueSemaphoreTake+0x17c>
    1d96:	80 e0       	ldi	r24, 0x00	; 0
    1d98:	29 96       	adiw	r28, 0x09	; 9
    1d9a:	0f b6       	in	r0, 0x3f	; 63
    1d9c:	f8 94       	cli
    1d9e:	de bf       	out	0x3e, r29	; 62
    1da0:	0f be       	out	0x3f, r0	; 63
    1da2:	cd bf       	out	0x3d, r28	; 61
    1da4:	df 91       	pop	r29
    1da6:	cf 91       	pop	r28
    1da8:	1f 91       	pop	r17
    1daa:	0f 91       	pop	r16
    1dac:	ff 90       	pop	r15
    1dae:	ef 90       	pop	r14
    1db0:	df 90       	pop	r13
    1db2:	cf 90       	pop	r12
    1db4:	bf 90       	pop	r11
    1db6:	08 95       	ret

00001db8 <vQueueWaitForMessageRestricted>:
#if ( configUSE_TIMERS == 1 )

    void vQueueWaitForMessageRestricted( QueueHandle_t xQueue,
                                         TickType_t xTicksToWait,
                                         const BaseType_t xWaitIndefinitely )
    {
    1db8:	cf 93       	push	r28
    1dba:	df 93       	push	r29
    1dbc:	ec 01       	movw	r28, r24
         *  will not actually cause the task to block, just place it on a blocked
         *  list.  It will not block until the scheduler is unlocked - at which
         *  time a yield will be performed.  If an item is added to the queue while
         *  the queue is locked, and the calling task blocks on the queue, then the
         *  calling task will be immediately unblocked when the queue is unlocked. */
        prvLockQueue( pxQueue );
    1dbe:	0f b6       	in	r0, 0x3f	; 63
    1dc0:	f8 94       	cli
    1dc2:	0f 92       	push	r0
    1dc4:	89 a1       	ldd	r24, Y+33	; 0x21
    1dc6:	8f 3f       	cpi	r24, 0xFF	; 255
    1dc8:	09 f4       	brne	.+2      	; 0x1dcc <vQueueWaitForMessageRestricted+0x14>
    1dca:	19 a2       	std	Y+33, r1	; 0x21
    1dcc:	8a a1       	ldd	r24, Y+34	; 0x22
    1dce:	8f 3f       	cpi	r24, 0xFF	; 255
    1dd0:	09 f4       	brne	.+2      	; 0x1dd4 <vQueueWaitForMessageRestricted+0x1c>
    1dd2:	1a a2       	std	Y+34, r1	; 0x22
    1dd4:	0f 90       	pop	r0
    1dd6:	0f be       	out	0x3f, r0	; 63

        if( pxQueue->uxMessagesWaiting == ( UBaseType_t ) 0U )
    1dd8:	8e 8d       	ldd	r24, Y+30	; 0x1e
    1dda:	81 11       	cpse	r24, r1
    1ddc:	04 c0       	rjmp	.+8      	; 0x1de6 <vQueueWaitForMessageRestricted+0x2e>
        {
            /* There is nothing in the queue, block for the specified period. */
            vTaskPlaceOnEventListRestricted( &( pxQueue->xTasksWaitingToReceive ), xTicksToWait, xWaitIndefinitely );
    1dde:	ce 01       	movw	r24, r28
    1de0:	43 96       	adiw	r24, 0x13	; 19
    1de2:	0e 94 16 17 	call	0x2e2c	; 0x2e2c <vTaskPlaceOnEventListRestricted>
        else
        {
            mtCOVERAGE_TEST_MARKER();
        }

        prvUnlockQueue( pxQueue );
    1de6:	ce 01       	movw	r24, r28
    1de8:	f1 dc       	rcall	.-1566   	; 0x17cc <prvUnlockQueue>
    }
    1dea:	df 91       	pop	r29
    1dec:	cf 91       	pop	r28
    1dee:	08 95       	ret

00001df0 <prvBytesInBuffer>:

    configASSERT( pxStreamBuffer );

    xReturn = prvBytesInBuffer( pxStreamBuffer );
    return xReturn;
}
    1df0:	fc 01       	movw	r30, r24
    1df2:	44 81       	ldd	r20, Z+4	; 0x04
    1df4:	55 81       	ldd	r21, Z+5	; 0x05
    1df6:	22 81       	ldd	r18, Z+2	; 0x02
    1df8:	33 81       	ldd	r19, Z+3	; 0x03
    1dfa:	24 0f       	add	r18, r20
    1dfc:	35 1f       	adc	r19, r21
    1dfe:	80 81       	ld	r24, Z
    1e00:	91 81       	ldd	r25, Z+1	; 0x01
    1e02:	b9 01       	movw	r22, r18
    1e04:	68 1b       	sub	r22, r24
    1e06:	79 0b       	sbc	r23, r25
    1e08:	cb 01       	movw	r24, r22
    1e0a:	64 17       	cp	r22, r20
    1e0c:	75 07       	cpc	r23, r21
    1e0e:	10 f0       	brcs	.+4      	; 0x1e14 <prvBytesInBuffer+0x24>
    1e10:	84 1b       	sub	r24, r20
    1e12:	95 0b       	sbc	r25, r21
    1e14:	08 95       	ret

00001e16 <prvWriteBytesToBuffer>:
    1e16:	af 92       	push	r10
    1e18:	bf 92       	push	r11
    1e1a:	cf 92       	push	r12
    1e1c:	df 92       	push	r13
    1e1e:	ef 92       	push	r14
    1e20:	ff 92       	push	r15
    1e22:	0f 93       	push	r16
    1e24:	1f 93       	push	r17
    1e26:	cf 93       	push	r28
    1e28:	df 93       	push	r29
    1e2a:	6c 01       	movw	r12, r24
    1e2c:	5b 01       	movw	r10, r22
    1e2e:	7a 01       	movw	r14, r20
    1e30:	fc 01       	movw	r30, r24
    1e32:	c2 81       	ldd	r28, Z+2	; 0x02
    1e34:	d3 81       	ldd	r29, Z+3	; 0x03
    1e36:	04 81       	ldd	r16, Z+4	; 0x04
    1e38:	15 81       	ldd	r17, Z+5	; 0x05
    1e3a:	0c 1b       	sub	r16, r28
    1e3c:	1d 0b       	sbc	r17, r29
    1e3e:	40 17       	cp	r20, r16
    1e40:	51 07       	cpc	r21, r17
    1e42:	08 f4       	brcc	.+2      	; 0x1e46 <prvWriteBytesToBuffer+0x30>
    1e44:	8a 01       	movw	r16, r20
    1e46:	f6 01       	movw	r30, r12
    1e48:	84 85       	ldd	r24, Z+12	; 0x0c
    1e4a:	95 85       	ldd	r25, Z+13	; 0x0d
    1e4c:	a8 01       	movw	r20, r16
    1e4e:	b5 01       	movw	r22, r10
    1e50:	8c 0f       	add	r24, r28
    1e52:	9d 1f       	adc	r25, r29
    1e54:	0e 94 ab 36 	call	0x6d56	; 0x6d56 <memcpy>
    1e58:	0e 15       	cp	r16, r14
    1e5a:	1f 05       	cpc	r17, r15
    1e5c:	58 f4       	brcc	.+22     	; 0x1e74 <prvWriteBytesToBuffer+0x5e>
    1e5e:	a7 01       	movw	r20, r14
    1e60:	40 1b       	sub	r20, r16
    1e62:	51 0b       	sbc	r21, r17
    1e64:	b5 01       	movw	r22, r10
    1e66:	60 0f       	add	r22, r16
    1e68:	71 1f       	adc	r23, r17
    1e6a:	f6 01       	movw	r30, r12
    1e6c:	84 85       	ldd	r24, Z+12	; 0x0c
    1e6e:	95 85       	ldd	r25, Z+13	; 0x0d
    1e70:	0e 94 ab 36 	call	0x6d56	; 0x6d56 <memcpy>
    1e74:	ce 01       	movw	r24, r28
    1e76:	8e 0d       	add	r24, r14
    1e78:	9f 1d       	adc	r25, r15
    1e7a:	f6 01       	movw	r30, r12
    1e7c:	24 81       	ldd	r18, Z+4	; 0x04
    1e7e:	35 81       	ldd	r19, Z+5	; 0x05
    1e80:	82 17       	cp	r24, r18
    1e82:	93 07       	cpc	r25, r19
    1e84:	10 f0       	brcs	.+4      	; 0x1e8a <prvWriteBytesToBuffer+0x74>
    1e86:	82 1b       	sub	r24, r18
    1e88:	93 0b       	sbc	r25, r19
    1e8a:	f6 01       	movw	r30, r12
    1e8c:	93 83       	std	Z+3, r25	; 0x03
    1e8e:	82 83       	std	Z+2, r24	; 0x02
    1e90:	c7 01       	movw	r24, r14
    1e92:	df 91       	pop	r29
    1e94:	cf 91       	pop	r28
    1e96:	1f 91       	pop	r17
    1e98:	0f 91       	pop	r16
    1e9a:	ff 90       	pop	r15
    1e9c:	ef 90       	pop	r14
    1e9e:	df 90       	pop	r13
    1ea0:	cf 90       	pop	r12
    1ea2:	bf 90       	pop	r11
    1ea4:	af 90       	pop	r10
    1ea6:	08 95       	ret

00001ea8 <prvWriteMessageToBuffer>:
    1ea8:	cf 92       	push	r12
    1eaa:	df 92       	push	r13
    1eac:	ef 92       	push	r14
    1eae:	ff 92       	push	r15
    1eb0:	0f 93       	push	r16
    1eb2:	1f 93       	push	r17
    1eb4:	cf 93       	push	r28
    1eb6:	df 93       	push	r29
    1eb8:	1f 92       	push	r1
    1eba:	1f 92       	push	r1
    1ebc:	cd b7       	in	r28, 0x3d	; 61
    1ebe:	de b7       	in	r29, 0x3e	; 62
    1ec0:	5a 83       	std	Y+2, r21	; 0x02
    1ec2:	49 83       	std	Y+1, r20	; 0x01
    1ec4:	21 15       	cp	r18, r1
    1ec6:	31 05       	cpc	r19, r1
    1ec8:	c9 f0       	breq	.+50     	; 0x1efc <prvWriteMessageToBuffer+0x54>
    1eca:	6b 01       	movw	r12, r22
    1ecc:	7c 01       	movw	r14, r24
    1ece:	fc 01       	movw	r30, r24
    1ed0:	86 85       	ldd	r24, Z+14	; 0x0e
    1ed2:	80 fd       	sbrc	r24, 0
    1ed4:	08 c0       	rjmp	.+16     	; 0x1ee6 <prvWriteMessageToBuffer+0x3e>
    1ed6:	ca 01       	movw	r24, r20
    1ed8:	24 17       	cp	r18, r20
    1eda:	35 07       	cpc	r19, r21
    1edc:	08 f4       	brcc	.+2      	; 0x1ee0 <prvWriteMessageToBuffer+0x38>
    1ede:	c9 01       	movw	r24, r18
    1ee0:	9a 83       	std	Y+2, r25	; 0x02
    1ee2:	89 83       	std	Y+1, r24	; 0x01
    1ee4:	11 c0       	rjmp	.+34     	; 0x1f08 <prvWriteMessageToBuffer+0x60>
    1ee6:	20 17       	cp	r18, r16
    1ee8:	31 07       	cpc	r19, r17
    1eea:	58 f0       	brcs	.+22     	; 0x1f02 <prvWriteMessageToBuffer+0x5a>
    1eec:	42 e0       	ldi	r20, 0x02	; 2
    1eee:	50 e0       	ldi	r21, 0x00	; 0
    1ef0:	be 01       	movw	r22, r28
    1ef2:	6f 5f       	subi	r22, 0xFF	; 255
    1ef4:	7f 4f       	sbci	r23, 0xFF	; 255
    1ef6:	c7 01       	movw	r24, r14
    1ef8:	8e df       	rcall	.-228    	; 0x1e16 <prvWriteBytesToBuffer>
    1efa:	06 c0       	rjmp	.+12     	; 0x1f08 <prvWriteMessageToBuffer+0x60>
    1efc:	80 e0       	ldi	r24, 0x00	; 0
    1efe:	90 e0       	ldi	r25, 0x00	; 0
    1f00:	08 c0       	rjmp	.+16     	; 0x1f12 <prvWriteMessageToBuffer+0x6a>
    1f02:	80 e0       	ldi	r24, 0x00	; 0
    1f04:	90 e0       	ldi	r25, 0x00	; 0
    1f06:	05 c0       	rjmp	.+10     	; 0x1f12 <prvWriteMessageToBuffer+0x6a>
    1f08:	49 81       	ldd	r20, Y+1	; 0x01
    1f0a:	5a 81       	ldd	r21, Y+2	; 0x02
    1f0c:	b6 01       	movw	r22, r12
    1f0e:	c7 01       	movw	r24, r14
    1f10:	82 df       	rcall	.-252    	; 0x1e16 <prvWriteBytesToBuffer>
    1f12:	0f 90       	pop	r0
    1f14:	0f 90       	pop	r0
    1f16:	df 91       	pop	r29
    1f18:	cf 91       	pop	r28
    1f1a:	1f 91       	pop	r17
    1f1c:	0f 91       	pop	r16
    1f1e:	ff 90       	pop	r15
    1f20:	ef 90       	pop	r14
    1f22:	df 90       	pop	r13
    1f24:	cf 90       	pop	r12
    1f26:	08 95       	ret

00001f28 <prvReadBytesFromBuffer>:
    1f28:	af 92       	push	r10
    1f2a:	bf 92       	push	r11
    1f2c:	cf 92       	push	r12
    1f2e:	df 92       	push	r13
    1f30:	ef 92       	push	r14
    1f32:	ff 92       	push	r15
    1f34:	0f 93       	push	r16
    1f36:	1f 93       	push	r17
    1f38:	cf 93       	push	r28
    1f3a:	df 93       	push	r29
    1f3c:	7c 01       	movw	r14, r24
    1f3e:	5b 01       	movw	r10, r22
    1f40:	e9 01       	movw	r28, r18
    1f42:	42 17       	cp	r20, r18
    1f44:	53 07       	cpc	r21, r19
    1f46:	08 f4       	brcc	.+2      	; 0x1f4a <prvReadBytesFromBuffer+0x22>
    1f48:	ea 01       	movw	r28, r20
    1f4a:	20 97       	sbiw	r28, 0x00	; 0
    1f4c:	79 f1       	breq	.+94     	; 0x1fac <prvReadBytesFromBuffer+0x84>
    1f4e:	f7 01       	movw	r30, r14
    1f50:	00 81       	ld	r16, Z
    1f52:	11 81       	ldd	r17, Z+1	; 0x01
    1f54:	c4 80       	ldd	r12, Z+4	; 0x04
    1f56:	d5 80       	ldd	r13, Z+5	; 0x05
    1f58:	c0 1a       	sub	r12, r16
    1f5a:	d1 0a       	sbc	r13, r17
    1f5c:	cc 15       	cp	r28, r12
    1f5e:	dd 05       	cpc	r29, r13
    1f60:	08 f4       	brcc	.+2      	; 0x1f64 <prvReadBytesFromBuffer+0x3c>
    1f62:	6e 01       	movw	r12, r28
    1f64:	f7 01       	movw	r30, r14
    1f66:	64 85       	ldd	r22, Z+12	; 0x0c
    1f68:	75 85       	ldd	r23, Z+13	; 0x0d
    1f6a:	60 0f       	add	r22, r16
    1f6c:	71 1f       	adc	r23, r17
    1f6e:	a6 01       	movw	r20, r12
    1f70:	c5 01       	movw	r24, r10
    1f72:	0e 94 ab 36 	call	0x6d56	; 0x6d56 <memcpy>
    1f76:	cc 16       	cp	r12, r28
    1f78:	dd 06       	cpc	r13, r29
    1f7a:	58 f4       	brcc	.+22     	; 0x1f92 <prvReadBytesFromBuffer+0x6a>
    1f7c:	ae 01       	movw	r20, r28
    1f7e:	4c 19       	sub	r20, r12
    1f80:	5d 09       	sbc	r21, r13
    1f82:	f7 01       	movw	r30, r14
    1f84:	64 85       	ldd	r22, Z+12	; 0x0c
    1f86:	75 85       	ldd	r23, Z+13	; 0x0d
    1f88:	c5 01       	movw	r24, r10
    1f8a:	8c 0d       	add	r24, r12
    1f8c:	9d 1d       	adc	r25, r13
    1f8e:	0e 94 ab 36 	call	0x6d56	; 0x6d56 <memcpy>
    1f92:	0c 0f       	add	r16, r28
    1f94:	1d 1f       	adc	r17, r29
    1f96:	f7 01       	movw	r30, r14
    1f98:	84 81       	ldd	r24, Z+4	; 0x04
    1f9a:	95 81       	ldd	r25, Z+5	; 0x05
    1f9c:	08 17       	cp	r16, r24
    1f9e:	19 07       	cpc	r17, r25
    1fa0:	10 f0       	brcs	.+4      	; 0x1fa6 <prvReadBytesFromBuffer+0x7e>
    1fa2:	08 1b       	sub	r16, r24
    1fa4:	19 0b       	sbc	r17, r25
    1fa6:	f7 01       	movw	r30, r14
    1fa8:	11 83       	std	Z+1, r17	; 0x01
    1faa:	00 83       	st	Z, r16
    1fac:	ce 01       	movw	r24, r28
    1fae:	df 91       	pop	r29
    1fb0:	cf 91       	pop	r28
    1fb2:	1f 91       	pop	r17
    1fb4:	0f 91       	pop	r16
    1fb6:	ff 90       	pop	r15
    1fb8:	ef 90       	pop	r14
    1fba:	df 90       	pop	r13
    1fbc:	cf 90       	pop	r12
    1fbe:	bf 90       	pop	r11
    1fc0:	af 90       	pop	r10
    1fc2:	08 95       	ret

00001fc4 <xStreamBufferGenericCreate>:
    1fc4:	ff 92       	push	r15
    1fc6:	0f 93       	push	r16
    1fc8:	1f 93       	push	r17
    1fca:	cf 93       	push	r28
    1fcc:	df 93       	push	r29
    1fce:	8b 01       	movw	r16, r22
    1fd0:	ff 24       	eor	r15, r15
    1fd2:	f3 94       	inc	r15
    1fd4:	41 30       	cpi	r20, 0x01	; 1
    1fd6:	09 f0       	breq	.+2      	; 0x1fda <xStreamBufferGenericCreate+0x16>
    1fd8:	f1 2c       	mov	r15, r1
    1fda:	01 15       	cp	r16, r1
    1fdc:	11 05       	cpc	r17, r1
    1fde:	11 f4       	brne	.+4      	; 0x1fe4 <xStreamBufferGenericCreate+0x20>
    1fe0:	01 e0       	ldi	r16, 0x01	; 1
    1fe2:	10 e0       	ldi	r17, 0x00	; 0
    1fe4:	9c 01       	movw	r18, r24
    1fe6:	20 5f       	subi	r18, 0xF0	; 240
    1fe8:	3f 4f       	sbci	r19, 0xFF	; 255
    1fea:	82 17       	cp	r24, r18
    1fec:	93 07       	cpc	r25, r19
    1fee:	b0 f4       	brcc	.+44     	; 0x201c <xStreamBufferGenericCreate+0x58>
    1ff0:	ec 01       	movw	r28, r24
    1ff2:	21 96       	adiw	r28, 0x01	; 1
    1ff4:	c9 01       	movw	r24, r18
    1ff6:	d0 d8       	rcall	.-3680   	; 0x1198 <pvPortMalloc>
    1ff8:	fc 01       	movw	r30, r24
    1ffa:	89 2b       	or	r24, r25
    1ffc:	89 f0       	breq	.+34     	; 0x2020 <xStreamBufferGenericCreate+0x5c>
    1ffe:	8f e0       	ldi	r24, 0x0F	; 15
    2000:	df 01       	movw	r26, r30
    2002:	1d 92       	st	X+, r1
    2004:	8a 95       	dec	r24
    2006:	e9 f7       	brne	.-6      	; 0x2002 <xStreamBufferGenericCreate+0x3e>
    2008:	cf 01       	movw	r24, r30
    200a:	0f 96       	adiw	r24, 0x0f	; 15
    200c:	95 87       	std	Z+13, r25	; 0x0d
    200e:	84 87       	std	Z+12, r24	; 0x0c
    2010:	d5 83       	std	Z+5, r29	; 0x05
    2012:	c4 83       	std	Z+4, r28	; 0x04
    2014:	17 83       	std	Z+7, r17	; 0x07
    2016:	06 83       	std	Z+6, r16	; 0x06
    2018:	f6 86       	std	Z+14, r15	; 0x0e
    201a:	02 c0       	rjmp	.+4      	; 0x2020 <xStreamBufferGenericCreate+0x5c>
    201c:	e0 e0       	ldi	r30, 0x00	; 0
    201e:	f0 e0       	ldi	r31, 0x00	; 0
    2020:	cf 01       	movw	r24, r30
    2022:	df 91       	pop	r29
    2024:	cf 91       	pop	r28
    2026:	1f 91       	pop	r17
    2028:	0f 91       	pop	r16
    202a:	ff 90       	pop	r15
    202c:	08 95       	ret

0000202e <xStreamBufferReset>:
    202e:	0f b6       	in	r0, 0x3f	; 63
    2030:	f8 94       	cli
    2032:	0f 92       	push	r0
    2034:	dc 01       	movw	r26, r24
    2036:	18 96       	adiw	r26, 0x08	; 8
    2038:	2d 91       	ld	r18, X+
    203a:	3c 91       	ld	r19, X
    203c:	19 97       	sbiw	r26, 0x09	; 9
    203e:	23 2b       	or	r18, r19
    2040:	51 f5       	brne	.+84     	; 0x2096 <xStreamBufferReset+0x68>
    2042:	1a 96       	adiw	r26, 0x0a	; 10
    2044:	2d 91       	ld	r18, X+
    2046:	3c 91       	ld	r19, X
    2048:	1b 97       	sbiw	r26, 0x0b	; 11
    204a:	23 2b       	or	r18, r19
    204c:	31 f5       	brne	.+76     	; 0x209a <xStreamBufferReset+0x6c>
    204e:	1e 96       	adiw	r26, 0x0e	; 14
    2050:	2c 91       	ld	r18, X
    2052:	1e 97       	sbiw	r26, 0x0e	; 14
    2054:	16 96       	adiw	r26, 0x06	; 6
    2056:	4d 91       	ld	r20, X+
    2058:	5c 91       	ld	r21, X
    205a:	17 97       	sbiw	r26, 0x07	; 7
    205c:	14 96       	adiw	r26, 0x04	; 4
    205e:	6d 91       	ld	r22, X+
    2060:	7c 91       	ld	r23, X
    2062:	15 97       	sbiw	r26, 0x05	; 5
    2064:	1c 96       	adiw	r26, 0x0c	; 12
    2066:	ed 91       	ld	r30, X+
    2068:	fc 91       	ld	r31, X
    206a:	1d 97       	sbiw	r26, 0x0d	; 13
    206c:	3f e0       	ldi	r19, 0x0F	; 15
    206e:	1d 92       	st	X+, r1
    2070:	3a 95       	dec	r19
    2072:	e9 f7       	brne	.-6      	; 0x206e <xStreamBufferReset+0x40>
    2074:	dc 01       	movw	r26, r24
    2076:	1d 96       	adiw	r26, 0x0d	; 13
    2078:	fc 93       	st	X, r31
    207a:	ee 93       	st	-X, r30
    207c:	1c 97       	sbiw	r26, 0x0c	; 12
    207e:	15 96       	adiw	r26, 0x05	; 5
    2080:	7c 93       	st	X, r23
    2082:	6e 93       	st	-X, r22
    2084:	14 97       	sbiw	r26, 0x04	; 4
    2086:	17 96       	adiw	r26, 0x07	; 7
    2088:	5c 93       	st	X, r21
    208a:	4e 93       	st	-X, r20
    208c:	16 97       	sbiw	r26, 0x06	; 6
    208e:	1e 96       	adiw	r26, 0x0e	; 14
    2090:	2c 93       	st	X, r18
    2092:	81 e0       	ldi	r24, 0x01	; 1
    2094:	03 c0       	rjmp	.+6      	; 0x209c <xStreamBufferReset+0x6e>
    2096:	80 e0       	ldi	r24, 0x00	; 0
    2098:	01 c0       	rjmp	.+2      	; 0x209c <xStreamBufferReset+0x6e>
    209a:	80 e0       	ldi	r24, 0x00	; 0
    209c:	0f 90       	pop	r0
    209e:	0f be       	out	0x3f, r0	; 63
    20a0:	08 95       	ret

000020a2 <xStreamBufferSpacesAvailable>:
    20a2:	fc 01       	movw	r30, r24
    20a4:	24 81       	ldd	r18, Z+4	; 0x04
    20a6:	35 81       	ldd	r19, Z+5	; 0x05
    20a8:	80 81       	ld	r24, Z
    20aa:	91 81       	ldd	r25, Z+1	; 0x01
    20ac:	42 81       	ldd	r20, Z+2	; 0x02
    20ae:	53 81       	ldd	r21, Z+3	; 0x03
    20b0:	82 0f       	add	r24, r18
    20b2:	93 1f       	adc	r25, r19
    20b4:	01 97       	sbiw	r24, 0x01	; 1
    20b6:	84 1b       	sub	r24, r20
    20b8:	95 0b       	sbc	r25, r21
    20ba:	82 17       	cp	r24, r18
    20bc:	93 07       	cpc	r25, r19
    20be:	10 f0       	brcs	.+4      	; 0x20c4 <xStreamBufferSpacesAvailable+0x22>
    20c0:	82 1b       	sub	r24, r18
    20c2:	93 0b       	sbc	r25, r19
    20c4:	08 95       	ret

000020c6 <xStreamBufferSend>:

size_t xStreamBufferSend( StreamBufferHandle_t xStreamBuffer,
                          const void * pvTxData,
                          size_t xDataLengthBytes,
                          TickType_t xTicksToWait )
{
    20c6:	2f 92       	push	r2
    20c8:	3f 92       	push	r3
    20ca:	4f 92       	push	r4
    20cc:	5f 92       	push	r5
    20ce:	6f 92       	push	r6
    20d0:	7f 92       	push	r7
    20d2:	8f 92       	push	r8
    20d4:	9f 92       	push	r9
    20d6:	af 92       	push	r10
    20d8:	bf 92       	push	r11
    20da:	cf 92       	push	r12
    20dc:	df 92       	push	r13
    20de:	ef 92       	push	r14
    20e0:	ff 92       	push	r15
    20e2:	0f 93       	push	r16
    20e4:	1f 93       	push	r17
    20e6:	cf 93       	push	r28
    20e8:	df 93       	push	r29
    20ea:	cd b7       	in	r28, 0x3d	; 61
    20ec:	de b7       	in	r29, 0x3e	; 62
    20ee:	2b 97       	sbiw	r28, 0x0b	; 11
    20f0:	0f b6       	in	r0, 0x3f	; 63
    20f2:	f8 94       	cli
    20f4:	de bf       	out	0x3e, r29	; 62
    20f6:	0f be       	out	0x3f, r0	; 63
    20f8:	cd bf       	out	0x3d, r28	; 61
    20fa:	4c 01       	movw	r8, r24
    20fc:	7b 87       	std	Y+11, r23	; 0x0b
    20fe:	6a 87       	std	Y+10, r22	; 0x0a
    2100:	1a 01       	movw	r2, r20
    2102:	0e 83       	std	Y+6, r16	; 0x06
    2104:	1f 83       	std	Y+7, r17	; 0x07
    2106:	28 87       	std	Y+8, r18	; 0x08
    2108:	39 87       	std	Y+9, r19	; 0x09
    size_t xRequiredSpace = xDataLengthBytes;
    TimeOut_t xTimeOut;

    /* The maximum amount of space a stream buffer will ever report is its length
     * minus 1. */
    const size_t xMaxReportedSpace = pxStreamBuffer->xLength - ( size_t ) 1;
    210a:	fc 01       	movw	r30, r24
    210c:	84 81       	ldd	r24, Z+4	; 0x04
    210e:	95 81       	ldd	r25, Z+5	; 0x05
    2110:	01 97       	sbiw	r24, 0x01	; 1

    /* This send function is used to write to both message buffers and stream
     * buffers.  If this is a message buffer then the space needed must be
     * increased by the amount of bytes needed to store the length of the
     * message. */
    if( ( pxStreamBuffer->ucFlags & sbFLAGS_IS_MESSAGE_BUFFER ) != ( uint8_t ) 0 )
    2112:	26 85       	ldd	r18, Z+14	; 0x0e
    2114:	20 ff       	sbrs	r18, 0
    2116:	0c c0       	rjmp	.+24     	; 0x2130 <xStreamBufferSend+0x6a>
    {
        xRequiredSpace += sbBYTES_TO_STORE_MESSAGE_LENGTH;
    2118:	2a 01       	movw	r4, r20
    211a:	f2 e0       	ldi	r31, 0x02	; 2
    211c:	4f 0e       	add	r4, r31
    211e:	51 1c       	adc	r5, r1
        /* Overflow? */
        configASSERT( xRequiredSpace > xDataLengthBytes );

        /* If this is a message buffer then it must be possible to write the
         * whole message. */
        if( xRequiredSpace > xMaxReportedSpace )
    2120:	84 15       	cp	r24, r4
    2122:	95 05       	cpc	r25, r5
    2124:	50 f4       	brcc	.+20     	; 0x213a <xStreamBufferSend+0x74>
        {
            /* The message would not fit even if the entire buffer was empty,
             * so don't wait for space. */
            xTicksToWait = ( TickType_t ) 0;
    2126:	1e 82       	std	Y+6, r1	; 0x06
    2128:	1f 82       	std	Y+7, r1	; 0x07
    212a:	18 86       	std	Y+8, r1	; 0x08
    212c:	19 86       	std	Y+9, r1	; 0x09
    212e:	45 c0       	rjmp	.+138    	; 0x21ba <xStreamBufferSend+0xf4>
    2130:	2a 01       	movw	r4, r20
    2132:	84 17       	cp	r24, r20
    2134:	95 07       	cpc	r25, r21
    2136:	08 f4       	brcc	.+2      	; 0x213a <xStreamBufferSend+0x74>
    2138:	2c 01       	movw	r4, r24
        {
            mtCOVERAGE_TEST_MARKER();
        }
    }

    if( xTicksToWait != ( TickType_t ) 0 )
    213a:	8e 81       	ldd	r24, Y+6	; 0x06
    213c:	9f 81       	ldd	r25, Y+7	; 0x07
    213e:	a8 85       	ldd	r26, Y+8	; 0x08
    2140:	b9 85       	ldd	r27, Y+9	; 0x09
    2142:	89 2b       	or	r24, r25
    2144:	8a 2b       	or	r24, r26
    2146:	8b 2b       	or	r24, r27
    2148:	09 f4       	brne	.+2      	; 0x214c <xStreamBufferSend+0x86>
    214a:	37 c0       	rjmp	.+110    	; 0x21ba <xStreamBufferSend+0xf4>
    {
        vTaskSetTimeOutState( &xTimeOut );
    214c:	ce 01       	movw	r24, r28
    214e:	01 96       	adiw	r24, 0x01	; 1
    2150:	5f d7       	rcall	.+3774   	; 0x3010 <vTaskSetTimeOutState>

        do
        {
            /* Wait until the required number of bytes are free in the message
             * buffer. */
            taskENTER_CRITICAL();
    2152:	0f b6       	in	r0, 0x3f	; 63
    2154:	f8 94       	cli
    2156:	0f 92       	push	r0
            {
                xSpace = xStreamBufferSpacesAvailable( pxStreamBuffer );
    2158:	c4 01       	movw	r24, r8
    215a:	a3 df       	rcall	.-186    	; 0x20a2 <xStreamBufferSpacesAvailable>
    215c:	3c 01       	movw	r6, r24

                if( xSpace < xRequiredSpace )
    215e:	84 15       	cp	r24, r4
    2160:	95 05       	cpc	r25, r5
    2162:	30 f5       	brcc	.+76     	; 0x21b0 <xStreamBufferSend+0xea>
                {
                    /* Clear notification state as going to wait for space. */
                    ( void ) xTaskNotifyStateClear( NULL );
    2164:	60 e0       	ldi	r22, 0x00	; 0
    2166:	80 e0       	ldi	r24, 0x00	; 0
    2168:	90 e0       	ldi	r25, 0x00	; 0
    216a:	0e 94 b4 1c 	call	0x3968	; 0x3968 <xTaskGenericNotifyStateClear>

                    /* Should only be one writer. */
                    configASSERT( pxStreamBuffer->xTaskWaitingToSend == NULL );
                    pxStreamBuffer->xTaskWaitingToSend = xTaskGetCurrentTaskHandle();
    216e:	d4 d7       	rcall	.+4008   	; 0x3118 <xTaskGetCurrentTaskHandle>
    2170:	f4 01       	movw	r30, r8
    2172:	93 87       	std	Z+11, r25	; 0x0b
    2174:	82 87       	std	Z+10, r24	; 0x0a
                {
                    taskEXIT_CRITICAL();
                    break;
                }
            }
            taskEXIT_CRITICAL();
    2176:	0f 90       	pop	r0
    2178:	0f be       	out	0x3f, r0	; 63

            traceBLOCKING_ON_STREAM_BUFFER_SEND( xStreamBuffer );
            ( void ) xTaskNotifyWait( ( uint32_t ) 0, ( uint32_t ) 0, NULL, xTicksToWait );
    217a:	ae 80       	ldd	r10, Y+6	; 0x06
    217c:	bf 80       	ldd	r11, Y+7	; 0x07
    217e:	c8 84       	ldd	r12, Y+8	; 0x08
    2180:	d9 84       	ldd	r13, Y+9	; 0x09
    2182:	e1 2c       	mov	r14, r1
    2184:	f1 2c       	mov	r15, r1
    2186:	00 e0       	ldi	r16, 0x00	; 0
    2188:	10 e0       	ldi	r17, 0x00	; 0
    218a:	98 01       	movw	r18, r16
    218c:	40 e0       	ldi	r20, 0x00	; 0
    218e:	50 e0       	ldi	r21, 0x00	; 0
    2190:	ba 01       	movw	r22, r20
    2192:	80 e0       	ldi	r24, 0x00	; 0
    2194:	0e 94 fa 19 	call	0x33f4	; 0x33f4 <xTaskGenericNotifyWait>
            pxStreamBuffer->xTaskWaitingToSend = NULL;
    2198:	f4 01       	movw	r30, r8
    219a:	13 86       	std	Z+11, r1	; 0x0b
    219c:	12 86       	std	Z+10, r1	; 0x0a
        } while( xTaskCheckForTimeOut( &xTimeOut, &xTicksToWait ) == pdFALSE );
    219e:	be 01       	movw	r22, r28
    21a0:	6a 5f       	subi	r22, 0xFA	; 250
    21a2:	7f 4f       	sbci	r23, 0xFF	; 255
    21a4:	ce 01       	movw	r24, r28
    21a6:	01 96       	adiw	r24, 0x01	; 1
    21a8:	5a d7       	rcall	.+3764   	; 0x305e <xTaskCheckForTimeOut>
    21aa:	88 23       	and	r24, r24
    21ac:	91 f2       	breq	.-92     	; 0x2152 <xStreamBufferSend+0x8c>
    21ae:	02 c0       	rjmp	.+4      	; 0x21b4 <xStreamBufferSend+0xee>
                    configASSERT( pxStreamBuffer->xTaskWaitingToSend == NULL );
                    pxStreamBuffer->xTaskWaitingToSend = xTaskGetCurrentTaskHandle();
                }
                else
                {
                    taskEXIT_CRITICAL();
    21b0:	0f 90       	pop	r0
    21b2:	0f be       	out	0x3f, r0	; 63
    else
    {
        mtCOVERAGE_TEST_MARKER();
    }

    if( xSpace == ( size_t ) 0 )
    21b4:	61 14       	cp	r6, r1
    21b6:	71 04       	cpc	r7, r1
    {
        xSpace = xStreamBufferSpacesAvailable( pxStreamBuffer );
    21b8:	19 f4       	brne	.+6      	; 0x21c0 <xStreamBufferSend+0xfa>
    21ba:	c4 01       	movw	r24, r8
    21bc:	72 df       	rcall	.-284    	; 0x20a2 <xStreamBufferSpacesAvailable>
    21be:	3c 01       	movw	r6, r24
    else
    {
        mtCOVERAGE_TEST_MARKER();
    }

    xReturn = prvWriteMessageToBuffer( pxStreamBuffer, pvTxData, xDataLengthBytes, xSpace, xRequiredSpace );
    21c0:	82 01       	movw	r16, r4
    21c2:	93 01       	movw	r18, r6
    21c4:	a1 01       	movw	r20, r2
    21c6:	6a 85       	ldd	r22, Y+10	; 0x0a
    21c8:	7b 85       	ldd	r23, Y+11	; 0x0b
    21ca:	c4 01       	movw	r24, r8
    21cc:	6d de       	rcall	.-806    	; 0x1ea8 <prvWriteMessageToBuffer>

    if( xReturn > ( size_t ) 0 )
    21ce:	6c 01       	movw	r12, r24
    21d0:	89 2b       	or	r24, r25
    {
        traceSTREAM_BUFFER_SEND( xStreamBuffer, xReturn );

        /* Was a task waiting for the data? */
        if( prvBytesInBuffer( pxStreamBuffer ) >= pxStreamBuffer->xTriggerLevelBytes )
    21d2:	e9 f0       	breq	.+58     	; 0x220e <__stack+0xf>
    21d4:	c4 01       	movw	r24, r8
    21d6:	0c de       	rcall	.-1000   	; 0x1df0 <prvBytesInBuffer>
    21d8:	f4 01       	movw	r30, r8
    21da:	26 81       	ldd	r18, Z+6	; 0x06
    21dc:	37 81       	ldd	r19, Z+7	; 0x07
    21de:	82 17       	cp	r24, r18
    21e0:	93 07       	cpc	r25, r19
        {
            sbSEND_COMPLETED( pxStreamBuffer );
    21e2:	a8 f0       	brcs	.+42     	; 0x220e <__stack+0xf>
    21e4:	58 d3       	rcall	.+1712   	; 0x2896 <vTaskSuspendAll>
    21e6:	f4 01       	movw	r30, r8
    21e8:	80 85       	ldd	r24, Z+8	; 0x08
    21ea:	91 85       	ldd	r25, Z+9	; 0x09
    21ec:	89 2b       	or	r24, r25
    21ee:	71 f0       	breq	.+28     	; 0x220c <__stack+0xd>
    21f0:	80 85       	ldd	r24, Z+8	; 0x08
    21f2:	91 85       	ldd	r25, Z+9	; 0x09
    21f4:	e1 2c       	mov	r14, r1
    21f6:	f1 2c       	mov	r15, r1
    21f8:	00 e0       	ldi	r16, 0x00	; 0
    21fa:	20 e0       	ldi	r18, 0x00	; 0
    21fc:	30 e0       	ldi	r19, 0x00	; 0
    21fe:	a9 01       	movw	r20, r18
    2200:	60 e0       	ldi	r22, 0x00	; 0
    2202:	0e 94 a2 1a 	call	0x3544	; 0x3544 <xTaskGenericNotify>
    2206:	f4 01       	movw	r30, r8
    2208:	11 86       	std	Z+9, r1	; 0x09
    220a:	10 86       	std	Z+8, r1	; 0x08
    220c:	88 d4       	rcall	.+2320   	; 0x2b1e <xTaskResumeAll>
        mtCOVERAGE_TEST_MARKER();
        traceSTREAM_BUFFER_SEND_FAILED( xStreamBuffer );
    }

    return xReturn;
}
    220e:	c6 01       	movw	r24, r12
    2210:	2b 96       	adiw	r28, 0x0b	; 11
    2212:	0f b6       	in	r0, 0x3f	; 63
    2214:	f8 94       	cli
    2216:	de bf       	out	0x3e, r29	; 62
    2218:	0f be       	out	0x3f, r0	; 63
    221a:	cd bf       	out	0x3d, r28	; 61
    221c:	df 91       	pop	r29
    221e:	cf 91       	pop	r28
    2220:	1f 91       	pop	r17
    2222:	0f 91       	pop	r16
    2224:	ff 90       	pop	r15
    2226:	ef 90       	pop	r14
    2228:	df 90       	pop	r13
    222a:	cf 90       	pop	r12
    222c:	bf 90       	pop	r11
    222e:	af 90       	pop	r10
    2230:	9f 90       	pop	r9
    2232:	8f 90       	pop	r8
    2234:	7f 90       	pop	r7
    2236:	6f 90       	pop	r6
    2238:	5f 90       	pop	r5
    223a:	4f 90       	pop	r4
    223c:	3f 90       	pop	r3
    223e:	2f 90       	pop	r2
    2240:	08 95       	ret

00002242 <xStreamBufferSendFromISR>:

size_t xStreamBufferSendFromISR( StreamBufferHandle_t xStreamBuffer,
                                 const void * pvTxData,
                                 size_t xDataLengthBytes,
                                 BaseType_t * const pxHigherPriorityTaskWoken )
{
    2242:	af 92       	push	r10
    2244:	bf 92       	push	r11
    2246:	cf 92       	push	r12
    2248:	df 92       	push	r13
    224a:	ef 92       	push	r14
    224c:	ff 92       	push	r15
    224e:	0f 93       	push	r16
    2250:	1f 93       	push	r17
    2252:	cf 93       	push	r28
    2254:	df 93       	push	r29
    2256:	ec 01       	movw	r28, r24
    2258:	7b 01       	movw	r14, r22
    225a:	5a 01       	movw	r10, r20
    225c:	69 01       	movw	r12, r18

    /* This send function is used to write to both message buffers and stream
     * buffers.  If this is a message buffer then the space needed must be
     * increased by the amount of bytes needed to store the length of the
     * message. */
    if( ( pxStreamBuffer->ucFlags & sbFLAGS_IS_MESSAGE_BUFFER ) != ( uint8_t ) 0 )
    225e:	8e 85       	ldd	r24, Y+14	; 0x0e
    2260:	80 ff       	sbrs	r24, 0
    2262:	04 c0       	rjmp	.+8      	; 0x226c <xStreamBufferSendFromISR+0x2a>
    {
        xRequiredSpace += sbBYTES_TO_STORE_MESSAGE_LENGTH;
    2264:	8a 01       	movw	r16, r20
    2266:	0e 5f       	subi	r16, 0xFE	; 254
    2268:	1f 4f       	sbci	r17, 0xFF	; 255
    226a:	01 c0       	rjmp	.+2      	; 0x226e <xStreamBufferSendFromISR+0x2c>
                                 size_t xDataLengthBytes,
                                 BaseType_t * const pxHigherPriorityTaskWoken )
{
    StreamBuffer_t * const pxStreamBuffer = xStreamBuffer;
    size_t xReturn, xSpace;
    size_t xRequiredSpace = xDataLengthBytes;
    226c:	8a 01       	movw	r16, r20
    else
    {
        mtCOVERAGE_TEST_MARKER();
    }

    xSpace = xStreamBufferSpacesAvailable( pxStreamBuffer );
    226e:	ce 01       	movw	r24, r28
    2270:	18 df       	rcall	.-464    	; 0x20a2 <xStreamBufferSpacesAvailable>
    xReturn = prvWriteMessageToBuffer( pxStreamBuffer, pvTxData, xDataLengthBytes, xSpace, xRequiredSpace );
    2272:	9c 01       	movw	r18, r24
    2274:	a5 01       	movw	r20, r10
    2276:	b7 01       	movw	r22, r14
    2278:	ce 01       	movw	r24, r28
    227a:	16 de       	rcall	.-980    	; 0x1ea8 <prvWriteMessageToBuffer>
    227c:	5c 01       	movw	r10, r24

    if( xReturn > ( size_t ) 0 )
    227e:	89 2b       	or	r24, r25
    {
        /* Was a task waiting for the data? */
        if( prvBytesInBuffer( pxStreamBuffer ) >= pxStreamBuffer->xTriggerLevelBytes )
    2280:	c1 f0       	breq	.+48     	; 0x22b2 <xStreamBufferSendFromISR+0x70>
    2282:	ce 01       	movw	r24, r28
    2284:	b5 dd       	rcall	.-1174   	; 0x1df0 <prvBytesInBuffer>
    2286:	2e 81       	ldd	r18, Y+6	; 0x06
    2288:	3f 81       	ldd	r19, Y+7	; 0x07
    228a:	82 17       	cp	r24, r18
    228c:	93 07       	cpc	r25, r19
    228e:	88 f0       	brcs	.+34     	; 0x22b2 <xStreamBufferSendFromISR+0x70>
        {
            sbSEND_COMPLETE_FROM_ISR( pxStreamBuffer, pxHigherPriorityTaskWoken );
    2290:	88 85       	ldd	r24, Y+8	; 0x08
    2292:	99 85       	ldd	r25, Y+9	; 0x09
    2294:	89 2b       	or	r24, r25
    2296:	69 f0       	breq	.+26     	; 0x22b2 <xStreamBufferSendFromISR+0x70>
    2298:	88 85       	ldd	r24, Y+8	; 0x08
    229a:	99 85       	ldd	r25, Y+9	; 0x09
    229c:	e1 2c       	mov	r14, r1
    229e:	f1 2c       	mov	r15, r1
    22a0:	00 e0       	ldi	r16, 0x00	; 0
    22a2:	20 e0       	ldi	r18, 0x00	; 0
    22a4:	30 e0       	ldi	r19, 0x00	; 0
    22a6:	a9 01       	movw	r20, r18
    22a8:	60 e0       	ldi	r22, 0x00	; 0
    22aa:	0e 94 96 1b 	call	0x372c	; 0x372c <xTaskGenericNotifyFromISR>
    22ae:	19 86       	std	Y+9, r1	; 0x09
    22b0:	18 86       	std	Y+8, r1	; 0x08
    }

    traceSTREAM_BUFFER_SEND_FROM_ISR( xStreamBuffer, xReturn );

    return xReturn;
}
    22b2:	c5 01       	movw	r24, r10
    22b4:	df 91       	pop	r29
    22b6:	cf 91       	pop	r28
    22b8:	1f 91       	pop	r17
    22ba:	0f 91       	pop	r16
    22bc:	ff 90       	pop	r15
    22be:	ef 90       	pop	r14
    22c0:	df 90       	pop	r13
    22c2:	cf 90       	pop	r12
    22c4:	bf 90       	pop	r11
    22c6:	af 90       	pop	r10
    22c8:	08 95       	ret

000022ca <xStreamBufferReceive>:

size_t xStreamBufferReceive( StreamBufferHandle_t xStreamBuffer,
                             void * pvRxData,
                             size_t xBufferLengthBytes,
                             TickType_t xTicksToWait )
{
    22ca:	2f 92       	push	r2
    22cc:	3f 92       	push	r3
    22ce:	4f 92       	push	r4
    22d0:	5f 92       	push	r5
    22d2:	6f 92       	push	r6
    22d4:	7f 92       	push	r7
    22d6:	8f 92       	push	r8
    22d8:	9f 92       	push	r9
    22da:	af 92       	push	r10
    22dc:	bf 92       	push	r11
    22de:	cf 92       	push	r12
    22e0:	df 92       	push	r13
    22e2:	ef 92       	push	r14
    22e4:	ff 92       	push	r15
    22e6:	0f 93       	push	r16
    22e8:	1f 93       	push	r17
    22ea:	cf 93       	push	r28
    22ec:	df 93       	push	r29
    22ee:	1f 92       	push	r1
    22f0:	1f 92       	push	r1
    22f2:	cd b7       	in	r28, 0x3d	; 61
    22f4:	de b7       	in	r29, 0x3e	; 62
    22f6:	4c 01       	movw	r8, r24
    22f8:	1b 01       	movw	r2, r22
    22fa:	2a 01       	movw	r4, r20
    22fc:	58 01       	movw	r10, r16
    22fe:	69 01       	movw	r12, r18
    /* This receive function is used by both message buffers, which store
     * discrete messages, and stream buffers, which store a continuous stream of
     * bytes.  Discrete messages include an additional
     * sbBYTES_TO_STORE_MESSAGE_LENGTH bytes that hold the length of the
     * message. */
    if( ( pxStreamBuffer->ucFlags & sbFLAGS_IS_MESSAGE_BUFFER ) != ( uint8_t ) 0 )
    2300:	fc 01       	movw	r30, r24
    2302:	86 85       	ldd	r24, Z+14	; 0x0e
    2304:	80 fd       	sbrc	r24, 0
    2306:	03 c0       	rjmp	.+6      	; 0x230e <xStreamBufferReceive+0x44>
    {
        xBytesToStoreMessageLength = sbBYTES_TO_STORE_MESSAGE_LENGTH;
    }
    else
    {
        xBytesToStoreMessageLength = 0;
    2308:	61 2c       	mov	r6, r1
    230a:	71 2c       	mov	r7, r1
    230c:	04 c0       	rjmp	.+8      	; 0x2316 <xStreamBufferReceive+0x4c>
     * bytes.  Discrete messages include an additional
     * sbBYTES_TO_STORE_MESSAGE_LENGTH bytes that hold the length of the
     * message. */
    if( ( pxStreamBuffer->ucFlags & sbFLAGS_IS_MESSAGE_BUFFER ) != ( uint8_t ) 0 )
    {
        xBytesToStoreMessageLength = sbBYTES_TO_STORE_MESSAGE_LENGTH;
    230e:	68 94       	set
    2310:	66 24       	eor	r6, r6
    2312:	61 f8       	bld	r6, 1
    2314:	71 2c       	mov	r7, r1
    else
    {
        xBytesToStoreMessageLength = 0;
    }

    if( xTicksToWait != ( TickType_t ) 0 )
    2316:	a1 14       	cp	r10, r1
    2318:	b1 04       	cpc	r11, r1
    231a:	c1 04       	cpc	r12, r1
    231c:	d1 04       	cpc	r13, r1
    231e:	49 f1       	breq	.+82     	; 0x2372 <xStreamBufferReceive+0xa8>
    {
        /* Checking if there is data and clearing the notification state must be
         * performed atomically. */
        taskENTER_CRITICAL();
    2320:	0f b6       	in	r0, 0x3f	; 63
    2322:	f8 94       	cli
    2324:	0f 92       	push	r0
        {
            xBytesAvailable = prvBytesInBuffer( pxStreamBuffer );
    2326:	c4 01       	movw	r24, r8
    2328:	63 dd       	rcall	.-1338   	; 0x1df0 <prvBytesInBuffer>
    232a:	8c 01       	movw	r16, r24
            /* If this function was invoked by a message buffer read then
             * xBytesToStoreMessageLength holds the number of bytes used to hold
             * the length of the next discrete message.  If this function was
             * invoked by a stream buffer read then xBytesToStoreMessageLength will
             * be 0. */
            if( xBytesAvailable <= xBytesToStoreMessageLength )
    232c:	68 16       	cp	r6, r24
    232e:	79 06       	cpc	r7, r25
    2330:	48 f0       	brcs	.+18     	; 0x2344 <xStreamBufferReceive+0x7a>
            {
                /* Clear notification state as going to wait for data. */
                ( void ) xTaskNotifyStateClear( NULL );
    2332:	60 e0       	ldi	r22, 0x00	; 0
    2334:	80 e0       	ldi	r24, 0x00	; 0
    2336:	90 e0       	ldi	r25, 0x00	; 0
    2338:	0e 94 b4 1c 	call	0x3968	; 0x3968 <xTaskGenericNotifyStateClear>

                /* Should only be one reader. */
                configASSERT( pxStreamBuffer->xTaskWaitingToReceive == NULL );
                pxStreamBuffer->xTaskWaitingToReceive = xTaskGetCurrentTaskHandle();
    233c:	ed d6       	rcall	.+3546   	; 0x3118 <xTaskGetCurrentTaskHandle>
    233e:	f4 01       	movw	r30, r8
    2340:	91 87       	std	Z+9, r25	; 0x09
    2342:	80 87       	std	Z+8, r24	; 0x08
            else
            {
                mtCOVERAGE_TEST_MARKER();
            }
        }
        taskEXIT_CRITICAL();
    2344:	0f 90       	pop	r0
    2346:	0f be       	out	0x3f, r0	; 63

        if( xBytesAvailable <= xBytesToStoreMessageLength )
    2348:	60 16       	cp	r6, r16
    234a:	71 06       	cpc	r7, r17
    234c:	c0 f0       	brcs	.+48     	; 0x237e <xStreamBufferReceive+0xb4>
        {
            /* Wait for data to be available. */
            traceBLOCKING_ON_STREAM_BUFFER_RECEIVE( xStreamBuffer );
            ( void ) xTaskNotifyWait( ( uint32_t ) 0, ( uint32_t ) 0, NULL, xTicksToWait );
    234e:	e1 2c       	mov	r14, r1
    2350:	f1 2c       	mov	r15, r1
    2352:	00 e0       	ldi	r16, 0x00	; 0
    2354:	10 e0       	ldi	r17, 0x00	; 0
    2356:	98 01       	movw	r18, r16
    2358:	40 e0       	ldi	r20, 0x00	; 0
    235a:	50 e0       	ldi	r21, 0x00	; 0
    235c:	ba 01       	movw	r22, r20
    235e:	80 e0       	ldi	r24, 0x00	; 0
    2360:	0e 94 fa 19 	call	0x33f4	; 0x33f4 <xTaskGenericNotifyWait>
            pxStreamBuffer->xTaskWaitingToReceive = NULL;
    2364:	f4 01       	movw	r30, r8
    2366:	11 86       	std	Z+9, r1	; 0x09

            /* Recheck the data available after blocking. */
            xBytesAvailable = prvBytesInBuffer( pxStreamBuffer );
    2368:	10 86       	std	Z+8, r1	; 0x08
    236a:	c4 01       	movw	r24, r8
    236c:	41 dd       	rcall	.-1406   	; 0x1df0 <prvBytesInBuffer>
    236e:	8c 01       	movw	r16, r24
            mtCOVERAGE_TEST_MARKER();
        }
    }
    else
    {
        xBytesAvailable = prvBytesInBuffer( pxStreamBuffer );
    2370:	03 c0       	rjmp	.+6      	; 0x2378 <xStreamBufferReceive+0xae>
    2372:	c4 01       	movw	r24, r8
    2374:	3d dd       	rcall	.-1414   	; 0x1df0 <prvBytesInBuffer>
    2376:	8c 01       	movw	r16, r24
    /* Whether receiving a discrete message (where xBytesToStoreMessageLength
     * holds the number of bytes used to store the message length) or a stream of
     * bytes (where xBytesToStoreMessageLength is zero), the number of bytes
     * available must be greater than xBytesToStoreMessageLength to be able to
     * read bytes from the buffer. */
    if( xBytesAvailable > xBytesToStoreMessageLength )
    2378:	60 16       	cp	r6, r16
    237a:	71 06       	cpc	r7, r17
    237c:	c8 f5       	brcc	.+114    	; 0x23f0 <xStreamBufferReceive+0x126>
                                        size_t xBytesToStoreMessageLength )
{
    size_t xOriginalTail, xReceivedLength, xNextMessageLength;
    configMESSAGE_BUFFER_LENGTH_TYPE xTempNextMessageLength;

    if( xBytesToStoreMessageLength != ( size_t ) 0 )
    237e:	61 14       	cp	r6, r1
    2380:	71 04       	cpc	r7, r1
    2382:	c1 f0       	breq	.+48     	; 0x23b4 <xStreamBufferReceive+0xea>
    {
        /* A discrete message is being received.  First receive the length
         * of the message.  A copy of the tail is stored so the buffer can be
         * returned to its prior state if the length of the message is too
         * large for the provided buffer. */
        xOriginalTail = pxStreamBuffer->xTail;
    2384:	f4 01       	movw	r30, r8
    2386:	c0 80       	ld	r12, Z
    2388:	d1 80       	ldd	r13, Z+1	; 0x01
        ( void ) prvReadBytesFromBuffer( pxStreamBuffer, ( uint8_t * ) &xTempNextMessageLength, xBytesToStoreMessageLength, xBytesAvailable );
    238a:	98 01       	movw	r18, r16
    238c:	a3 01       	movw	r20, r6
    238e:	be 01       	movw	r22, r28
    2390:	6f 5f       	subi	r22, 0xFF	; 255
    2392:	7f 4f       	sbci	r23, 0xFF	; 255
    2394:	c4 01       	movw	r24, r8
    2396:	c8 dd       	rcall	.-1136   	; 0x1f28 <prvReadBytesFromBuffer>
        xNextMessageLength = ( size_t ) xTempNextMessageLength;
    2398:	89 81       	ldd	r24, Y+1	; 0x01
    239a:	9a 81       	ldd	r25, Y+2	; 0x02

        /* Reduce the number of bytes available by the number of bytes just
         * read out. */
        xBytesAvailable -= xBytesToStoreMessageLength;
    239c:	06 19       	sub	r16, r6
    239e:	17 09       	sbc	r17, r7

        /* Check there is enough space in the buffer provided by the
         * user. */
        if( xNextMessageLength > xBufferLengthBytes )
    23a0:	48 16       	cp	r4, r24
    23a2:	59 06       	cpc	r5, r25
    23a4:	30 f4       	brcc	.+12     	; 0x23b2 <xStreamBufferReceive+0xe8>
        {
            /* The user has provided insufficient space to read the message
             * so return the buffer to its previous state (so the length of
             * the message is in the buffer again). */
            pxStreamBuffer->xTail = xOriginalTail;
    23a6:	f4 01       	movw	r30, r8
    23a8:	d1 82       	std	Z+1, r13	; 0x01
    23aa:	c0 82       	st	Z, r12
            xNextMessageLength = 0;
    23ac:	41 2c       	mov	r4, r1
    23ae:	51 2c       	mov	r5, r1
    23b0:	01 c0       	rjmp	.+2      	; 0x23b4 <xStreamBufferReceive+0xea>
         * message), so read as many bytes as possible. */
        xNextMessageLength = xBufferLengthBytes;
    }

    /* Read the actual data. */
    xReceivedLength = prvReadBytesFromBuffer( pxStreamBuffer, ( uint8_t * ) pvRxData, xNextMessageLength, xBytesAvailable ); /*lint !e9079 Data storage area is implemented as uint8_t array for ease of sizing, indexing and alignment. */
    23b2:	2c 01       	movw	r4, r24
    23b4:	98 01       	movw	r18, r16
    23b6:	a2 01       	movw	r20, r4
    23b8:	b1 01       	movw	r22, r2
    23ba:	c4 01       	movw	r24, r8
    23bc:	b5 dd       	rcall	.-1174   	; 0x1f28 <prvReadBytesFromBuffer>
    if( xBytesAvailable > xBytesToStoreMessageLength )
    {
        xReceivedLength = prvReadMessageFromBuffer( pxStreamBuffer, pvRxData, xBufferLengthBytes, xBytesAvailable, xBytesToStoreMessageLength );

        /* Was a task waiting for space in the buffer? */
        if( xReceivedLength != ( size_t ) 0 )
    23be:	6c 01       	movw	r12, r24
    23c0:	89 2b       	or	r24, r25
        {
            traceSTREAM_BUFFER_RECEIVE( xStreamBuffer, xReceivedLength );
            sbRECEIVE_COMPLETED( pxStreamBuffer );
    23c2:	c1 f0       	breq	.+48     	; 0x23f4 <xStreamBufferReceive+0x12a>
    23c4:	68 d2       	rcall	.+1232   	; 0x2896 <vTaskSuspendAll>
    23c6:	f4 01       	movw	r30, r8
    23c8:	82 85       	ldd	r24, Z+10	; 0x0a
    23ca:	93 85       	ldd	r25, Z+11	; 0x0b
    23cc:	89 2b       	or	r24, r25
    23ce:	71 f0       	breq	.+28     	; 0x23ec <xStreamBufferReceive+0x122>
    23d0:	82 85       	ldd	r24, Z+10	; 0x0a
    23d2:	93 85       	ldd	r25, Z+11	; 0x0b
    23d4:	e1 2c       	mov	r14, r1
    23d6:	f1 2c       	mov	r15, r1
    23d8:	00 e0       	ldi	r16, 0x00	; 0
    23da:	20 e0       	ldi	r18, 0x00	; 0
    23dc:	30 e0       	ldi	r19, 0x00	; 0
    23de:	a9 01       	movw	r20, r18
    23e0:	60 e0       	ldi	r22, 0x00	; 0
    23e2:	0e 94 a2 1a 	call	0x3544	; 0x3544 <xTaskGenericNotify>
    23e6:	f4 01       	movw	r30, r8
    23e8:	13 86       	std	Z+11, r1	; 0x0b
    23ea:	12 86       	std	Z+10, r1	; 0x0a
    23ec:	98 d3       	rcall	.+1840   	; 0x2b1e <xTaskResumeAll>
    23ee:	02 c0       	rjmp	.+4      	; 0x23f4 <xStreamBufferReceive+0x12a>
                             void * pvRxData,
                             size_t xBufferLengthBytes,
                             TickType_t xTicksToWait )
{
    StreamBuffer_t * const pxStreamBuffer = xStreamBuffer;
    size_t xReceivedLength = 0, xBytesAvailable, xBytesToStoreMessageLength;
    23f0:	c1 2c       	mov	r12, r1
    23f2:	d1 2c       	mov	r13, r1
        traceSTREAM_BUFFER_RECEIVE_FAILED( xStreamBuffer );
        mtCOVERAGE_TEST_MARKER();
    }

    return xReceivedLength;
}
    23f4:	c6 01       	movw	r24, r12
    23f6:	0f 90       	pop	r0
    23f8:	0f 90       	pop	r0
    23fa:	df 91       	pop	r29
    23fc:	cf 91       	pop	r28
    23fe:	1f 91       	pop	r17
    2400:	0f 91       	pop	r16
    2402:	ff 90       	pop	r15
    2404:	ef 90       	pop	r14
    2406:	df 90       	pop	r13
    2408:	cf 90       	pop	r12
    240a:	bf 90       	pop	r11
    240c:	af 90       	pop	r10
    240e:	9f 90       	pop	r9
    2410:	8f 90       	pop	r8
    2412:	7f 90       	pop	r7
    2414:	6f 90       	pop	r6
    2416:	5f 90       	pop	r5
    2418:	4f 90       	pop	r4
    241a:	3f 90       	pop	r3
    241c:	2f 90       	pop	r2
    241e:	08 95       	ret

00002420 <prvResetNextTaskUnblockTime>:
    2420:	e0 91 c7 12 	lds	r30, 0x12C7	; 0x8012c7 <pxDelayedTaskList>
    2424:	f0 91 c8 12 	lds	r31, 0x12C8	; 0x8012c8 <pxDelayedTaskList+0x1>
    2428:	80 81       	ld	r24, Z
    242a:	81 11       	cpse	r24, r1
    242c:	0c c0       	rjmp	.+24     	; 0x2446 <prvResetNextTaskUnblockTime+0x26>
    242e:	8f ef       	ldi	r24, 0xFF	; 255
    2430:	9f ef       	ldi	r25, 0xFF	; 255
    2432:	dc 01       	movw	r26, r24
    2434:	80 93 91 12 	sts	0x1291, r24	; 0x801291 <xNextTaskUnblockTime>
    2438:	90 93 92 12 	sts	0x1292, r25	; 0x801292 <xNextTaskUnblockTime+0x1>
    243c:	a0 93 93 12 	sts	0x1293, r26	; 0x801293 <xNextTaskUnblockTime+0x2>
    2440:	b0 93 94 12 	sts	0x1294, r27	; 0x801294 <xNextTaskUnblockTime+0x3>
    2444:	08 95       	ret
    2446:	e0 91 c7 12 	lds	r30, 0x12C7	; 0x8012c7 <pxDelayedTaskList>
    244a:	f0 91 c8 12 	lds	r31, 0x12C8	; 0x8012c8 <pxDelayedTaskList+0x1>
    244e:	07 80       	ldd	r0, Z+7	; 0x07
    2450:	f0 85       	ldd	r31, Z+8	; 0x08
    2452:	e0 2d       	mov	r30, r0
    2454:	80 81       	ld	r24, Z
    2456:	91 81       	ldd	r25, Z+1	; 0x01
    2458:	a2 81       	ldd	r26, Z+2	; 0x02
    245a:	b3 81       	ldd	r27, Z+3	; 0x03
    245c:	80 93 91 12 	sts	0x1291, r24	; 0x801291 <xNextTaskUnblockTime>
    2460:	90 93 92 12 	sts	0x1292, r25	; 0x801292 <xNextTaskUnblockTime+0x1>
    2464:	a0 93 93 12 	sts	0x1293, r26	; 0x801293 <xNextTaskUnblockTime+0x2>
    2468:	b0 93 94 12 	sts	0x1294, r27	; 0x801294 <xNextTaskUnblockTime+0x3>
    246c:	08 95       	ret

0000246e <prvAddCurrentTaskToDelayedList>:
    246e:	8f 92       	push	r8
    2470:	9f 92       	push	r9
    2472:	af 92       	push	r10
    2474:	bf 92       	push	r11
    2476:	cf 92       	push	r12
    2478:	df 92       	push	r13
    247a:	ef 92       	push	r14
    247c:	ff 92       	push	r15
    247e:	cf 93       	push	r28
    2480:	df 93       	push	r29
    2482:	6b 01       	movw	r12, r22
    2484:	7c 01       	movw	r14, r24
    2486:	c4 2f       	mov	r28, r20
    2488:	80 90 9e 12 	lds	r8, 0x129E	; 0x80129e <xTickCount>
    248c:	90 90 9f 12 	lds	r9, 0x129F	; 0x80129f <xTickCount+0x1>
    2490:	a0 90 a0 12 	lds	r10, 0x12A0	; 0x8012a0 <xTickCount+0x2>
    2494:	b0 90 a1 12 	lds	r11, 0x12A1	; 0x8012a1 <xTickCount+0x3>
    2498:	80 91 4d 13 	lds	r24, 0x134D	; 0x80134d <pxCurrentTCB>
    249c:	90 91 4e 13 	lds	r25, 0x134E	; 0x80134e <pxCurrentTCB+0x1>
    24a0:	02 96       	adiw	r24, 0x02	; 2
    24a2:	0e 94 20 0a 	call	0x1440	; 0x1440 <uxListRemove>
    24a6:	8f ef       	ldi	r24, 0xFF	; 255
    24a8:	c8 16       	cp	r12, r24
    24aa:	d8 06       	cpc	r13, r24
    24ac:	e8 06       	cpc	r14, r24
    24ae:	f8 06       	cpc	r15, r24
    24b0:	b1 f5       	brne	.+108    	; 0x251e <prvAddCurrentTaskToDelayedList+0xb0>
    24b2:	cc 23       	and	r28, r28
    24b4:	a1 f1       	breq	.+104    	; 0x251e <prvAddCurrentTaskToDelayedList+0xb0>
    24b6:	e3 ea       	ldi	r30, 0xA3	; 163
    24b8:	f2 e1       	ldi	r31, 0x12	; 18
    24ba:	a1 81       	ldd	r26, Z+1	; 0x01
    24bc:	b2 81       	ldd	r27, Z+2	; 0x02
    24be:	c0 91 4d 13 	lds	r28, 0x134D	; 0x80134d <pxCurrentTCB>
    24c2:	d0 91 4e 13 	lds	r29, 0x134E	; 0x80134e <pxCurrentTCB+0x1>
    24c6:	bf 83       	std	Y+7, r27	; 0x07
    24c8:	ae 83       	std	Y+6, r26	; 0x06
    24ca:	c0 91 4d 13 	lds	r28, 0x134D	; 0x80134d <pxCurrentTCB>
    24ce:	d0 91 4e 13 	lds	r29, 0x134E	; 0x80134e <pxCurrentTCB+0x1>
    24d2:	16 96       	adiw	r26, 0x06	; 6
    24d4:	8d 91       	ld	r24, X+
    24d6:	9c 91       	ld	r25, X
    24d8:	17 97       	sbiw	r26, 0x07	; 7
    24da:	99 87       	std	Y+9, r25	; 0x09
    24dc:	88 87       	std	Y+8, r24	; 0x08
    24de:	16 96       	adiw	r26, 0x06	; 6
    24e0:	cd 91       	ld	r28, X+
    24e2:	dc 91       	ld	r29, X
    24e4:	17 97       	sbiw	r26, 0x07	; 7
    24e6:	80 91 4d 13 	lds	r24, 0x134D	; 0x80134d <pxCurrentTCB>
    24ea:	90 91 4e 13 	lds	r25, 0x134E	; 0x80134e <pxCurrentTCB+0x1>
    24ee:	02 96       	adiw	r24, 0x02	; 2
    24f0:	9d 83       	std	Y+5, r25	; 0x05
    24f2:	8c 83       	std	Y+4, r24	; 0x04
    24f4:	80 91 4d 13 	lds	r24, 0x134D	; 0x80134d <pxCurrentTCB>
    24f8:	90 91 4e 13 	lds	r25, 0x134E	; 0x80134e <pxCurrentTCB+0x1>
    24fc:	02 96       	adiw	r24, 0x02	; 2
    24fe:	17 96       	adiw	r26, 0x07	; 7
    2500:	9c 93       	st	X, r25
    2502:	8e 93       	st	-X, r24
    2504:	16 97       	sbiw	r26, 0x06	; 6
    2506:	a0 91 4d 13 	lds	r26, 0x134D	; 0x80134d <pxCurrentTCB>
    250a:	b0 91 4e 13 	lds	r27, 0x134E	; 0x80134e <pxCurrentTCB+0x1>
    250e:	1d 96       	adiw	r26, 0x0d	; 13
    2510:	fc 93       	st	X, r31
    2512:	ee 93       	st	-X, r30
    2514:	1c 97       	sbiw	r26, 0x0c	; 12
    2516:	80 81       	ld	r24, Z
    2518:	8f 5f       	subi	r24, 0xFF	; 255
    251a:	80 83       	st	Z, r24
    251c:	3f c0       	rjmp	.+126    	; 0x259c <prvAddCurrentTaskToDelayedList+0x12e>
    251e:	c8 0c       	add	r12, r8
    2520:	d9 1c       	adc	r13, r9
    2522:	ea 1c       	adc	r14, r10
    2524:	fb 1c       	adc	r15, r11
    2526:	e0 91 4d 13 	lds	r30, 0x134D	; 0x80134d <pxCurrentTCB>
    252a:	f0 91 4e 13 	lds	r31, 0x134E	; 0x80134e <pxCurrentTCB+0x1>
    252e:	c2 82       	std	Z+2, r12	; 0x02
    2530:	d3 82       	std	Z+3, r13	; 0x03
    2532:	e4 82       	std	Z+4, r14	; 0x04
    2534:	f5 82       	std	Z+5, r15	; 0x05
    2536:	c8 14       	cp	r12, r8
    2538:	d9 04       	cpc	r13, r9
    253a:	ea 04       	cpc	r14, r10
    253c:	fb 04       	cpc	r15, r11
    253e:	68 f4       	brcc	.+26     	; 0x255a <prvAddCurrentTaskToDelayedList+0xec>
    2540:	60 91 4d 13 	lds	r22, 0x134D	; 0x80134d <pxCurrentTCB>
    2544:	70 91 4e 13 	lds	r23, 0x134E	; 0x80134e <pxCurrentTCB+0x1>
    2548:	80 91 c5 12 	lds	r24, 0x12C5	; 0x8012c5 <pxOverflowDelayedTaskList>
    254c:	90 91 c6 12 	lds	r25, 0x12C6	; 0x8012c6 <pxOverflowDelayedTaskList+0x1>
    2550:	6e 5f       	subi	r22, 0xFE	; 254
    2552:	7f 4f       	sbci	r23, 0xFF	; 255
    2554:	0e 94 e3 09 	call	0x13c6	; 0x13c6 <vListInsert>
    2558:	21 c0       	rjmp	.+66     	; 0x259c <prvAddCurrentTaskToDelayedList+0x12e>
    255a:	60 91 4d 13 	lds	r22, 0x134D	; 0x80134d <pxCurrentTCB>
    255e:	70 91 4e 13 	lds	r23, 0x134E	; 0x80134e <pxCurrentTCB+0x1>
    2562:	80 91 c7 12 	lds	r24, 0x12C7	; 0x8012c7 <pxDelayedTaskList>
    2566:	90 91 c8 12 	lds	r25, 0x12C8	; 0x8012c8 <pxDelayedTaskList+0x1>
    256a:	6e 5f       	subi	r22, 0xFE	; 254
    256c:	7f 4f       	sbci	r23, 0xFF	; 255
    256e:	0e 94 e3 09 	call	0x13c6	; 0x13c6 <vListInsert>
    2572:	80 91 91 12 	lds	r24, 0x1291	; 0x801291 <xNextTaskUnblockTime>
    2576:	90 91 92 12 	lds	r25, 0x1292	; 0x801292 <xNextTaskUnblockTime+0x1>
    257a:	a0 91 93 12 	lds	r26, 0x1293	; 0x801293 <xNextTaskUnblockTime+0x2>
    257e:	b0 91 94 12 	lds	r27, 0x1294	; 0x801294 <xNextTaskUnblockTime+0x3>
    2582:	c8 16       	cp	r12, r24
    2584:	d9 06       	cpc	r13, r25
    2586:	ea 06       	cpc	r14, r26
    2588:	fb 06       	cpc	r15, r27
    258a:	40 f4       	brcc	.+16     	; 0x259c <prvAddCurrentTaskToDelayedList+0x12e>
    258c:	c0 92 91 12 	sts	0x1291, r12	; 0x801291 <xNextTaskUnblockTime>
    2590:	d0 92 92 12 	sts	0x1292, r13	; 0x801292 <xNextTaskUnblockTime+0x1>
    2594:	e0 92 93 12 	sts	0x1293, r14	; 0x801293 <xNextTaskUnblockTime+0x2>
    2598:	f0 92 94 12 	sts	0x1294, r15	; 0x801294 <xNextTaskUnblockTime+0x3>
    259c:	df 91       	pop	r29
    259e:	cf 91       	pop	r28
    25a0:	ff 90       	pop	r15
    25a2:	ef 90       	pop	r14
    25a4:	df 90       	pop	r13
    25a6:	cf 90       	pop	r12
    25a8:	bf 90       	pop	r11
    25aa:	af 90       	pop	r10
    25ac:	9f 90       	pop	r9
    25ae:	8f 90       	pop	r8
    25b0:	08 95       	ret

000025b2 <xTaskCreate>:
    25b2:	4f 92       	push	r4
    25b4:	5f 92       	push	r5
    25b6:	6f 92       	push	r6
    25b8:	7f 92       	push	r7
    25ba:	8f 92       	push	r8
    25bc:	9f 92       	push	r9
    25be:	af 92       	push	r10
    25c0:	bf 92       	push	r11
    25c2:	cf 92       	push	r12
    25c4:	df 92       	push	r13
    25c6:	ef 92       	push	r14
    25c8:	ff 92       	push	r15
    25ca:	0f 93       	push	r16
    25cc:	1f 93       	push	r17
    25ce:	cf 93       	push	r28
    25d0:	df 93       	push	r29
    25d2:	4c 01       	movw	r8, r24
    25d4:	6b 01       	movw	r12, r22
    25d6:	5a 01       	movw	r10, r20
    25d8:	29 01       	movw	r4, r18
    25da:	ca 01       	movw	r24, r20
    25dc:	0e 94 cc 08 	call	0x1198	; 0x1198 <pvPortMalloc>
    25e0:	3c 01       	movw	r6, r24
    25e2:	89 2b       	or	r24, r25
    25e4:	09 f4       	brne	.+2      	; 0x25e8 <xTaskCreate+0x36>
    25e6:	0d c1       	rjmp	.+538    	; 0x2802 <xTaskCreate+0x250>
    25e8:	84 e3       	ldi	r24, 0x34	; 52
    25ea:	90 e0       	ldi	r25, 0x00	; 0
    25ec:	0e 94 cc 08 	call	0x1198	; 0x1198 <pvPortMalloc>
    25f0:	ec 01       	movw	r28, r24
    25f2:	89 2b       	or	r24, r25
    25f4:	99 f0       	breq	.+38     	; 0x261c <xTaskCreate+0x6a>
    25f6:	7c 8e       	std	Y+28, r7	; 0x1c
    25f8:	6b 8e       	std	Y+27, r6	; 0x1b
    25fa:	a5 01       	movw	r20, r10
    25fc:	65 ea       	ldi	r22, 0xA5	; 165
    25fe:	70 e0       	ldi	r23, 0x00	; 0
    2600:	c3 01       	movw	r24, r6
    2602:	0e 94 b4 36 	call	0x6d68	; 0x6d68 <memset>
    2606:	81 e0       	ldi	r24, 0x01	; 1
    2608:	a8 1a       	sub	r10, r24
    260a:	b1 08       	sbc	r11, r1
    260c:	8b 8d       	ldd	r24, Y+27	; 0x1b
    260e:	9c 8d       	ldd	r25, Y+28	; 0x1c
    2610:	a8 0e       	add	r10, r24
    2612:	b9 1e       	adc	r11, r25
    2614:	c1 14       	cp	r12, r1
    2616:	d1 04       	cpc	r13, r1
    2618:	29 f4       	brne	.+10     	; 0x2624 <xTaskCreate+0x72>
    261a:	20 c0       	rjmp	.+64     	; 0x265c <xTaskCreate+0xaa>
    261c:	c3 01       	movw	r24, r6
    261e:	0e 94 94 09 	call	0x1328	; 0x1328 <vPortFree>
    2622:	ef c0       	rjmp	.+478    	; 0x2802 <xTaskCreate+0x250>
    2624:	d6 01       	movw	r26, r12
    2626:	8c 91       	ld	r24, X
    2628:	8d 8f       	std	Y+29, r24	; 0x1d
    262a:	8c 91       	ld	r24, X
    262c:	88 23       	and	r24, r24
    262e:	a1 f0       	breq	.+40     	; 0x2658 <xTaskCreate+0xa6>
    2630:	ae 01       	movw	r20, r28
    2632:	42 5e       	subi	r20, 0xE2	; 226
    2634:	5f 4f       	sbci	r21, 0xFF	; 255
    2636:	f6 01       	movw	r30, r12
    2638:	31 96       	adiw	r30, 0x01	; 1
    263a:	b0 e1       	ldi	r27, 0x10	; 16
    263c:	cb 0e       	add	r12, r27
    263e:	d1 1c       	adc	r13, r1
    2640:	cf 01       	movw	r24, r30
    2642:	21 91       	ld	r18, Z+
    2644:	da 01       	movw	r26, r20
    2646:	2d 93       	st	X+, r18
    2648:	ad 01       	movw	r20, r26
    264a:	dc 01       	movw	r26, r24
    264c:	8c 91       	ld	r24, X
    264e:	88 23       	and	r24, r24
    2650:	19 f0       	breq	.+6      	; 0x2658 <xTaskCreate+0xa6>
    2652:	ce 16       	cp	r12, r30
    2654:	df 06       	cpc	r13, r31
    2656:	a1 f7       	brne	.-24     	; 0x2640 <xTaskCreate+0x8e>
    2658:	1c a6       	std	Y+44, r1	; 0x2c
    265a:	01 c0       	rjmp	.+2      	; 0x265e <xTaskCreate+0xac>
    265c:	1d 8e       	std	Y+29, r1	; 0x1d
    265e:	0a 30       	cpi	r16, 0x0A	; 10
    2660:	08 f0       	brcs	.+2      	; 0x2664 <xTaskCreate+0xb2>
    2662:	09 e0       	ldi	r16, 0x09	; 9
    2664:	0a 8f       	std	Y+26, r16	; 0x1a
    2666:	0d a7       	std	Y+45, r16	; 0x2d
    2668:	1e a6       	std	Y+46, r1	; 0x2e
    266a:	6e 01       	movw	r12, r28
    266c:	b2 e0       	ldi	r27, 0x02	; 2
    266e:	cb 0e       	add	r12, r27
    2670:	d1 1c       	adc	r13, r1
    2672:	c6 01       	movw	r24, r12
    2674:	0e 94 df 09 	call	0x13be	; 0x13be <vListInitialiseItem>
    2678:	ce 01       	movw	r24, r28
    267a:	0e 96       	adiw	r24, 0x0e	; 14
    267c:	0e 94 df 09 	call	0x13be	; 0x13be <vListInitialiseItem>
    2680:	db 87       	std	Y+11, r29	; 0x0b
    2682:	ca 87       	std	Y+10, r28	; 0x0a
    2684:	8a e0       	ldi	r24, 0x0A	; 10
    2686:	90 e0       	ldi	r25, 0x00	; 0
    2688:	a0 e0       	ldi	r26, 0x00	; 0
    268a:	b0 e0       	ldi	r27, 0x00	; 0
    268c:	80 1b       	sub	r24, r16
    268e:	91 09       	sbc	r25, r1
    2690:	a1 09       	sbc	r26, r1
    2692:	b1 09       	sbc	r27, r1
    2694:	8e 87       	std	Y+14, r24	; 0x0e
    2696:	9f 87       	std	Y+15, r25	; 0x0f
    2698:	a8 8b       	std	Y+16, r26	; 0x10
    269a:	b9 8b       	std	Y+17, r27	; 0x11
    269c:	df 8b       	std	Y+23, r29	; 0x17
    269e:	ce 8b       	std	Y+22, r28	; 0x16
    26a0:	84 e0       	ldi	r24, 0x04	; 4
    26a2:	fe 01       	movw	r30, r28
    26a4:	bf 96       	adiw	r30, 0x2f	; 47
    26a6:	df 01       	movw	r26, r30
    26a8:	1d 92       	st	X+, r1
    26aa:	8a 95       	dec	r24
    26ac:	e9 f7       	brne	.-6      	; 0x26a8 <xTaskCreate+0xf6>
    26ae:	1b aa       	std	Y+51, r1	; 0x33
    26b0:	a2 01       	movw	r20, r4
    26b2:	b4 01       	movw	r22, r8
    26b4:	c5 01       	movw	r24, r10
    26b6:	0e 94 47 0a 	call	0x148e	; 0x148e <pxPortInitialiseStack>
    26ba:	99 83       	std	Y+1, r25	; 0x01
    26bc:	88 83       	st	Y, r24
    26be:	e1 14       	cp	r14, r1
    26c0:	f1 04       	cpc	r15, r1
    26c2:	19 f0       	breq	.+6      	; 0x26ca <xTaskCreate+0x118>
    26c4:	f7 01       	movw	r30, r14
    26c6:	d1 83       	std	Z+1, r29	; 0x01
    26c8:	c0 83       	st	Z, r28
    26ca:	0f b6       	in	r0, 0x3f	; 63
    26cc:	f8 94       	cli
    26ce:	0f 92       	push	r0
    26d0:	80 91 a2 12 	lds	r24, 0x12A2	; 0x8012a2 <uxCurrentNumberOfTasks>
    26d4:	8f 5f       	subi	r24, 0xFF	; 255
    26d6:	80 93 a2 12 	sts	0x12A2, r24	; 0x8012a2 <uxCurrentNumberOfTasks>
    26da:	80 91 4d 13 	lds	r24, 0x134D	; 0x80134d <pxCurrentTCB>
    26de:	90 91 4e 13 	lds	r25, 0x134E	; 0x80134e <pxCurrentTCB+0x1>
    26e2:	89 2b       	or	r24, r25
    26e4:	d1 f5       	brne	.+116    	; 0x275a <xTaskCreate+0x1a8>
    26e6:	d0 93 4e 13 	sts	0x134E, r29	; 0x80134e <pxCurrentTCB+0x1>
    26ea:	c0 93 4d 13 	sts	0x134D, r28	; 0x80134d <pxCurrentTCB>
    26ee:	80 91 a2 12 	lds	r24, 0x12A2	; 0x8012a2 <uxCurrentNumberOfTasks>
    26f2:	81 30       	cpi	r24, 0x01	; 1
    26f4:	09 f0       	breq	.+2      	; 0x26f8 <xTaskCreate+0x146>
    26f6:	41 c0       	rjmp	.+130    	; 0x277a <xTaskCreate+0x1c8>
    26f8:	0f ed       	ldi	r16, 0xDF	; 223
    26fa:	12 e1       	ldi	r17, 0x12	; 18
    26fc:	0f 2e       	mov	r0, r31
    26fe:	fd e4       	ldi	r31, 0x4D	; 77
    2700:	ef 2e       	mov	r14, r31
    2702:	f3 e1       	ldi	r31, 0x13	; 19
    2704:	ff 2e       	mov	r15, r31
    2706:	f0 2d       	mov	r31, r0
    2708:	c8 01       	movw	r24, r16
    270a:	0e 94 ce 09 	call	0x139c	; 0x139c <vListInitialise>
    270e:	05 5f       	subi	r16, 0xF5	; 245
    2710:	1f 4f       	sbci	r17, 0xFF	; 255
    2712:	0e 15       	cp	r16, r14
    2714:	1f 05       	cpc	r17, r15
    2716:	c1 f7       	brne	.-16     	; 0x2708 <xTaskCreate+0x156>
    2718:	84 ed       	ldi	r24, 0xD4	; 212
    271a:	92 e1       	ldi	r25, 0x12	; 18
    271c:	0e 94 ce 09 	call	0x139c	; 0x139c <vListInitialise>
    2720:	89 ec       	ldi	r24, 0xC9	; 201
    2722:	92 e1       	ldi	r25, 0x12	; 18
    2724:	0e 94 ce 09 	call	0x139c	; 0x139c <vListInitialise>
    2728:	8a eb       	ldi	r24, 0xBA	; 186
    272a:	92 e1       	ldi	r25, 0x12	; 18
    272c:	0e 94 ce 09 	call	0x139c	; 0x139c <vListInitialise>
    2730:	8f ea       	ldi	r24, 0xAF	; 175
    2732:	92 e1       	ldi	r25, 0x12	; 18
    2734:	0e 94 ce 09 	call	0x139c	; 0x139c <vListInitialise>
    2738:	83 ea       	ldi	r24, 0xA3	; 163
    273a:	92 e1       	ldi	r25, 0x12	; 18
    273c:	0e 94 ce 09 	call	0x139c	; 0x139c <vListInitialise>
    2740:	84 ed       	ldi	r24, 0xD4	; 212
    2742:	92 e1       	ldi	r25, 0x12	; 18
    2744:	90 93 c8 12 	sts	0x12C8, r25	; 0x8012c8 <pxDelayedTaskList+0x1>
    2748:	80 93 c7 12 	sts	0x12C7, r24	; 0x8012c7 <pxDelayedTaskList>
    274c:	89 ec       	ldi	r24, 0xC9	; 201
    274e:	92 e1       	ldi	r25, 0x12	; 18
    2750:	90 93 c6 12 	sts	0x12C6, r25	; 0x8012c6 <pxOverflowDelayedTaskList+0x1>
    2754:	80 93 c5 12 	sts	0x12C5, r24	; 0x8012c5 <pxOverflowDelayedTaskList>
    2758:	10 c0       	rjmp	.+32     	; 0x277a <xTaskCreate+0x1c8>
    275a:	80 91 9c 12 	lds	r24, 0x129C	; 0x80129c <xSchedulerRunning>
    275e:	81 11       	cpse	r24, r1
    2760:	0c c0       	rjmp	.+24     	; 0x277a <xTaskCreate+0x1c8>
    2762:	e0 91 4d 13 	lds	r30, 0x134D	; 0x80134d <pxCurrentTCB>
    2766:	f0 91 4e 13 	lds	r31, 0x134E	; 0x80134e <pxCurrentTCB+0x1>
    276a:	92 8d       	ldd	r25, Z+26	; 0x1a
    276c:	8a 8d       	ldd	r24, Y+26	; 0x1a
    276e:	89 17       	cp	r24, r25
    2770:	20 f0       	brcs	.+8      	; 0x277a <xTaskCreate+0x1c8>
    2772:	d0 93 4e 13 	sts	0x134E, r29	; 0x80134e <pxCurrentTCB+0x1>
    2776:	c0 93 4d 13 	sts	0x134D, r28	; 0x80134d <pxCurrentTCB>
    277a:	80 91 95 12 	lds	r24, 0x1295	; 0x801295 <uxTaskNumber>
    277e:	8f 5f       	subi	r24, 0xFF	; 255
    2780:	80 93 95 12 	sts	0x1295, r24	; 0x801295 <uxTaskNumber>
    2784:	ea 8d       	ldd	r30, Y+26	; 0x1a
    2786:	80 91 9d 12 	lds	r24, 0x129D	; 0x80129d <uxTopReadyPriority>
    278a:	8e 17       	cp	r24, r30
    278c:	10 f4       	brcc	.+4      	; 0x2792 <xTaskCreate+0x1e0>
    278e:	e0 93 9d 12 	sts	0x129D, r30	; 0x80129d <uxTopReadyPriority>
    2792:	8b e0       	ldi	r24, 0x0B	; 11
    2794:	8e 9f       	mul	r24, r30
    2796:	f0 01       	movw	r30, r0
    2798:	11 24       	eor	r1, r1
    279a:	e1 52       	subi	r30, 0x21	; 33
    279c:	fd 4e       	sbci	r31, 0xED	; 237
    279e:	01 80       	ldd	r0, Z+1	; 0x01
    27a0:	f2 81       	ldd	r31, Z+2	; 0x02
    27a2:	e0 2d       	mov	r30, r0
    27a4:	ff 83       	std	Y+7, r31	; 0x07
    27a6:	ee 83       	std	Y+6, r30	; 0x06
    27a8:	26 81       	ldd	r18, Z+6	; 0x06
    27aa:	37 81       	ldd	r19, Z+7	; 0x07
    27ac:	39 87       	std	Y+9, r19	; 0x09
    27ae:	28 87       	std	Y+8, r18	; 0x08
    27b0:	a6 81       	ldd	r26, Z+6	; 0x06
    27b2:	b7 81       	ldd	r27, Z+7	; 0x07
    27b4:	15 96       	adiw	r26, 0x05	; 5
    27b6:	dc 92       	st	X, r13
    27b8:	ce 92       	st	-X, r12
    27ba:	14 97       	sbiw	r26, 0x04	; 4
    27bc:	d7 82       	std	Z+7, r13	; 0x07
    27be:	c6 82       	std	Z+6, r12	; 0x06
    27c0:	ea 8d       	ldd	r30, Y+26	; 0x1a
    27c2:	8e 9f       	mul	r24, r30
    27c4:	f0 01       	movw	r30, r0
    27c6:	11 24       	eor	r1, r1
    27c8:	e1 52       	subi	r30, 0x21	; 33
    27ca:	fd 4e       	sbci	r31, 0xED	; 237
    27cc:	fd 87       	std	Y+13, r31	; 0x0d
    27ce:	ec 87       	std	Y+12, r30	; 0x0c
    27d0:	80 81       	ld	r24, Z
    27d2:	8f 5f       	subi	r24, 0xFF	; 255
    27d4:	80 83       	st	Z, r24
    27d6:	0f 90       	pop	r0
    27d8:	0f be       	out	0x3f, r0	; 63
    27da:	80 91 9c 12 	lds	r24, 0x129C	; 0x80129c <xSchedulerRunning>
    27de:	88 23       	and	r24, r24
    27e0:	61 f0       	breq	.+24     	; 0x27fa <xTaskCreate+0x248>
    27e2:	e0 91 4d 13 	lds	r30, 0x134D	; 0x80134d <pxCurrentTCB>
    27e6:	f0 91 4e 13 	lds	r31, 0x134E	; 0x80134e <pxCurrentTCB+0x1>
    27ea:	92 8d       	ldd	r25, Z+26	; 0x1a
    27ec:	8a 8d       	ldd	r24, Y+26	; 0x1a
    27ee:	98 17       	cp	r25, r24
    27f0:	30 f4       	brcc	.+12     	; 0x27fe <xTaskCreate+0x24c>
    27f2:	0e 94 9a 0a 	call	0x1534	; 0x1534 <vPortYield>
    27f6:	81 e0       	ldi	r24, 0x01	; 1
    27f8:	05 c0       	rjmp	.+10     	; 0x2804 <xTaskCreate+0x252>
    27fa:	81 e0       	ldi	r24, 0x01	; 1
    27fc:	03 c0       	rjmp	.+6      	; 0x2804 <xTaskCreate+0x252>
    27fe:	81 e0       	ldi	r24, 0x01	; 1
    2800:	01 c0       	rjmp	.+2      	; 0x2804 <xTaskCreate+0x252>
    2802:	8f ef       	ldi	r24, 0xFF	; 255
    2804:	df 91       	pop	r29
    2806:	cf 91       	pop	r28
    2808:	1f 91       	pop	r17
    280a:	0f 91       	pop	r16
    280c:	ff 90       	pop	r15
    280e:	ef 90       	pop	r14
    2810:	df 90       	pop	r13
    2812:	cf 90       	pop	r12
    2814:	bf 90       	pop	r11
    2816:	af 90       	pop	r10
    2818:	9f 90       	pop	r9
    281a:	8f 90       	pop	r8
    281c:	7f 90       	pop	r7
    281e:	6f 90       	pop	r6
    2820:	5f 90       	pop	r5
    2822:	4f 90       	pop	r4
    2824:	08 95       	ret

00002826 <vTaskStartScheduler>:
    2826:	ef 92       	push	r14
    2828:	ff 92       	push	r15
    282a:	0f 93       	push	r16
    282c:	0f 2e       	mov	r0, r31
    282e:	ff e8       	ldi	r31, 0x8F	; 143
    2830:	ef 2e       	mov	r14, r31
    2832:	f2 e1       	ldi	r31, 0x12	; 18
    2834:	ff 2e       	mov	r15, r31
    2836:	f0 2d       	mov	r31, r0
    2838:	00 e0       	ldi	r16, 0x00	; 0
    283a:	20 e0       	ldi	r18, 0x00	; 0
    283c:	30 e0       	ldi	r19, 0x00	; 0
    283e:	40 ec       	ldi	r20, 0xC0	; 192
    2840:	50 e0       	ldi	r21, 0x00	; 0
    2842:	6b ec       	ldi	r22, 0xCB	; 203
    2844:	73 e0       	ldi	r23, 0x03	; 3
    2846:	8e e0       	ldi	r24, 0x0E	; 14
    2848:	91 e0       	ldi	r25, 0x01	; 1
    284a:	b3 de       	rcall	.-666    	; 0x25b2 <xTaskCreate>
    284c:	81 30       	cpi	r24, 0x01	; 1
    284e:	e9 f4       	brne	.+58     	; 0x288a <vTaskStartScheduler+0x64>
    2850:	0e 94 40 1d 	call	0x3a80	; 0x3a80 <xTimerCreateTimerTask>
    2854:	81 30       	cpi	r24, 0x01	; 1
    2856:	c9 f4       	brne	.+50     	; 0x288a <vTaskStartScheduler+0x64>
    2858:	f8 94       	cli
    285a:	8f ef       	ldi	r24, 0xFF	; 255
    285c:	9f ef       	ldi	r25, 0xFF	; 255
    285e:	dc 01       	movw	r26, r24
    2860:	80 93 91 12 	sts	0x1291, r24	; 0x801291 <xNextTaskUnblockTime>
    2864:	90 93 92 12 	sts	0x1292, r25	; 0x801292 <xNextTaskUnblockTime+0x1>
    2868:	a0 93 93 12 	sts	0x1293, r26	; 0x801293 <xNextTaskUnblockTime+0x2>
    286c:	b0 93 94 12 	sts	0x1294, r27	; 0x801294 <xNextTaskUnblockTime+0x3>
    2870:	81 e0       	ldi	r24, 0x01	; 1
    2872:	80 93 9c 12 	sts	0x129C, r24	; 0x80129c <xSchedulerRunning>
    2876:	10 92 9e 12 	sts	0x129E, r1	; 0x80129e <xTickCount>
    287a:	10 92 9f 12 	sts	0x129F, r1	; 0x80129f <xTickCount+0x1>
    287e:	10 92 a0 12 	sts	0x12A0, r1	; 0x8012a0 <xTickCount+0x2>
    2882:	10 92 a1 12 	sts	0x12A1, r1	; 0x8012a1 <xTickCount+0x3>
    2886:	0e 94 5e 0a 	call	0x14bc	; 0x14bc <xPortStartScheduler>
    288a:	80 91 06 02 	lds	r24, 0x0206	; 0x800206 <uxTopUsedPriority>
    288e:	0f 91       	pop	r16
    2890:	ff 90       	pop	r15
    2892:	ef 90       	pop	r14
    2894:	08 95       	ret

00002896 <vTaskSuspendAll>:
    2896:	80 91 8e 12 	lds	r24, 0x128E	; 0x80128e <uxSchedulerSuspended>
    289a:	8f 5f       	subi	r24, 0xFF	; 255
    289c:	80 93 8e 12 	sts	0x128E, r24	; 0x80128e <uxSchedulerSuspended>
    28a0:	08 95       	ret

000028a2 <xTaskGetTickCount>:
    28a2:	0f b6       	in	r0, 0x3f	; 63
    28a4:	f8 94       	cli
    28a6:	0f 92       	push	r0
    28a8:	60 91 9e 12 	lds	r22, 0x129E	; 0x80129e <xTickCount>
    28ac:	70 91 9f 12 	lds	r23, 0x129F	; 0x80129f <xTickCount+0x1>
    28b0:	80 91 a0 12 	lds	r24, 0x12A0	; 0x8012a0 <xTickCount+0x2>
    28b4:	90 91 a1 12 	lds	r25, 0x12A1	; 0x8012a1 <xTickCount+0x3>
    28b8:	0f 90       	pop	r0
    28ba:	0f be       	out	0x3f, r0	; 63
    28bc:	08 95       	ret

000028be <xTaskIncrementTick>:
    28be:	cf 92       	push	r12
    28c0:	df 92       	push	r13
    28c2:	ef 92       	push	r14
    28c4:	ff 92       	push	r15
    28c6:	0f 93       	push	r16
    28c8:	1f 93       	push	r17
    28ca:	cf 93       	push	r28
    28cc:	df 93       	push	r29
    28ce:	80 91 8e 12 	lds	r24, 0x128E	; 0x80128e <uxSchedulerSuspended>
    28d2:	81 11       	cpse	r24, r1
    28d4:	07 c1       	rjmp	.+526    	; 0x2ae4 <xTaskIncrementTick+0x226>
    28d6:	c0 90 9e 12 	lds	r12, 0x129E	; 0x80129e <xTickCount>
    28da:	d0 90 9f 12 	lds	r13, 0x129F	; 0x80129f <xTickCount+0x1>
    28de:	e0 90 a0 12 	lds	r14, 0x12A0	; 0x8012a0 <xTickCount+0x2>
    28e2:	f0 90 a1 12 	lds	r15, 0x12A1	; 0x8012a1 <xTickCount+0x3>
    28e6:	8f ef       	ldi	r24, 0xFF	; 255
    28e8:	c8 1a       	sub	r12, r24
    28ea:	d8 0a       	sbc	r13, r24
    28ec:	e8 0a       	sbc	r14, r24
    28ee:	f8 0a       	sbc	r15, r24
    28f0:	c0 92 9e 12 	sts	0x129E, r12	; 0x80129e <xTickCount>
    28f4:	d0 92 9f 12 	sts	0x129F, r13	; 0x80129f <xTickCount+0x1>
    28f8:	e0 92 a0 12 	sts	0x12A0, r14	; 0x8012a0 <xTickCount+0x2>
    28fc:	f0 92 a1 12 	sts	0x12A1, r15	; 0x8012a1 <xTickCount+0x3>
    2900:	c1 14       	cp	r12, r1
    2902:	d1 04       	cpc	r13, r1
    2904:	e1 04       	cpc	r14, r1
    2906:	f1 04       	cpc	r15, r1
    2908:	b1 f4       	brne	.+44     	; 0x2936 <xTaskIncrementTick+0x78>
    290a:	80 91 c7 12 	lds	r24, 0x12C7	; 0x8012c7 <pxDelayedTaskList>
    290e:	90 91 c8 12 	lds	r25, 0x12C8	; 0x8012c8 <pxDelayedTaskList+0x1>
    2912:	20 91 c5 12 	lds	r18, 0x12C5	; 0x8012c5 <pxOverflowDelayedTaskList>
    2916:	30 91 c6 12 	lds	r19, 0x12C6	; 0x8012c6 <pxOverflowDelayedTaskList+0x1>
    291a:	30 93 c8 12 	sts	0x12C8, r19	; 0x8012c8 <pxDelayedTaskList+0x1>
    291e:	20 93 c7 12 	sts	0x12C7, r18	; 0x8012c7 <pxDelayedTaskList>
    2922:	90 93 c6 12 	sts	0x12C6, r25	; 0x8012c6 <pxOverflowDelayedTaskList+0x1>
    2926:	80 93 c5 12 	sts	0x12C5, r24	; 0x8012c5 <pxOverflowDelayedTaskList>
    292a:	80 91 96 12 	lds	r24, 0x1296	; 0x801296 <xNumOfOverflows>
    292e:	8f 5f       	subi	r24, 0xFF	; 255
    2930:	80 93 96 12 	sts	0x1296, r24	; 0x801296 <xNumOfOverflows>
    2934:	75 dd       	rcall	.-1302   	; 0x2420 <prvResetNextTaskUnblockTime>
    2936:	80 91 91 12 	lds	r24, 0x1291	; 0x801291 <xNextTaskUnblockTime>
    293a:	90 91 92 12 	lds	r25, 0x1292	; 0x801292 <xNextTaskUnblockTime+0x1>
    293e:	a0 91 93 12 	lds	r26, 0x1293	; 0x801293 <xNextTaskUnblockTime+0x2>
    2942:	b0 91 94 12 	lds	r27, 0x1294	; 0x801294 <xNextTaskUnblockTime+0x3>
    2946:	c8 16       	cp	r12, r24
    2948:	d9 06       	cpc	r13, r25
    294a:	ea 06       	cpc	r14, r26
    294c:	fb 06       	cpc	r15, r27
    294e:	10 f4       	brcc	.+4      	; 0x2954 <xTaskIncrementTick+0x96>
    2950:	80 e0       	ldi	r24, 0x00	; 0
    2952:	b3 c0       	rjmp	.+358    	; 0x2aba <xTaskIncrementTick+0x1fc>
    2954:	80 e0       	ldi	r24, 0x00	; 0
    2956:	4b e0       	ldi	r20, 0x0B	; 11
    2958:	51 e0       	ldi	r21, 0x01	; 1
    295a:	e0 91 c7 12 	lds	r30, 0x12C7	; 0x8012c7 <pxDelayedTaskList>
    295e:	f0 91 c8 12 	lds	r31, 0x12C8	; 0x8012c8 <pxDelayedTaskList+0x1>
    2962:	90 81       	ld	r25, Z
    2964:	91 11       	cpse	r25, r1
    2966:	0c c0       	rjmp	.+24     	; 0x2980 <xTaskIncrementTick+0xc2>
    2968:	4f ef       	ldi	r20, 0xFF	; 255
    296a:	5f ef       	ldi	r21, 0xFF	; 255
    296c:	ba 01       	movw	r22, r20
    296e:	40 93 91 12 	sts	0x1291, r20	; 0x801291 <xNextTaskUnblockTime>
    2972:	50 93 92 12 	sts	0x1292, r21	; 0x801292 <xNextTaskUnblockTime+0x1>
    2976:	60 93 93 12 	sts	0x1293, r22	; 0x801293 <xNextTaskUnblockTime+0x2>
    297a:	70 93 94 12 	sts	0x1294, r23	; 0x801294 <xNextTaskUnblockTime+0x3>
    297e:	9d c0       	rjmp	.+314    	; 0x2aba <xTaskIncrementTick+0x1fc>
    2980:	e0 91 c7 12 	lds	r30, 0x12C7	; 0x8012c7 <pxDelayedTaskList>
    2984:	f0 91 c8 12 	lds	r31, 0x12C8	; 0x8012c8 <pxDelayedTaskList+0x1>
    2988:	07 80       	ldd	r0, Z+7	; 0x07
    298a:	f0 85       	ldd	r31, Z+8	; 0x08
    298c:	e0 2d       	mov	r30, r0
    298e:	00 84       	ldd	r0, Z+8	; 0x08
    2990:	f1 85       	ldd	r31, Z+9	; 0x09
    2992:	e0 2d       	mov	r30, r0
    2994:	02 81       	ldd	r16, Z+2	; 0x02
    2996:	13 81       	ldd	r17, Z+3	; 0x03
    2998:	24 81       	ldd	r18, Z+4	; 0x04
    299a:	35 81       	ldd	r19, Z+5	; 0x05
    299c:	c0 16       	cp	r12, r16
    299e:	d1 06       	cpc	r13, r17
    29a0:	e2 06       	cpc	r14, r18
    29a2:	f3 06       	cpc	r15, r19
    29a4:	48 f4       	brcc	.+18     	; 0x29b8 <xTaskIncrementTick+0xfa>
    29a6:	00 93 91 12 	sts	0x1291, r16	; 0x801291 <xNextTaskUnblockTime>
    29aa:	10 93 92 12 	sts	0x1292, r17	; 0x801292 <xNextTaskUnblockTime+0x1>
    29ae:	20 93 93 12 	sts	0x1293, r18	; 0x801293 <xNextTaskUnblockTime+0x2>
    29b2:	30 93 94 12 	sts	0x1294, r19	; 0x801294 <xNextTaskUnblockTime+0x3>
    29b6:	81 c0       	rjmp	.+258    	; 0x2aba <xTaskIncrementTick+0x1fc>
    29b8:	a4 85       	ldd	r26, Z+12	; 0x0c
    29ba:	b5 85       	ldd	r27, Z+13	; 0x0d
    29bc:	c6 81       	ldd	r28, Z+6	; 0x06
    29be:	d7 81       	ldd	r29, Z+7	; 0x07
    29c0:	20 85       	ldd	r18, Z+8	; 0x08
    29c2:	31 85       	ldd	r19, Z+9	; 0x09
    29c4:	3f 83       	std	Y+7, r19	; 0x07
    29c6:	2e 83       	std	Y+6, r18	; 0x06
    29c8:	c0 85       	ldd	r28, Z+8	; 0x08
    29ca:	d1 85       	ldd	r29, Z+9	; 0x09
    29cc:	26 81       	ldd	r18, Z+6	; 0x06
    29ce:	37 81       	ldd	r19, Z+7	; 0x07
    29d0:	3d 83       	std	Y+5, r19	; 0x05
    29d2:	2c 83       	std	Y+4, r18	; 0x04
    29d4:	9f 01       	movw	r18, r30
    29d6:	2e 5f       	subi	r18, 0xFE	; 254
    29d8:	3f 4f       	sbci	r19, 0xFF	; 255
    29da:	11 96       	adiw	r26, 0x01	; 1
    29dc:	6d 91       	ld	r22, X+
    29de:	7c 91       	ld	r23, X
    29e0:	12 97       	sbiw	r26, 0x02	; 2
    29e2:	62 17       	cp	r22, r18
    29e4:	73 07       	cpc	r23, r19
    29e6:	31 f4       	brne	.+12     	; 0x29f4 <xTaskIncrementTick+0x136>
    29e8:	60 85       	ldd	r22, Z+8	; 0x08
    29ea:	71 85       	ldd	r23, Z+9	; 0x09
    29ec:	12 96       	adiw	r26, 0x02	; 2
    29ee:	7c 93       	st	X, r23
    29f0:	6e 93       	st	-X, r22
    29f2:	11 97       	sbiw	r26, 0x01	; 1
    29f4:	15 86       	std	Z+13, r1	; 0x0d
    29f6:	14 86       	std	Z+12, r1	; 0x0c
    29f8:	9c 91       	ld	r25, X
    29fa:	91 50       	subi	r25, 0x01	; 1
    29fc:	9c 93       	st	X, r25
    29fe:	a0 8d       	ldd	r26, Z+24	; 0x18
    2a00:	b1 8d       	ldd	r27, Z+25	; 0x19
    2a02:	10 97       	sbiw	r26, 0x00	; 0
    2a04:	09 f1       	breq	.+66     	; 0x2a48 <xTaskIncrementTick+0x18a>
    2a06:	c2 89       	ldd	r28, Z+18	; 0x12
    2a08:	d3 89       	ldd	r29, Z+19	; 0x13
    2a0a:	64 89       	ldd	r22, Z+20	; 0x14
    2a0c:	75 89       	ldd	r23, Z+21	; 0x15
    2a0e:	7f 83       	std	Y+7, r23	; 0x07
    2a10:	6e 83       	std	Y+6, r22	; 0x06
    2a12:	c4 89       	ldd	r28, Z+20	; 0x14
    2a14:	d5 89       	ldd	r29, Z+21	; 0x15
    2a16:	62 89       	ldd	r22, Z+18	; 0x12
    2a18:	73 89       	ldd	r23, Z+19	; 0x13
    2a1a:	7d 83       	std	Y+5, r23	; 0x05
    2a1c:	6c 83       	std	Y+4, r22	; 0x04
    2a1e:	11 96       	adiw	r26, 0x01	; 1
    2a20:	cd 91       	ld	r28, X+
    2a22:	dc 91       	ld	r29, X
    2a24:	12 97       	sbiw	r26, 0x02	; 2
    2a26:	bf 01       	movw	r22, r30
    2a28:	62 5f       	subi	r22, 0xF2	; 242
    2a2a:	7f 4f       	sbci	r23, 0xFF	; 255
    2a2c:	c6 17       	cp	r28, r22
    2a2e:	d7 07       	cpc	r29, r23
    2a30:	31 f4       	brne	.+12     	; 0x2a3e <xTaskIncrementTick+0x180>
    2a32:	64 89       	ldd	r22, Z+20	; 0x14
    2a34:	75 89       	ldd	r23, Z+21	; 0x15
    2a36:	12 96       	adiw	r26, 0x02	; 2
    2a38:	7c 93       	st	X, r23
    2a3a:	6e 93       	st	-X, r22
    2a3c:	11 97       	sbiw	r26, 0x01	; 1
    2a3e:	11 8e       	std	Z+25, r1	; 0x19
    2a40:	10 8e       	std	Z+24, r1	; 0x18
    2a42:	9c 91       	ld	r25, X
    2a44:	91 50       	subi	r25, 0x01	; 1
    2a46:	9c 93       	st	X, r25
    2a48:	a2 8d       	ldd	r26, Z+26	; 0x1a
    2a4a:	90 91 9d 12 	lds	r25, 0x129D	; 0x80129d <uxTopReadyPriority>
    2a4e:	9a 17       	cp	r25, r26
    2a50:	10 f4       	brcc	.+4      	; 0x2a56 <xTaskIncrementTick+0x198>
    2a52:	a0 93 9d 12 	sts	0x129D, r26	; 0x80129d <uxTopReadyPriority>
    2a56:	4a 9f       	mul	r20, r26
    2a58:	d0 01       	movw	r26, r0
    2a5a:	11 24       	eor	r1, r1
    2a5c:	a1 52       	subi	r26, 0x21	; 33
    2a5e:	bd 4e       	sbci	r27, 0xED	; 237
    2a60:	11 96       	adiw	r26, 0x01	; 1
    2a62:	0d 90       	ld	r0, X+
    2a64:	bc 91       	ld	r27, X
    2a66:	a0 2d       	mov	r26, r0
    2a68:	b7 83       	std	Z+7, r27	; 0x07
    2a6a:	a6 83       	std	Z+6, r26	; 0x06
    2a6c:	16 96       	adiw	r26, 0x06	; 6
    2a6e:	6d 91       	ld	r22, X+
    2a70:	7c 91       	ld	r23, X
    2a72:	17 97       	sbiw	r26, 0x07	; 7
    2a74:	71 87       	std	Z+9, r23	; 0x09
    2a76:	60 87       	std	Z+8, r22	; 0x08
    2a78:	16 96       	adiw	r26, 0x06	; 6
    2a7a:	cd 91       	ld	r28, X+
    2a7c:	dc 91       	ld	r29, X
    2a7e:	17 97       	sbiw	r26, 0x07	; 7
    2a80:	3d 83       	std	Y+5, r19	; 0x05
    2a82:	2c 83       	std	Y+4, r18	; 0x04
    2a84:	17 96       	adiw	r26, 0x07	; 7
    2a86:	3c 93       	st	X, r19
    2a88:	2e 93       	st	-X, r18
    2a8a:	16 97       	sbiw	r26, 0x06	; 6
    2a8c:	a2 8d       	ldd	r26, Z+26	; 0x1a
    2a8e:	4a 9f       	mul	r20, r26
    2a90:	d0 01       	movw	r26, r0
    2a92:	11 24       	eor	r1, r1
    2a94:	a1 52       	subi	r26, 0x21	; 33
    2a96:	bd 4e       	sbci	r27, 0xED	; 237
    2a98:	b5 87       	std	Z+13, r27	; 0x0d
    2a9a:	a4 87       	std	Z+12, r26	; 0x0c
    2a9c:	9c 91       	ld	r25, X
    2a9e:	9f 5f       	subi	r25, 0xFF	; 255
    2aa0:	9c 93       	st	X, r25
    2aa2:	a0 91 4d 13 	lds	r26, 0x134D	; 0x80134d <pxCurrentTCB>
    2aa6:	b0 91 4e 13 	lds	r27, 0x134E	; 0x80134e <pxCurrentTCB+0x1>
    2aaa:	22 8d       	ldd	r18, Z+26	; 0x1a
    2aac:	5a 96       	adiw	r26, 0x1a	; 26
    2aae:	9c 91       	ld	r25, X
    2ab0:	29 17       	cp	r18, r25
    2ab2:	08 f4       	brcc	.+2      	; 0x2ab6 <xTaskIncrementTick+0x1f8>
    2ab4:	52 cf       	rjmp	.-348    	; 0x295a <xTaskIncrementTick+0x9c>
    2ab6:	85 2f       	mov	r24, r21
    2ab8:	50 cf       	rjmp	.-352    	; 0x295a <xTaskIncrementTick+0x9c>
    2aba:	e0 91 4d 13 	lds	r30, 0x134D	; 0x80134d <pxCurrentTCB>
    2abe:	f0 91 4e 13 	lds	r31, 0x134E	; 0x80134e <pxCurrentTCB+0x1>
    2ac2:	e2 8d       	ldd	r30, Z+26	; 0x1a
    2ac4:	9b e0       	ldi	r25, 0x0B	; 11
    2ac6:	e9 9f       	mul	r30, r25
    2ac8:	f0 01       	movw	r30, r0
    2aca:	11 24       	eor	r1, r1
    2acc:	e1 52       	subi	r30, 0x21	; 33
    2ace:	fd 4e       	sbci	r31, 0xED	; 237
    2ad0:	90 81       	ld	r25, Z
    2ad2:	92 30       	cpi	r25, 0x02	; 2
    2ad4:	08 f0       	brcs	.+2      	; 0x2ad8 <xTaskIncrementTick+0x21a>
    2ad6:	81 e0       	ldi	r24, 0x01	; 1
    2ad8:	90 91 97 12 	lds	r25, 0x1297	; 0x801297 <xYieldPending>
    2adc:	99 23       	and	r25, r25
    2ade:	b1 f0       	breq	.+44     	; 0x2b0c <xTaskIncrementTick+0x24e>
    2ae0:	81 e0       	ldi	r24, 0x01	; 1
    2ae2:	14 c0       	rjmp	.+40     	; 0x2b0c <xTaskIncrementTick+0x24e>
    2ae4:	80 91 98 12 	lds	r24, 0x1298	; 0x801298 <xPendedTicks>
    2ae8:	90 91 99 12 	lds	r25, 0x1299	; 0x801299 <xPendedTicks+0x1>
    2aec:	a0 91 9a 12 	lds	r26, 0x129A	; 0x80129a <xPendedTicks+0x2>
    2af0:	b0 91 9b 12 	lds	r27, 0x129B	; 0x80129b <xPendedTicks+0x3>
    2af4:	01 96       	adiw	r24, 0x01	; 1
    2af6:	a1 1d       	adc	r26, r1
    2af8:	b1 1d       	adc	r27, r1
    2afa:	80 93 98 12 	sts	0x1298, r24	; 0x801298 <xPendedTicks>
    2afe:	90 93 99 12 	sts	0x1299, r25	; 0x801299 <xPendedTicks+0x1>
    2b02:	a0 93 9a 12 	sts	0x129A, r26	; 0x80129a <xPendedTicks+0x2>
    2b06:	b0 93 9b 12 	sts	0x129B, r27	; 0x80129b <xPendedTicks+0x3>
    2b0a:	80 e0       	ldi	r24, 0x00	; 0
    2b0c:	df 91       	pop	r29
    2b0e:	cf 91       	pop	r28
    2b10:	1f 91       	pop	r17
    2b12:	0f 91       	pop	r16
    2b14:	ff 90       	pop	r15
    2b16:	ef 90       	pop	r14
    2b18:	df 90       	pop	r13
    2b1a:	cf 90       	pop	r12
    2b1c:	08 95       	ret

00002b1e <xTaskResumeAll>:
    2b1e:	cf 92       	push	r12
    2b20:	df 92       	push	r13
    2b22:	ef 92       	push	r14
    2b24:	ff 92       	push	r15
    2b26:	0f 93       	push	r16
    2b28:	1f 93       	push	r17
    2b2a:	cf 93       	push	r28
    2b2c:	df 93       	push	r29
    2b2e:	0f b6       	in	r0, 0x3f	; 63
    2b30:	f8 94       	cli
    2b32:	0f 92       	push	r0
    2b34:	80 91 8e 12 	lds	r24, 0x128E	; 0x80128e <uxSchedulerSuspended>
    2b38:	81 50       	subi	r24, 0x01	; 1
    2b3a:	80 93 8e 12 	sts	0x128E, r24	; 0x80128e <uxSchedulerSuspended>
    2b3e:	80 91 8e 12 	lds	r24, 0x128E	; 0x80128e <uxSchedulerSuspended>
    2b42:	81 11       	cpse	r24, r1
    2b44:	c4 c0       	rjmp	.+392    	; 0x2cce <xTaskResumeAll+0x1b0>
    2b46:	80 91 a2 12 	lds	r24, 0x12A2	; 0x8012a2 <uxCurrentNumberOfTasks>
    2b4a:	81 11       	cpse	r24, r1
    2b4c:	8b c0       	rjmp	.+278    	; 0x2c64 <xTaskResumeAll+0x146>
    2b4e:	c2 c0       	rjmp	.+388    	; 0x2cd4 <xTaskResumeAll+0x1b6>
    2b50:	d8 01       	movw	r26, r16
    2b52:	17 96       	adiw	r26, 0x07	; 7
    2b54:	ed 91       	ld	r30, X+
    2b56:	fc 91       	ld	r31, X
    2b58:	18 97       	sbiw	r26, 0x08	; 8
    2b5a:	00 84       	ldd	r0, Z+8	; 0x08
    2b5c:	f1 85       	ldd	r31, Z+9	; 0x09
    2b5e:	e0 2d       	mov	r30, r0
    2b60:	a0 8d       	ldd	r26, Z+24	; 0x18
    2b62:	b1 8d       	ldd	r27, Z+25	; 0x19
    2b64:	82 89       	ldd	r24, Z+18	; 0x12
    2b66:	93 89       	ldd	r25, Z+19	; 0x13
    2b68:	64 89       	ldd	r22, Z+20	; 0x14
    2b6a:	75 89       	ldd	r23, Z+21	; 0x15
    2b6c:	ec 01       	movw	r28, r24
    2b6e:	7f 83       	std	Y+7, r23	; 0x07
    2b70:	6e 83       	std	Y+6, r22	; 0x06
    2b72:	84 89       	ldd	r24, Z+20	; 0x14
    2b74:	95 89       	ldd	r25, Z+21	; 0x15
    2b76:	62 89       	ldd	r22, Z+18	; 0x12
    2b78:	73 89       	ldd	r23, Z+19	; 0x13
    2b7a:	ec 01       	movw	r28, r24
    2b7c:	7d 83       	std	Y+5, r23	; 0x05
    2b7e:	6c 83       	std	Y+4, r22	; 0x04
    2b80:	cf 01       	movw	r24, r30
    2b82:	0e 96       	adiw	r24, 0x0e	; 14
    2b84:	11 96       	adiw	r26, 0x01	; 1
    2b86:	6d 91       	ld	r22, X+
    2b88:	7c 91       	ld	r23, X
    2b8a:	12 97       	sbiw	r26, 0x02	; 2
    2b8c:	68 17       	cp	r22, r24
    2b8e:	79 07       	cpc	r23, r25
    2b90:	31 f4       	brne	.+12     	; 0x2b9e <xTaskResumeAll+0x80>
    2b92:	84 89       	ldd	r24, Z+20	; 0x14
    2b94:	95 89       	ldd	r25, Z+21	; 0x15
    2b96:	12 96       	adiw	r26, 0x02	; 2
    2b98:	9c 93       	st	X, r25
    2b9a:	8e 93       	st	-X, r24
    2b9c:	11 97       	sbiw	r26, 0x01	; 1
    2b9e:	11 8e       	std	Z+25, r1	; 0x19
    2ba0:	10 8e       	std	Z+24, r1	; 0x18
    2ba2:	8c 91       	ld	r24, X
    2ba4:	81 50       	subi	r24, 0x01	; 1
    2ba6:	8c 93       	st	X, r24
    2ba8:	a4 85       	ldd	r26, Z+12	; 0x0c
    2baa:	b5 85       	ldd	r27, Z+13	; 0x0d
    2bac:	86 81       	ldd	r24, Z+6	; 0x06
    2bae:	97 81       	ldd	r25, Z+7	; 0x07
    2bb0:	60 85       	ldd	r22, Z+8	; 0x08
    2bb2:	71 85       	ldd	r23, Z+9	; 0x09
    2bb4:	ec 01       	movw	r28, r24
    2bb6:	7f 83       	std	Y+7, r23	; 0x07
    2bb8:	6e 83       	std	Y+6, r22	; 0x06
    2bba:	80 85       	ldd	r24, Z+8	; 0x08
    2bbc:	91 85       	ldd	r25, Z+9	; 0x09
    2bbe:	66 81       	ldd	r22, Z+6	; 0x06
    2bc0:	77 81       	ldd	r23, Z+7	; 0x07
    2bc2:	ec 01       	movw	r28, r24
    2bc4:	7d 83       	std	Y+5, r23	; 0x05
    2bc6:	6c 83       	std	Y+4, r22	; 0x04
    2bc8:	cf 01       	movw	r24, r30
    2bca:	02 96       	adiw	r24, 0x02	; 2
    2bcc:	11 96       	adiw	r26, 0x01	; 1
    2bce:	6d 91       	ld	r22, X+
    2bd0:	7c 91       	ld	r23, X
    2bd2:	12 97       	sbiw	r26, 0x02	; 2
    2bd4:	68 17       	cp	r22, r24
    2bd6:	79 07       	cpc	r23, r25
    2bd8:	31 f4       	brne	.+12     	; 0x2be6 <xTaskResumeAll+0xc8>
    2bda:	60 85       	ldd	r22, Z+8	; 0x08
    2bdc:	71 85       	ldd	r23, Z+9	; 0x09
    2bde:	12 96       	adiw	r26, 0x02	; 2
    2be0:	7c 93       	st	X, r23
    2be2:	6e 93       	st	-X, r22
    2be4:	11 97       	sbiw	r26, 0x01	; 1
    2be6:	15 86       	std	Z+13, r1	; 0x0d
    2be8:	14 86       	std	Z+12, r1	; 0x0c
    2bea:	2c 91       	ld	r18, X
    2bec:	21 50       	subi	r18, 0x01	; 1
    2bee:	2c 93       	st	X, r18
    2bf0:	a2 8d       	ldd	r26, Z+26	; 0x1a
    2bf2:	20 91 9d 12 	lds	r18, 0x129D	; 0x80129d <uxTopReadyPriority>
    2bf6:	2a 17       	cp	r18, r26
    2bf8:	10 f4       	brcc	.+4      	; 0x2bfe <xTaskResumeAll+0xe0>
    2bfa:	a0 93 9d 12 	sts	0x129D, r26	; 0x80129d <uxTopReadyPriority>
    2bfe:	3a 9f       	mul	r19, r26
    2c00:	d0 01       	movw	r26, r0
    2c02:	11 24       	eor	r1, r1
    2c04:	a1 52       	subi	r26, 0x21	; 33
    2c06:	bd 4e       	sbci	r27, 0xED	; 237
    2c08:	11 96       	adiw	r26, 0x01	; 1
    2c0a:	0d 90       	ld	r0, X+
    2c0c:	bc 91       	ld	r27, X
    2c0e:	a0 2d       	mov	r26, r0
    2c10:	b7 83       	std	Z+7, r27	; 0x07
    2c12:	a6 83       	std	Z+6, r26	; 0x06
    2c14:	16 96       	adiw	r26, 0x06	; 6
    2c16:	6d 91       	ld	r22, X+
    2c18:	7c 91       	ld	r23, X
    2c1a:	17 97       	sbiw	r26, 0x07	; 7
    2c1c:	71 87       	std	Z+9, r23	; 0x09
    2c1e:	60 87       	std	Z+8, r22	; 0x08
    2c20:	16 96       	adiw	r26, 0x06	; 6
    2c22:	6d 91       	ld	r22, X+
    2c24:	7c 91       	ld	r23, X
    2c26:	17 97       	sbiw	r26, 0x07	; 7
    2c28:	eb 01       	movw	r28, r22
    2c2a:	9d 83       	std	Y+5, r25	; 0x05
    2c2c:	8c 83       	std	Y+4, r24	; 0x04
    2c2e:	17 96       	adiw	r26, 0x07	; 7
    2c30:	9c 93       	st	X, r25
    2c32:	8e 93       	st	-X, r24
    2c34:	16 97       	sbiw	r26, 0x06	; 6
    2c36:	a2 8d       	ldd	r26, Z+26	; 0x1a
    2c38:	3a 9f       	mul	r19, r26
    2c3a:	d0 01       	movw	r26, r0
    2c3c:	11 24       	eor	r1, r1
    2c3e:	a1 52       	subi	r26, 0x21	; 33
    2c40:	bd 4e       	sbci	r27, 0xED	; 237
    2c42:	b5 87       	std	Z+13, r27	; 0x0d
    2c44:	a4 87       	std	Z+12, r26	; 0x0c
    2c46:	8c 91       	ld	r24, X
    2c48:	8f 5f       	subi	r24, 0xFF	; 255
    2c4a:	8c 93       	st	X, r24
    2c4c:	a0 91 4d 13 	lds	r26, 0x134D	; 0x80134d <pxCurrentTCB>
    2c50:	b0 91 4e 13 	lds	r27, 0x134E	; 0x80134e <pxCurrentTCB+0x1>
    2c54:	92 8d       	ldd	r25, Z+26	; 0x1a
    2c56:	5a 96       	adiw	r26, 0x1a	; 26
    2c58:	8c 91       	ld	r24, X
    2c5a:	98 17       	cp	r25, r24
    2c5c:	48 f0       	brcs	.+18     	; 0x2c70 <xTaskResumeAll+0x152>
    2c5e:	40 93 97 12 	sts	0x1297, r20	; 0x801297 <xYieldPending>
    2c62:	06 c0       	rjmp	.+12     	; 0x2c70 <xTaskResumeAll+0x152>
    2c64:	e0 e0       	ldi	r30, 0x00	; 0
    2c66:	f0 e0       	ldi	r31, 0x00	; 0
    2c68:	0a eb       	ldi	r16, 0xBA	; 186
    2c6a:	12 e1       	ldi	r17, 0x12	; 18
    2c6c:	3b e0       	ldi	r19, 0x0B	; 11
    2c6e:	41 e0       	ldi	r20, 0x01	; 1
    2c70:	d8 01       	movw	r26, r16
    2c72:	8c 91       	ld	r24, X
    2c74:	81 11       	cpse	r24, r1
    2c76:	6c cf       	rjmp	.-296    	; 0x2b50 <xTaskResumeAll+0x32>
    2c78:	ef 2b       	or	r30, r31
    2c7a:	09 f0       	breq	.+2      	; 0x2c7e <xTaskResumeAll+0x160>
    2c7c:	d1 db       	rcall	.-2142   	; 0x2420 <prvResetNextTaskUnblockTime>
    2c7e:	c0 90 98 12 	lds	r12, 0x1298	; 0x801298 <xPendedTicks>
    2c82:	d0 90 99 12 	lds	r13, 0x1299	; 0x801299 <xPendedTicks+0x1>
    2c86:	e0 90 9a 12 	lds	r14, 0x129A	; 0x80129a <xPendedTicks+0x2>
    2c8a:	f0 90 9b 12 	lds	r15, 0x129B	; 0x80129b <xPendedTicks+0x3>
    2c8e:	c1 14       	cp	r12, r1
    2c90:	d1 04       	cpc	r13, r1
    2c92:	e1 04       	cpc	r14, r1
    2c94:	f1 04       	cpc	r15, r1
    2c96:	99 f0       	breq	.+38     	; 0x2cbe <xTaskResumeAll+0x1a0>
    2c98:	c1 e0       	ldi	r28, 0x01	; 1
    2c9a:	11 de       	rcall	.-990    	; 0x28be <xTaskIncrementTick>
    2c9c:	81 11       	cpse	r24, r1
    2c9e:	c0 93 97 12 	sts	0x1297, r28	; 0x801297 <xYieldPending>
    2ca2:	b1 e0       	ldi	r27, 0x01	; 1
    2ca4:	cb 1a       	sub	r12, r27
    2ca6:	d1 08       	sbc	r13, r1
    2ca8:	e1 08       	sbc	r14, r1
    2caa:	f1 08       	sbc	r15, r1
    2cac:	b1 f7       	brne	.-20     	; 0x2c9a <xTaskResumeAll+0x17c>
    2cae:	10 92 98 12 	sts	0x1298, r1	; 0x801298 <xPendedTicks>
    2cb2:	10 92 99 12 	sts	0x1299, r1	; 0x801299 <xPendedTicks+0x1>
    2cb6:	10 92 9a 12 	sts	0x129A, r1	; 0x80129a <xPendedTicks+0x2>
    2cba:	10 92 9b 12 	sts	0x129B, r1	; 0x80129b <xPendedTicks+0x3>
    2cbe:	80 91 97 12 	lds	r24, 0x1297	; 0x801297 <xYieldPending>
    2cc2:	88 23       	and	r24, r24
    2cc4:	31 f0       	breq	.+12     	; 0x2cd2 <xTaskResumeAll+0x1b4>
    2cc6:	0e 94 9a 0a 	call	0x1534	; 0x1534 <vPortYield>
    2cca:	81 e0       	ldi	r24, 0x01	; 1
    2ccc:	03 c0       	rjmp	.+6      	; 0x2cd4 <xTaskResumeAll+0x1b6>
    2cce:	80 e0       	ldi	r24, 0x00	; 0
    2cd0:	01 c0       	rjmp	.+2      	; 0x2cd4 <xTaskResumeAll+0x1b6>
    2cd2:	80 e0       	ldi	r24, 0x00	; 0
    2cd4:	0f 90       	pop	r0
    2cd6:	0f be       	out	0x3f, r0	; 63
    2cd8:	df 91       	pop	r29
    2cda:	cf 91       	pop	r28
    2cdc:	1f 91       	pop	r17
    2cde:	0f 91       	pop	r16
    2ce0:	ff 90       	pop	r15
    2ce2:	ef 90       	pop	r14
    2ce4:	df 90       	pop	r13
    2ce6:	cf 90       	pop	r12
    2ce8:	08 95       	ret

00002cea <vTaskDelay>:
    2cea:	cf 92       	push	r12
    2cec:	df 92       	push	r13
    2cee:	ef 92       	push	r14
    2cf0:	ff 92       	push	r15
    2cf2:	6b 01       	movw	r12, r22
    2cf4:	7c 01       	movw	r14, r24
    2cf6:	67 2b       	or	r22, r23
    2cf8:	68 2b       	or	r22, r24
    2cfa:	69 2b       	or	r22, r25
    2cfc:	41 f0       	breq	.+16     	; 0x2d0e <vTaskDelay+0x24>
    2cfe:	cb dd       	rcall	.-1130   	; 0x2896 <vTaskSuspendAll>
    2d00:	40 e0       	ldi	r20, 0x00	; 0
    2d02:	c7 01       	movw	r24, r14
    2d04:	b6 01       	movw	r22, r12
    2d06:	b3 db       	rcall	.-2202   	; 0x246e <prvAddCurrentTaskToDelayedList>
    2d08:	0a df       	rcall	.-492    	; 0x2b1e <xTaskResumeAll>
    2d0a:	81 11       	cpse	r24, r1
    2d0c:	02 c0       	rjmp	.+4      	; 0x2d12 <vTaskDelay+0x28>
    2d0e:	0e 94 9a 0a 	call	0x1534	; 0x1534 <vPortYield>
    2d12:	ff 90       	pop	r15
    2d14:	ef 90       	pop	r14
    2d16:	df 90       	pop	r13
    2d18:	cf 90       	pop	r12
    2d1a:	08 95       	ret

00002d1c <vTaskSwitchContext>:
    2d1c:	80 91 8e 12 	lds	r24, 0x128E	; 0x80128e <uxSchedulerSuspended>
    2d20:	88 23       	and	r24, r24
    2d22:	21 f0       	breq	.+8      	; 0x2d2c <vTaskSwitchContext+0x10>
    2d24:	81 e0       	ldi	r24, 0x01	; 1
    2d26:	80 93 97 12 	sts	0x1297, r24	; 0x801297 <xYieldPending>
    2d2a:	08 95       	ret
    2d2c:	10 92 97 12 	sts	0x1297, r1	; 0x801297 <xYieldPending>
    2d30:	a0 91 4d 13 	lds	r26, 0x134D	; 0x80134d <pxCurrentTCB>
    2d34:	b0 91 4e 13 	lds	r27, 0x134E	; 0x80134e <pxCurrentTCB+0x1>
    2d38:	e0 91 4d 13 	lds	r30, 0x134D	; 0x80134d <pxCurrentTCB>
    2d3c:	f0 91 4e 13 	lds	r31, 0x134E	; 0x80134e <pxCurrentTCB+0x1>
    2d40:	2d 91       	ld	r18, X+
    2d42:	3c 91       	ld	r19, X
    2d44:	83 8d       	ldd	r24, Z+27	; 0x1b
    2d46:	94 8d       	ldd	r25, Z+28	; 0x1c
    2d48:	82 17       	cp	r24, r18
    2d4a:	93 07       	cpc	r25, r19
    2d4c:	58 f0       	brcs	.+22     	; 0x2d64 <vTaskSwitchContext+0x48>
    2d4e:	60 91 4d 13 	lds	r22, 0x134D	; 0x80134d <pxCurrentTCB>
    2d52:	70 91 4e 13 	lds	r23, 0x134E	; 0x80134e <pxCurrentTCB+0x1>
    2d56:	80 91 4d 13 	lds	r24, 0x134D	; 0x80134d <pxCurrentTCB>
    2d5a:	90 91 4e 13 	lds	r25, 0x134E	; 0x80134e <pxCurrentTCB+0x1>
    2d5e:	63 5e       	subi	r22, 0xE3	; 227
    2d60:	7f 4f       	sbci	r23, 0xFF	; 255
    2d62:	b6 d7       	rcall	.+3948   	; 0x3cd0 <vApplicationStackOverflowHook>
    2d64:	80 91 9d 12 	lds	r24, 0x129D	; 0x80129d <uxTopReadyPriority>
    2d68:	28 2f       	mov	r18, r24
    2d6a:	30 e0       	ldi	r19, 0x00	; 0
    2d6c:	9b e0       	ldi	r25, 0x0B	; 11
    2d6e:	89 9f       	mul	r24, r25
    2d70:	f0 01       	movw	r30, r0
    2d72:	11 24       	eor	r1, r1
    2d74:	e1 52       	subi	r30, 0x21	; 33
    2d76:	fd 4e       	sbci	r31, 0xED	; 237
    2d78:	90 81       	ld	r25, Z
    2d7a:	91 11       	cpse	r25, r1
    2d7c:	0e c0       	rjmp	.+28     	; 0x2d9a <vTaskSwitchContext+0x7e>
    2d7e:	4b e0       	ldi	r20, 0x0B	; 11
    2d80:	81 50       	subi	r24, 0x01	; 1
    2d82:	28 2f       	mov	r18, r24
    2d84:	30 e0       	ldi	r19, 0x00	; 0
    2d86:	42 9f       	mul	r20, r18
    2d88:	f0 01       	movw	r30, r0
    2d8a:	43 9f       	mul	r20, r19
    2d8c:	f0 0d       	add	r31, r0
    2d8e:	11 24       	eor	r1, r1
    2d90:	e1 52       	subi	r30, 0x21	; 33
    2d92:	fd 4e       	sbci	r31, 0xED	; 237
    2d94:	90 81       	ld	r25, Z
    2d96:	99 23       	and	r25, r25
    2d98:	99 f3       	breq	.-26     	; 0x2d80 <vTaskSwitchContext+0x64>
    2d9a:	9b e0       	ldi	r25, 0x0B	; 11
    2d9c:	92 9f       	mul	r25, r18
    2d9e:	a0 01       	movw	r20, r0
    2da0:	93 9f       	mul	r25, r19
    2da2:	50 0d       	add	r21, r0
    2da4:	11 24       	eor	r1, r1
    2da6:	da 01       	movw	r26, r20
    2da8:	a1 52       	subi	r26, 0x21	; 33
    2daa:	bd 4e       	sbci	r27, 0xED	; 237
    2dac:	11 96       	adiw	r26, 0x01	; 1
    2dae:	ed 91       	ld	r30, X+
    2db0:	fc 91       	ld	r31, X
    2db2:	12 97       	sbiw	r26, 0x02	; 2
    2db4:	04 80       	ldd	r0, Z+4	; 0x04
    2db6:	f5 81       	ldd	r31, Z+5	; 0x05
    2db8:	e0 2d       	mov	r30, r0
    2dba:	12 96       	adiw	r26, 0x02	; 2
    2dbc:	fc 93       	st	X, r31
    2dbe:	ee 93       	st	-X, r30
    2dc0:	11 97       	sbiw	r26, 0x01	; 1
    2dc2:	4e 51       	subi	r20, 0x1E	; 30
    2dc4:	5d 4e       	sbci	r21, 0xED	; 237
    2dc6:	e4 17       	cp	r30, r20
    2dc8:	f5 07       	cpc	r31, r21
    2dca:	29 f4       	brne	.+10     	; 0x2dd6 <vTaskSwitchContext+0xba>
    2dcc:	44 81       	ldd	r20, Z+4	; 0x04
    2dce:	55 81       	ldd	r21, Z+5	; 0x05
    2dd0:	fd 01       	movw	r30, r26
    2dd2:	52 83       	std	Z+2, r21	; 0x02
    2dd4:	41 83       	std	Z+1, r20	; 0x01
    2dd6:	9b e0       	ldi	r25, 0x0B	; 11
    2dd8:	92 9f       	mul	r25, r18
    2dda:	f0 01       	movw	r30, r0
    2ddc:	93 9f       	mul	r25, r19
    2dde:	f0 0d       	add	r31, r0
    2de0:	11 24       	eor	r1, r1
    2de2:	e1 52       	subi	r30, 0x21	; 33
    2de4:	fd 4e       	sbci	r31, 0xED	; 237
    2de6:	01 80       	ldd	r0, Z+1	; 0x01
    2de8:	f2 81       	ldd	r31, Z+2	; 0x02
    2dea:	e0 2d       	mov	r30, r0
    2dec:	20 85       	ldd	r18, Z+8	; 0x08
    2dee:	31 85       	ldd	r19, Z+9	; 0x09
    2df0:	30 93 4e 13 	sts	0x134E, r19	; 0x80134e <pxCurrentTCB+0x1>
    2df4:	20 93 4d 13 	sts	0x134D, r18	; 0x80134d <pxCurrentTCB>
    2df8:	80 93 9d 12 	sts	0x129D, r24	; 0x80129d <uxTopReadyPriority>
    2dfc:	08 95       	ret

00002dfe <vTaskPlaceOnEventList>:
    2dfe:	cf 92       	push	r12
    2e00:	df 92       	push	r13
    2e02:	ef 92       	push	r14
    2e04:	ff 92       	push	r15
    2e06:	6a 01       	movw	r12, r20
    2e08:	7b 01       	movw	r14, r22
    2e0a:	60 91 4d 13 	lds	r22, 0x134D	; 0x80134d <pxCurrentTCB>
    2e0e:	70 91 4e 13 	lds	r23, 0x134E	; 0x80134e <pxCurrentTCB+0x1>
    2e12:	62 5f       	subi	r22, 0xF2	; 242
    2e14:	7f 4f       	sbci	r23, 0xFF	; 255
    2e16:	0e 94 e3 09 	call	0x13c6	; 0x13c6 <vListInsert>
    2e1a:	41 e0       	ldi	r20, 0x01	; 1
    2e1c:	c7 01       	movw	r24, r14
    2e1e:	b6 01       	movw	r22, r12
    2e20:	26 db       	rcall	.-2484   	; 0x246e <prvAddCurrentTaskToDelayedList>
    2e22:	ff 90       	pop	r15
    2e24:	ef 90       	pop	r14
    2e26:	df 90       	pop	r13
    2e28:	cf 90       	pop	r12
    2e2a:	08 95       	ret

00002e2c <vTaskPlaceOnEventListRestricted>:
    2e2c:	cf 93       	push	r28
    2e2e:	df 93       	push	r29
    2e30:	fc 01       	movw	r30, r24
    2e32:	cb 01       	movw	r24, r22
    2e34:	ba 01       	movw	r22, r20
    2e36:	a1 81       	ldd	r26, Z+1	; 0x01
    2e38:	b2 81       	ldd	r27, Z+2	; 0x02
    2e3a:	c0 91 4d 13 	lds	r28, 0x134D	; 0x80134d <pxCurrentTCB>
    2e3e:	d0 91 4e 13 	lds	r29, 0x134E	; 0x80134e <pxCurrentTCB+0x1>
    2e42:	bb 8b       	std	Y+19, r27	; 0x13
    2e44:	aa 8b       	std	Y+18, r26	; 0x12
    2e46:	c0 91 4d 13 	lds	r28, 0x134D	; 0x80134d <pxCurrentTCB>
    2e4a:	d0 91 4e 13 	lds	r29, 0x134E	; 0x80134e <pxCurrentTCB+0x1>
    2e4e:	16 96       	adiw	r26, 0x06	; 6
    2e50:	4d 91       	ld	r20, X+
    2e52:	5c 91       	ld	r21, X
    2e54:	17 97       	sbiw	r26, 0x07	; 7
    2e56:	5d 8b       	std	Y+21, r21	; 0x15
    2e58:	4c 8b       	std	Y+20, r20	; 0x14
    2e5a:	16 96       	adiw	r26, 0x06	; 6
    2e5c:	cd 91       	ld	r28, X+
    2e5e:	dc 91       	ld	r29, X
    2e60:	17 97       	sbiw	r26, 0x07	; 7
    2e62:	40 91 4d 13 	lds	r20, 0x134D	; 0x80134d <pxCurrentTCB>
    2e66:	50 91 4e 13 	lds	r21, 0x134E	; 0x80134e <pxCurrentTCB+0x1>
    2e6a:	42 5f       	subi	r20, 0xF2	; 242
    2e6c:	5f 4f       	sbci	r21, 0xFF	; 255
    2e6e:	5d 83       	std	Y+5, r21	; 0x05
    2e70:	4c 83       	std	Y+4, r20	; 0x04
    2e72:	40 91 4d 13 	lds	r20, 0x134D	; 0x80134d <pxCurrentTCB>
    2e76:	50 91 4e 13 	lds	r21, 0x134E	; 0x80134e <pxCurrentTCB+0x1>
    2e7a:	42 5f       	subi	r20, 0xF2	; 242
    2e7c:	5f 4f       	sbci	r21, 0xFF	; 255
    2e7e:	17 96       	adiw	r26, 0x07	; 7
    2e80:	5c 93       	st	X, r21
    2e82:	4e 93       	st	-X, r20
    2e84:	16 97       	sbiw	r26, 0x06	; 6
    2e86:	a0 91 4d 13 	lds	r26, 0x134D	; 0x80134d <pxCurrentTCB>
    2e8a:	b0 91 4e 13 	lds	r27, 0x134E	; 0x80134e <pxCurrentTCB+0x1>
    2e8e:	59 96       	adiw	r26, 0x19	; 25
    2e90:	fc 93       	st	X, r31
    2e92:	ee 93       	st	-X, r30
    2e94:	58 97       	sbiw	r26, 0x18	; 24
    2e96:	30 81       	ld	r19, Z
    2e98:	3f 5f       	subi	r19, 0xFF	; 255
    2e9a:	30 83       	st	Z, r19
    2e9c:	22 23       	and	r18, r18
    2e9e:	19 f0       	breq	.+6      	; 0x2ea6 <vTaskPlaceOnEventListRestricted+0x7a>
    2ea0:	6f ef       	ldi	r22, 0xFF	; 255
    2ea2:	7f ef       	ldi	r23, 0xFF	; 255
    2ea4:	cb 01       	movw	r24, r22
    2ea6:	42 2f       	mov	r20, r18
    2ea8:	e2 da       	rcall	.-2620   	; 0x246e <prvAddCurrentTaskToDelayedList>
    2eaa:	df 91       	pop	r29
    2eac:	cf 91       	pop	r28
    2eae:	08 95       	ret

00002eb0 <xTaskRemoveFromEventList>:
    2eb0:	cf 93       	push	r28
    2eb2:	df 93       	push	r29
    2eb4:	dc 01       	movw	r26, r24
    2eb6:	17 96       	adiw	r26, 0x07	; 7
    2eb8:	ed 91       	ld	r30, X+
    2eba:	fc 91       	ld	r31, X
    2ebc:	18 97       	sbiw	r26, 0x08	; 8
    2ebe:	00 84       	ldd	r0, Z+8	; 0x08
    2ec0:	f1 85       	ldd	r31, Z+9	; 0x09
    2ec2:	e0 2d       	mov	r30, r0
    2ec4:	a0 8d       	ldd	r26, Z+24	; 0x18
    2ec6:	b1 8d       	ldd	r27, Z+25	; 0x19
    2ec8:	c2 89       	ldd	r28, Z+18	; 0x12
    2eca:	d3 89       	ldd	r29, Z+19	; 0x13
    2ecc:	84 89       	ldd	r24, Z+20	; 0x14
    2ece:	95 89       	ldd	r25, Z+21	; 0x15
    2ed0:	9f 83       	std	Y+7, r25	; 0x07
    2ed2:	8e 83       	std	Y+6, r24	; 0x06
    2ed4:	c4 89       	ldd	r28, Z+20	; 0x14
    2ed6:	d5 89       	ldd	r29, Z+21	; 0x15
    2ed8:	82 89       	ldd	r24, Z+18	; 0x12
    2eda:	93 89       	ldd	r25, Z+19	; 0x13
    2edc:	9d 83       	std	Y+5, r25	; 0x05
    2ede:	8c 83       	std	Y+4, r24	; 0x04
    2ee0:	9f 01       	movw	r18, r30
    2ee2:	22 5f       	subi	r18, 0xF2	; 242
    2ee4:	3f 4f       	sbci	r19, 0xFF	; 255
    2ee6:	11 96       	adiw	r26, 0x01	; 1
    2ee8:	8d 91       	ld	r24, X+
    2eea:	9c 91       	ld	r25, X
    2eec:	12 97       	sbiw	r26, 0x02	; 2
    2eee:	82 17       	cp	r24, r18
    2ef0:	93 07       	cpc	r25, r19
    2ef2:	31 f4       	brne	.+12     	; 0x2f00 <xTaskRemoveFromEventList+0x50>
    2ef4:	84 89       	ldd	r24, Z+20	; 0x14
    2ef6:	95 89       	ldd	r25, Z+21	; 0x15
    2ef8:	12 96       	adiw	r26, 0x02	; 2
    2efa:	9c 93       	st	X, r25
    2efc:	8e 93       	st	-X, r24
    2efe:	11 97       	sbiw	r26, 0x01	; 1
    2f00:	11 8e       	std	Z+25, r1	; 0x19
    2f02:	10 8e       	std	Z+24, r1	; 0x18
    2f04:	8c 91       	ld	r24, X
    2f06:	81 50       	subi	r24, 0x01	; 1
    2f08:	8c 93       	st	X, r24
    2f0a:	80 91 8e 12 	lds	r24, 0x128E	; 0x80128e <uxSchedulerSuspended>
    2f0e:	81 11       	cpse	r24, r1
    2f10:	52 c0       	rjmp	.+164    	; 0x2fb6 <xTaskRemoveFromEventList+0x106>
    2f12:	a4 85       	ldd	r26, Z+12	; 0x0c
    2f14:	b5 85       	ldd	r27, Z+13	; 0x0d
    2f16:	c6 81       	ldd	r28, Z+6	; 0x06
    2f18:	d7 81       	ldd	r29, Z+7	; 0x07
    2f1a:	80 85       	ldd	r24, Z+8	; 0x08
    2f1c:	91 85       	ldd	r25, Z+9	; 0x09
    2f1e:	9f 83       	std	Y+7, r25	; 0x07
    2f20:	8e 83       	std	Y+6, r24	; 0x06
    2f22:	c0 85       	ldd	r28, Z+8	; 0x08
    2f24:	d1 85       	ldd	r29, Z+9	; 0x09
    2f26:	86 81       	ldd	r24, Z+6	; 0x06
    2f28:	97 81       	ldd	r25, Z+7	; 0x07
    2f2a:	9d 83       	std	Y+5, r25	; 0x05
    2f2c:	8c 83       	std	Y+4, r24	; 0x04
    2f2e:	9f 01       	movw	r18, r30
    2f30:	2e 5f       	subi	r18, 0xFE	; 254
    2f32:	3f 4f       	sbci	r19, 0xFF	; 255
    2f34:	11 96       	adiw	r26, 0x01	; 1
    2f36:	8d 91       	ld	r24, X+
    2f38:	9c 91       	ld	r25, X
    2f3a:	12 97       	sbiw	r26, 0x02	; 2
    2f3c:	82 17       	cp	r24, r18
    2f3e:	93 07       	cpc	r25, r19
    2f40:	31 f4       	brne	.+12     	; 0x2f4e <xTaskRemoveFromEventList+0x9e>
    2f42:	80 85       	ldd	r24, Z+8	; 0x08
    2f44:	91 85       	ldd	r25, Z+9	; 0x09
    2f46:	12 96       	adiw	r26, 0x02	; 2
    2f48:	9c 93       	st	X, r25
    2f4a:	8e 93       	st	-X, r24
    2f4c:	11 97       	sbiw	r26, 0x01	; 1
    2f4e:	15 86       	std	Z+13, r1	; 0x0d
    2f50:	14 86       	std	Z+12, r1	; 0x0c
    2f52:	8c 91       	ld	r24, X
    2f54:	81 50       	subi	r24, 0x01	; 1
    2f56:	8c 93       	st	X, r24
    2f58:	a2 8d       	ldd	r26, Z+26	; 0x1a
    2f5a:	80 91 9d 12 	lds	r24, 0x129D	; 0x80129d <uxTopReadyPriority>
    2f5e:	8a 17       	cp	r24, r26
    2f60:	10 f4       	brcc	.+4      	; 0x2f66 <xTaskRemoveFromEventList+0xb6>
    2f62:	a0 93 9d 12 	sts	0x129D, r26	; 0x80129d <uxTopReadyPriority>
    2f66:	8b e0       	ldi	r24, 0x0B	; 11
    2f68:	8a 9f       	mul	r24, r26
    2f6a:	d0 01       	movw	r26, r0
    2f6c:	11 24       	eor	r1, r1
    2f6e:	a1 52       	subi	r26, 0x21	; 33
    2f70:	bd 4e       	sbci	r27, 0xED	; 237
    2f72:	11 96       	adiw	r26, 0x01	; 1
    2f74:	0d 90       	ld	r0, X+
    2f76:	bc 91       	ld	r27, X
    2f78:	a0 2d       	mov	r26, r0
    2f7a:	b7 83       	std	Z+7, r27	; 0x07
    2f7c:	a6 83       	std	Z+6, r26	; 0x06
    2f7e:	16 96       	adiw	r26, 0x06	; 6
    2f80:	4d 91       	ld	r20, X+
    2f82:	5c 91       	ld	r21, X
    2f84:	17 97       	sbiw	r26, 0x07	; 7
    2f86:	51 87       	std	Z+9, r21	; 0x09
    2f88:	40 87       	std	Z+8, r20	; 0x08
    2f8a:	16 96       	adiw	r26, 0x06	; 6
    2f8c:	cd 91       	ld	r28, X+
    2f8e:	dc 91       	ld	r29, X
    2f90:	17 97       	sbiw	r26, 0x07	; 7
    2f92:	3d 83       	std	Y+5, r19	; 0x05
    2f94:	2c 83       	std	Y+4, r18	; 0x04
    2f96:	17 96       	adiw	r26, 0x07	; 7
    2f98:	3c 93       	st	X, r19
    2f9a:	2e 93       	st	-X, r18
    2f9c:	16 97       	sbiw	r26, 0x06	; 6
    2f9e:	a2 8d       	ldd	r26, Z+26	; 0x1a
    2fa0:	8a 9f       	mul	r24, r26
    2fa2:	d0 01       	movw	r26, r0
    2fa4:	11 24       	eor	r1, r1
    2fa6:	a1 52       	subi	r26, 0x21	; 33
    2fa8:	bd 4e       	sbci	r27, 0xED	; 237
    2faa:	b5 87       	std	Z+13, r27	; 0x0d
    2fac:	a4 87       	std	Z+12, r26	; 0x0c
    2fae:	8c 91       	ld	r24, X
    2fb0:	8f 5f       	subi	r24, 0xFF	; 255
    2fb2:	8c 93       	st	X, r24
    2fb4:	1c c0       	rjmp	.+56     	; 0x2fee <xTaskRemoveFromEventList+0x13e>
    2fb6:	4a eb       	ldi	r20, 0xBA	; 186
    2fb8:	52 e1       	ldi	r21, 0x12	; 18
    2fba:	da 01       	movw	r26, r20
    2fbc:	11 96       	adiw	r26, 0x01	; 1
    2fbe:	cd 91       	ld	r28, X+
    2fc0:	dc 91       	ld	r29, X
    2fc2:	12 97       	sbiw	r26, 0x02	; 2
    2fc4:	d3 8b       	std	Z+19, r29	; 0x13
    2fc6:	c2 8b       	std	Z+18, r28	; 0x12
    2fc8:	8e 81       	ldd	r24, Y+6	; 0x06
    2fca:	9f 81       	ldd	r25, Y+7	; 0x07
    2fcc:	95 8b       	std	Z+21, r25	; 0x15
    2fce:	84 8b       	std	Z+20, r24	; 0x14
    2fd0:	8e 81       	ldd	r24, Y+6	; 0x06
    2fd2:	9f 81       	ldd	r25, Y+7	; 0x07
    2fd4:	dc 01       	movw	r26, r24
    2fd6:	15 96       	adiw	r26, 0x05	; 5
    2fd8:	3c 93       	st	X, r19
    2fda:	2e 93       	st	-X, r18
    2fdc:	14 97       	sbiw	r26, 0x04	; 4
    2fde:	3f 83       	std	Y+7, r19	; 0x07
    2fe0:	2e 83       	std	Y+6, r18	; 0x06
    2fe2:	51 8f       	std	Z+25, r21	; 0x19
    2fe4:	40 8f       	std	Z+24, r20	; 0x18
    2fe6:	da 01       	movw	r26, r20
    2fe8:	8c 91       	ld	r24, X
    2fea:	8f 5f       	subi	r24, 0xFF	; 255
    2fec:	8c 93       	st	X, r24
    2fee:	a0 91 4d 13 	lds	r26, 0x134D	; 0x80134d <pxCurrentTCB>
    2ff2:	b0 91 4e 13 	lds	r27, 0x134E	; 0x80134e <pxCurrentTCB+0x1>
    2ff6:	92 8d       	ldd	r25, Z+26	; 0x1a
    2ff8:	5a 96       	adiw	r26, 0x1a	; 26
    2ffa:	8c 91       	ld	r24, X
    2ffc:	89 17       	cp	r24, r25
    2ffe:	20 f4       	brcc	.+8      	; 0x3008 <xTaskRemoveFromEventList+0x158>
    3000:	81 e0       	ldi	r24, 0x01	; 1
    3002:	80 93 97 12 	sts	0x1297, r24	; 0x801297 <xYieldPending>
    3006:	01 c0       	rjmp	.+2      	; 0x300a <xTaskRemoveFromEventList+0x15a>
    3008:	80 e0       	ldi	r24, 0x00	; 0
    300a:	df 91       	pop	r29
    300c:	cf 91       	pop	r28
    300e:	08 95       	ret

00003010 <vTaskSetTimeOutState>:
    3010:	0f b6       	in	r0, 0x3f	; 63
    3012:	f8 94       	cli
    3014:	0f 92       	push	r0
    3016:	20 91 96 12 	lds	r18, 0x1296	; 0x801296 <xNumOfOverflows>
    301a:	fc 01       	movw	r30, r24
    301c:	20 83       	st	Z, r18
    301e:	40 91 9e 12 	lds	r20, 0x129E	; 0x80129e <xTickCount>
    3022:	50 91 9f 12 	lds	r21, 0x129F	; 0x80129f <xTickCount+0x1>
    3026:	60 91 a0 12 	lds	r22, 0x12A0	; 0x8012a0 <xTickCount+0x2>
    302a:	70 91 a1 12 	lds	r23, 0x12A1	; 0x8012a1 <xTickCount+0x3>
    302e:	41 83       	std	Z+1, r20	; 0x01
    3030:	52 83       	std	Z+2, r21	; 0x02
    3032:	63 83       	std	Z+3, r22	; 0x03
    3034:	74 83       	std	Z+4, r23	; 0x04
    3036:	0f 90       	pop	r0
    3038:	0f be       	out	0x3f, r0	; 63
    303a:	08 95       	ret

0000303c <vTaskInternalSetTimeOutState>:
    303c:	20 91 96 12 	lds	r18, 0x1296	; 0x801296 <xNumOfOverflows>
    3040:	fc 01       	movw	r30, r24
    3042:	20 83       	st	Z, r18
    3044:	40 91 9e 12 	lds	r20, 0x129E	; 0x80129e <xTickCount>
    3048:	50 91 9f 12 	lds	r21, 0x129F	; 0x80129f <xTickCount+0x1>
    304c:	60 91 a0 12 	lds	r22, 0x12A0	; 0x8012a0 <xTickCount+0x2>
    3050:	70 91 a1 12 	lds	r23, 0x12A1	; 0x8012a1 <xTickCount+0x3>
    3054:	41 83       	std	Z+1, r20	; 0x01
    3056:	52 83       	std	Z+2, r21	; 0x02
    3058:	63 83       	std	Z+3, r22	; 0x03
    305a:	74 83       	std	Z+4, r23	; 0x04
    305c:	08 95       	ret

0000305e <xTaskCheckForTimeOut>:
    305e:	cf 92       	push	r12
    3060:	df 92       	push	r13
    3062:	ef 92       	push	r14
    3064:	ff 92       	push	r15
    3066:	0f 93       	push	r16
    3068:	1f 93       	push	r17
    306a:	cf 93       	push	r28
    306c:	df 93       	push	r29
    306e:	fb 01       	movw	r30, r22
    3070:	0f b6       	in	r0, 0x3f	; 63
    3072:	f8 94       	cli
    3074:	0f 92       	push	r0
    3076:	40 91 9e 12 	lds	r20, 0x129E	; 0x80129e <xTickCount>
    307a:	50 91 9f 12 	lds	r21, 0x129F	; 0x80129f <xTickCount+0x1>
    307e:	60 91 a0 12 	lds	r22, 0x12A0	; 0x8012a0 <xTickCount+0x2>
    3082:	70 91 a1 12 	lds	r23, 0x12A1	; 0x8012a1 <xTickCount+0x3>
    3086:	00 81       	ld	r16, Z
    3088:	11 81       	ldd	r17, Z+1	; 0x01
    308a:	22 81       	ldd	r18, Z+2	; 0x02
    308c:	33 81       	ldd	r19, Z+3	; 0x03
    308e:	0f 3f       	cpi	r16, 0xFF	; 255
    3090:	af ef       	ldi	r26, 0xFF	; 255
    3092:	1a 07       	cpc	r17, r26
    3094:	2a 07       	cpc	r18, r26
    3096:	3a 07       	cpc	r19, r26
    3098:	79 f1       	breq	.+94     	; 0x30f8 <xTaskCheckForTimeOut+0x9a>
    309a:	ec 01       	movw	r28, r24
    309c:	c9 80       	ldd	r12, Y+1	; 0x01
    309e:	da 80       	ldd	r13, Y+2	; 0x02
    30a0:	eb 80       	ldd	r14, Y+3	; 0x03
    30a2:	fc 80       	ldd	r15, Y+4	; 0x04
    30a4:	a0 91 96 12 	lds	r26, 0x1296	; 0x801296 <xNumOfOverflows>
    30a8:	b8 81       	ld	r27, Y
    30aa:	ba 17       	cp	r27, r26
    30ac:	59 f0       	breq	.+22     	; 0x30c4 <xTaskCheckForTimeOut+0x66>
    30ae:	4c 15       	cp	r20, r12
    30b0:	5d 05       	cpc	r21, r13
    30b2:	6e 05       	cpc	r22, r14
    30b4:	7f 05       	cpc	r23, r15
    30b6:	30 f0       	brcs	.+12     	; 0x30c4 <xTaskCheckForTimeOut+0x66>
    30b8:	10 82       	st	Z, r1
    30ba:	11 82       	std	Z+1, r1	; 0x01
    30bc:	12 82       	std	Z+2, r1	; 0x02
    30be:	13 82       	std	Z+3, r1	; 0x03
    30c0:	81 e0       	ldi	r24, 0x01	; 1
    30c2:	1b c0       	rjmp	.+54     	; 0x30fa <xTaskCheckForTimeOut+0x9c>
    30c4:	4c 19       	sub	r20, r12
    30c6:	5d 09       	sbc	r21, r13
    30c8:	6e 09       	sbc	r22, r14
    30ca:	7f 09       	sbc	r23, r15
    30cc:	40 17       	cp	r20, r16
    30ce:	51 07       	cpc	r21, r17
    30d0:	62 07       	cpc	r22, r18
    30d2:	73 07       	cpc	r23, r19
    30d4:	58 f4       	brcc	.+22     	; 0x30ec <xTaskCheckForTimeOut+0x8e>
    30d6:	04 1b       	sub	r16, r20
    30d8:	15 0b       	sbc	r17, r21
    30da:	26 0b       	sbc	r18, r22
    30dc:	37 0b       	sbc	r19, r23
    30de:	00 83       	st	Z, r16
    30e0:	11 83       	std	Z+1, r17	; 0x01
    30e2:	22 83       	std	Z+2, r18	; 0x02
    30e4:	33 83       	std	Z+3, r19	; 0x03
    30e6:	aa df       	rcall	.-172    	; 0x303c <vTaskInternalSetTimeOutState>
    30e8:	80 e0       	ldi	r24, 0x00	; 0
    30ea:	07 c0       	rjmp	.+14     	; 0x30fa <xTaskCheckForTimeOut+0x9c>
    30ec:	10 82       	st	Z, r1
    30ee:	11 82       	std	Z+1, r1	; 0x01
    30f0:	12 82       	std	Z+2, r1	; 0x02
    30f2:	13 82       	std	Z+3, r1	; 0x03
    30f4:	81 e0       	ldi	r24, 0x01	; 1
    30f6:	01 c0       	rjmp	.+2      	; 0x30fa <xTaskCheckForTimeOut+0x9c>
    30f8:	80 e0       	ldi	r24, 0x00	; 0
    30fa:	0f 90       	pop	r0
    30fc:	0f be       	out	0x3f, r0	; 63
    30fe:	df 91       	pop	r29
    3100:	cf 91       	pop	r28
    3102:	1f 91       	pop	r17
    3104:	0f 91       	pop	r16
    3106:	ff 90       	pop	r15
    3108:	ef 90       	pop	r14
    310a:	df 90       	pop	r13
    310c:	cf 90       	pop	r12
    310e:	08 95       	ret

00003110 <vTaskMissedYield>:
    3110:	81 e0       	ldi	r24, 0x01	; 1
    3112:	80 93 97 12 	sts	0x1297, r24	; 0x801297 <xYieldPending>
    3116:	08 95       	ret

00003118 <xTaskGetCurrentTaskHandle>:
    3118:	80 91 4d 13 	lds	r24, 0x134D	; 0x80134d <pxCurrentTCB>
    311c:	90 91 4e 13 	lds	r25, 0x134E	; 0x80134e <pxCurrentTCB+0x1>
    3120:	08 95       	ret

00003122 <xTaskGetSchedulerState>:
    3122:	80 91 9c 12 	lds	r24, 0x129C	; 0x80129c <xSchedulerRunning>
    3126:	88 23       	and	r24, r24
    3128:	31 f0       	breq	.+12     	; 0x3136 <xTaskGetSchedulerState+0x14>
    312a:	80 91 8e 12 	lds	r24, 0x128E	; 0x80128e <uxSchedulerSuspended>
    312e:	88 23       	and	r24, r24
    3130:	21 f0       	breq	.+8      	; 0x313a <xTaskGetSchedulerState+0x18>
    3132:	80 e0       	ldi	r24, 0x00	; 0
    3134:	08 95       	ret
    3136:	81 e0       	ldi	r24, 0x01	; 1
    3138:	08 95       	ret
    313a:	82 e0       	ldi	r24, 0x02	; 2
    313c:	08 95       	ret

0000313e <xTaskPriorityInherit>:
    313e:	0f 93       	push	r16
    3140:	1f 93       	push	r17
    3142:	cf 93       	push	r28
    3144:	df 93       	push	r29
    3146:	fc 01       	movw	r30, r24
    3148:	89 2b       	or	r24, r25
    314a:	09 f4       	brne	.+2      	; 0x314e <xTaskPriorityInherit+0x10>
    314c:	79 c0       	rjmp	.+242    	; 0x3240 <xTaskPriorityInherit+0x102>
    314e:	82 8d       	ldd	r24, Z+26	; 0x1a
    3150:	a0 91 4d 13 	lds	r26, 0x134D	; 0x80134d <pxCurrentTCB>
    3154:	b0 91 4e 13 	lds	r27, 0x134E	; 0x80134e <pxCurrentTCB+0x1>
    3158:	5a 96       	adiw	r26, 0x1a	; 26
    315a:	9c 91       	ld	r25, X
    315c:	89 17       	cp	r24, r25
    315e:	08 f0       	brcs	.+2      	; 0x3162 <xTaskPriorityInherit+0x24>
    3160:	63 c0       	rjmp	.+198    	; 0x3228 <xTaskPriorityInherit+0xea>
    3162:	46 85       	ldd	r20, Z+14	; 0x0e
    3164:	57 85       	ldd	r21, Z+15	; 0x0f
    3166:	60 89       	ldd	r22, Z+16	; 0x10
    3168:	71 89       	ldd	r23, Z+17	; 0x11
    316a:	77 23       	and	r23, r23
    316c:	94 f0       	brlt	.+36     	; 0x3192 <xTaskPriorityInherit+0x54>
    316e:	a0 91 4d 13 	lds	r26, 0x134D	; 0x80134d <pxCurrentTCB>
    3172:	b0 91 4e 13 	lds	r27, 0x134E	; 0x80134e <pxCurrentTCB+0x1>
    3176:	5a 96       	adiw	r26, 0x1a	; 26
    3178:	9c 91       	ld	r25, X
    317a:	4a e0       	ldi	r20, 0x0A	; 10
    317c:	50 e0       	ldi	r21, 0x00	; 0
    317e:	60 e0       	ldi	r22, 0x00	; 0
    3180:	70 e0       	ldi	r23, 0x00	; 0
    3182:	49 1b       	sub	r20, r25
    3184:	51 09       	sbc	r21, r1
    3186:	61 09       	sbc	r22, r1
    3188:	71 09       	sbc	r23, r1
    318a:	46 87       	std	Z+14, r20	; 0x0e
    318c:	57 87       	std	Z+15, r21	; 0x0f
    318e:	60 8b       	std	Z+16, r22	; 0x10
    3190:	71 8b       	std	Z+17, r23	; 0x11
    3192:	2b e0       	ldi	r18, 0x0B	; 11
    3194:	82 9f       	mul	r24, r18
    3196:	c0 01       	movw	r24, r0
    3198:	11 24       	eor	r1, r1
    319a:	81 52       	subi	r24, 0x21	; 33
    319c:	9d 4e       	sbci	r25, 0xED	; 237
    319e:	24 85       	ldd	r18, Z+12	; 0x0c
    31a0:	35 85       	ldd	r19, Z+13	; 0x0d
    31a2:	28 17       	cp	r18, r24
    31a4:	39 07       	cpc	r19, r25
    31a6:	b9 f5       	brne	.+110    	; 0x3216 <xTaskPriorityInherit+0xd8>
    31a8:	ef 01       	movw	r28, r30
    31aa:	8f 01       	movw	r16, r30
    31ac:	0e 5f       	subi	r16, 0xFE	; 254
    31ae:	1f 4f       	sbci	r17, 0xFF	; 255
    31b0:	c8 01       	movw	r24, r16
    31b2:	0e 94 20 0a 	call	0x1440	; 0x1440 <uxListRemove>
    31b6:	e0 91 4d 13 	lds	r30, 0x134D	; 0x80134d <pxCurrentTCB>
    31ba:	f0 91 4e 13 	lds	r31, 0x134E	; 0x80134e <pxCurrentTCB+0x1>
    31be:	e2 8d       	ldd	r30, Z+26	; 0x1a
    31c0:	ea 8f       	std	Y+26, r30	; 0x1a
    31c2:	80 91 9d 12 	lds	r24, 0x129D	; 0x80129d <uxTopReadyPriority>
    31c6:	8e 17       	cp	r24, r30
    31c8:	10 f4       	brcc	.+4      	; 0x31ce <xTaskPriorityInherit+0x90>
    31ca:	e0 93 9d 12 	sts	0x129D, r30	; 0x80129d <uxTopReadyPriority>
    31ce:	8b e0       	ldi	r24, 0x0B	; 11
    31d0:	8e 9f       	mul	r24, r30
    31d2:	f0 01       	movw	r30, r0
    31d4:	11 24       	eor	r1, r1
    31d6:	e1 52       	subi	r30, 0x21	; 33
    31d8:	fd 4e       	sbci	r31, 0xED	; 237
    31da:	01 80       	ldd	r0, Z+1	; 0x01
    31dc:	f2 81       	ldd	r31, Z+2	; 0x02
    31de:	e0 2d       	mov	r30, r0
    31e0:	ff 83       	std	Y+7, r31	; 0x07
    31e2:	ee 83       	std	Y+6, r30	; 0x06
    31e4:	26 81       	ldd	r18, Z+6	; 0x06
    31e6:	37 81       	ldd	r19, Z+7	; 0x07
    31e8:	39 87       	std	Y+9, r19	; 0x09
    31ea:	28 87       	std	Y+8, r18	; 0x08
    31ec:	a6 81       	ldd	r26, Z+6	; 0x06
    31ee:	b7 81       	ldd	r27, Z+7	; 0x07
    31f0:	15 96       	adiw	r26, 0x05	; 5
    31f2:	1c 93       	st	X, r17
    31f4:	0e 93       	st	-X, r16
    31f6:	14 97       	sbiw	r26, 0x04	; 4
    31f8:	17 83       	std	Z+7, r17	; 0x07
    31fa:	06 83       	std	Z+6, r16	; 0x06
    31fc:	ea 8d       	ldd	r30, Y+26	; 0x1a
    31fe:	8e 9f       	mul	r24, r30
    3200:	f0 01       	movw	r30, r0
    3202:	11 24       	eor	r1, r1
    3204:	e1 52       	subi	r30, 0x21	; 33
    3206:	fd 4e       	sbci	r31, 0xED	; 237
    3208:	fd 87       	std	Y+13, r31	; 0x0d
    320a:	ec 87       	std	Y+12, r30	; 0x0c
    320c:	80 81       	ld	r24, Z
    320e:	8f 5f       	subi	r24, 0xFF	; 255
    3210:	80 83       	st	Z, r24
    3212:	81 e0       	ldi	r24, 0x01	; 1
    3214:	16 c0       	rjmp	.+44     	; 0x3242 <xTaskPriorityInherit+0x104>
    3216:	a0 91 4d 13 	lds	r26, 0x134D	; 0x80134d <pxCurrentTCB>
    321a:	b0 91 4e 13 	lds	r27, 0x134E	; 0x80134e <pxCurrentTCB+0x1>
    321e:	5a 96       	adiw	r26, 0x1a	; 26
    3220:	8c 91       	ld	r24, X
    3222:	82 8f       	std	Z+26, r24	; 0x1a
    3224:	81 e0       	ldi	r24, 0x01	; 1
    3226:	0d c0       	rjmp	.+26     	; 0x3242 <xTaskPriorityInherit+0x104>
    3228:	a0 91 4d 13 	lds	r26, 0x134D	; 0x80134d <pxCurrentTCB>
    322c:	b0 91 4e 13 	lds	r27, 0x134E	; 0x80134e <pxCurrentTCB+0x1>
    3230:	81 e0       	ldi	r24, 0x01	; 1
    3232:	25 a5       	ldd	r18, Z+45	; 0x2d
    3234:	5a 96       	adiw	r26, 0x1a	; 26
    3236:	9c 91       	ld	r25, X
    3238:	29 17       	cp	r18, r25
    323a:	18 f0       	brcs	.+6      	; 0x3242 <xTaskPriorityInherit+0x104>
    323c:	80 e0       	ldi	r24, 0x00	; 0
    323e:	01 c0       	rjmp	.+2      	; 0x3242 <xTaskPriorityInherit+0x104>
    3240:	80 e0       	ldi	r24, 0x00	; 0
    3242:	df 91       	pop	r29
    3244:	cf 91       	pop	r28
    3246:	1f 91       	pop	r17
    3248:	0f 91       	pop	r16
    324a:	08 95       	ret

0000324c <xTaskPriorityDisinherit>:
    324c:	0f 93       	push	r16
    324e:	1f 93       	push	r17
    3250:	cf 93       	push	r28
    3252:	df 93       	push	r29
    3254:	fc 01       	movw	r30, r24
    3256:	89 2b       	or	r24, r25
    3258:	09 f4       	brne	.+2      	; 0x325c <xTaskPriorityDisinherit+0x10>
    325a:	49 c0       	rjmp	.+146    	; 0x32ee <xTaskPriorityDisinherit+0xa2>
    325c:	86 a5       	ldd	r24, Z+46	; 0x2e
    325e:	81 50       	subi	r24, 0x01	; 1
    3260:	86 a7       	std	Z+46, r24	; 0x2e
    3262:	22 8d       	ldd	r18, Z+26	; 0x1a
    3264:	95 a5       	ldd	r25, Z+45	; 0x2d
    3266:	29 17       	cp	r18, r25
    3268:	09 f4       	brne	.+2      	; 0x326c <xTaskPriorityDisinherit+0x20>
    326a:	43 c0       	rjmp	.+134    	; 0x32f2 <xTaskPriorityDisinherit+0xa6>
    326c:	81 11       	cpse	r24, r1
    326e:	43 c0       	rjmp	.+134    	; 0x32f6 <xTaskPriorityDisinherit+0xaa>
    3270:	ef 01       	movw	r28, r30
    3272:	8f 01       	movw	r16, r30
    3274:	0e 5f       	subi	r16, 0xFE	; 254
    3276:	1f 4f       	sbci	r17, 0xFF	; 255
    3278:	c8 01       	movw	r24, r16
    327a:	0e 94 20 0a 	call	0x1440	; 0x1440 <uxListRemove>
    327e:	ed a5       	ldd	r30, Y+45	; 0x2d
    3280:	ea 8f       	std	Y+26, r30	; 0x1a
    3282:	8a e0       	ldi	r24, 0x0A	; 10
    3284:	90 e0       	ldi	r25, 0x00	; 0
    3286:	a0 e0       	ldi	r26, 0x00	; 0
    3288:	b0 e0       	ldi	r27, 0x00	; 0
    328a:	8e 1b       	sub	r24, r30
    328c:	91 09       	sbc	r25, r1
    328e:	a1 09       	sbc	r26, r1
    3290:	b1 09       	sbc	r27, r1
    3292:	8e 87       	std	Y+14, r24	; 0x0e
    3294:	9f 87       	std	Y+15, r25	; 0x0f
    3296:	a8 8b       	std	Y+16, r26	; 0x10
    3298:	b9 8b       	std	Y+17, r27	; 0x11
    329a:	80 91 9d 12 	lds	r24, 0x129D	; 0x80129d <uxTopReadyPriority>
    329e:	8e 17       	cp	r24, r30
    32a0:	10 f4       	brcc	.+4      	; 0x32a6 <xTaskPriorityDisinherit+0x5a>
    32a2:	e0 93 9d 12 	sts	0x129D, r30	; 0x80129d <uxTopReadyPriority>
    32a6:	8b e0       	ldi	r24, 0x0B	; 11
    32a8:	8e 9f       	mul	r24, r30
    32aa:	f0 01       	movw	r30, r0
    32ac:	11 24       	eor	r1, r1
    32ae:	e1 52       	subi	r30, 0x21	; 33
    32b0:	fd 4e       	sbci	r31, 0xED	; 237
    32b2:	01 80       	ldd	r0, Z+1	; 0x01
    32b4:	f2 81       	ldd	r31, Z+2	; 0x02
    32b6:	e0 2d       	mov	r30, r0
    32b8:	ff 83       	std	Y+7, r31	; 0x07
    32ba:	ee 83       	std	Y+6, r30	; 0x06
    32bc:	26 81       	ldd	r18, Z+6	; 0x06
    32be:	37 81       	ldd	r19, Z+7	; 0x07
    32c0:	39 87       	std	Y+9, r19	; 0x09
    32c2:	28 87       	std	Y+8, r18	; 0x08
    32c4:	a6 81       	ldd	r26, Z+6	; 0x06
    32c6:	b7 81       	ldd	r27, Z+7	; 0x07
    32c8:	15 96       	adiw	r26, 0x05	; 5
    32ca:	1c 93       	st	X, r17
    32cc:	0e 93       	st	-X, r16
    32ce:	14 97       	sbiw	r26, 0x04	; 4
    32d0:	17 83       	std	Z+7, r17	; 0x07
    32d2:	06 83       	std	Z+6, r16	; 0x06
    32d4:	ea 8d       	ldd	r30, Y+26	; 0x1a
    32d6:	8e 9f       	mul	r24, r30
    32d8:	f0 01       	movw	r30, r0
    32da:	11 24       	eor	r1, r1
    32dc:	e1 52       	subi	r30, 0x21	; 33
    32de:	fd 4e       	sbci	r31, 0xED	; 237
    32e0:	fd 87       	std	Y+13, r31	; 0x0d
    32e2:	ec 87       	std	Y+12, r30	; 0x0c
    32e4:	80 81       	ld	r24, Z
    32e6:	8f 5f       	subi	r24, 0xFF	; 255
    32e8:	80 83       	st	Z, r24
    32ea:	81 e0       	ldi	r24, 0x01	; 1
    32ec:	05 c0       	rjmp	.+10     	; 0x32f8 <xTaskPriorityDisinherit+0xac>
    32ee:	80 e0       	ldi	r24, 0x00	; 0
    32f0:	03 c0       	rjmp	.+6      	; 0x32f8 <xTaskPriorityDisinherit+0xac>
    32f2:	80 e0       	ldi	r24, 0x00	; 0
    32f4:	01 c0       	rjmp	.+2      	; 0x32f8 <xTaskPriorityDisinherit+0xac>
    32f6:	80 e0       	ldi	r24, 0x00	; 0
    32f8:	df 91       	pop	r29
    32fa:	cf 91       	pop	r28
    32fc:	1f 91       	pop	r17
    32fe:	0f 91       	pop	r16
    3300:	08 95       	ret

00003302 <vTaskPriorityDisinheritAfterTimeout>:
    3302:	0f 93       	push	r16
    3304:	1f 93       	push	r17
    3306:	cf 93       	push	r28
    3308:	df 93       	push	r29
    330a:	fc 01       	movw	r30, r24
    330c:	89 2b       	or	r24, r25
    330e:	09 f4       	brne	.+2      	; 0x3312 <vTaskPriorityDisinheritAfterTimeout+0x10>
    3310:	5a c0       	rjmp	.+180    	; 0x33c6 <vTaskPriorityDisinheritAfterTimeout+0xc4>
    3312:	85 a5       	ldd	r24, Z+45	; 0x2d
    3314:	86 17       	cp	r24, r22
    3316:	08 f4       	brcc	.+2      	; 0x331a <vTaskPriorityDisinheritAfterTimeout+0x18>
    3318:	86 2f       	mov	r24, r22
    331a:	92 8d       	ldd	r25, Z+26	; 0x1a
    331c:	98 17       	cp	r25, r24
    331e:	09 f4       	brne	.+2      	; 0x3322 <vTaskPriorityDisinheritAfterTimeout+0x20>
    3320:	52 c0       	rjmp	.+164    	; 0x33c6 <vTaskPriorityDisinheritAfterTimeout+0xc4>
    3322:	26 a5       	ldd	r18, Z+46	; 0x2e
    3324:	21 30       	cpi	r18, 0x01	; 1
    3326:	09 f0       	breq	.+2      	; 0x332a <vTaskPriorityDisinheritAfterTimeout+0x28>
    3328:	4e c0       	rjmp	.+156    	; 0x33c6 <vTaskPriorityDisinheritAfterTimeout+0xc4>
    332a:	82 8f       	std	Z+26, r24	; 0x1a
    332c:	46 85       	ldd	r20, Z+14	; 0x0e
    332e:	57 85       	ldd	r21, Z+15	; 0x0f
    3330:	60 89       	ldd	r22, Z+16	; 0x10
    3332:	71 89       	ldd	r23, Z+17	; 0x11
    3334:	77 23       	and	r23, r23
    3336:	64 f0       	brlt	.+24     	; 0x3350 <vTaskPriorityDisinheritAfterTimeout+0x4e>
    3338:	4a e0       	ldi	r20, 0x0A	; 10
    333a:	50 e0       	ldi	r21, 0x00	; 0
    333c:	60 e0       	ldi	r22, 0x00	; 0
    333e:	70 e0       	ldi	r23, 0x00	; 0
    3340:	48 1b       	sub	r20, r24
    3342:	51 09       	sbc	r21, r1
    3344:	61 09       	sbc	r22, r1
    3346:	71 09       	sbc	r23, r1
    3348:	46 87       	std	Z+14, r20	; 0x0e
    334a:	57 87       	std	Z+15, r21	; 0x0f
    334c:	60 8b       	std	Z+16, r22	; 0x10
    334e:	71 8b       	std	Z+17, r23	; 0x11
    3350:	2b e0       	ldi	r18, 0x0B	; 11
    3352:	92 9f       	mul	r25, r18
    3354:	c0 01       	movw	r24, r0
    3356:	11 24       	eor	r1, r1
    3358:	81 52       	subi	r24, 0x21	; 33
    335a:	9d 4e       	sbci	r25, 0xED	; 237
    335c:	24 85       	ldd	r18, Z+12	; 0x0c
    335e:	35 85       	ldd	r19, Z+13	; 0x0d
    3360:	28 17       	cp	r18, r24
    3362:	39 07       	cpc	r19, r25
    3364:	81 f5       	brne	.+96     	; 0x33c6 <vTaskPriorityDisinheritAfterTimeout+0xc4>
    3366:	ef 01       	movw	r28, r30
    3368:	8f 01       	movw	r16, r30
    336a:	0e 5f       	subi	r16, 0xFE	; 254
    336c:	1f 4f       	sbci	r17, 0xFF	; 255
    336e:	c8 01       	movw	r24, r16
    3370:	0e 94 20 0a 	call	0x1440	; 0x1440 <uxListRemove>
    3374:	ea 8d       	ldd	r30, Y+26	; 0x1a
    3376:	80 91 9d 12 	lds	r24, 0x129D	; 0x80129d <uxTopReadyPriority>
    337a:	8e 17       	cp	r24, r30
    337c:	10 f4       	brcc	.+4      	; 0x3382 <vTaskPriorityDisinheritAfterTimeout+0x80>
    337e:	e0 93 9d 12 	sts	0x129D, r30	; 0x80129d <uxTopReadyPriority>
    3382:	8b e0       	ldi	r24, 0x0B	; 11
    3384:	8e 9f       	mul	r24, r30
    3386:	f0 01       	movw	r30, r0
    3388:	11 24       	eor	r1, r1
    338a:	e1 52       	subi	r30, 0x21	; 33
    338c:	fd 4e       	sbci	r31, 0xED	; 237
    338e:	01 80       	ldd	r0, Z+1	; 0x01
    3390:	f2 81       	ldd	r31, Z+2	; 0x02
    3392:	e0 2d       	mov	r30, r0
    3394:	ff 83       	std	Y+7, r31	; 0x07
    3396:	ee 83       	std	Y+6, r30	; 0x06
    3398:	26 81       	ldd	r18, Z+6	; 0x06
    339a:	37 81       	ldd	r19, Z+7	; 0x07
    339c:	39 87       	std	Y+9, r19	; 0x09
    339e:	28 87       	std	Y+8, r18	; 0x08
    33a0:	a6 81       	ldd	r26, Z+6	; 0x06
    33a2:	b7 81       	ldd	r27, Z+7	; 0x07
    33a4:	15 96       	adiw	r26, 0x05	; 5
    33a6:	1c 93       	st	X, r17
    33a8:	0e 93       	st	-X, r16
    33aa:	14 97       	sbiw	r26, 0x04	; 4
    33ac:	17 83       	std	Z+7, r17	; 0x07
    33ae:	06 83       	std	Z+6, r16	; 0x06
    33b0:	ea 8d       	ldd	r30, Y+26	; 0x1a
    33b2:	8e 9f       	mul	r24, r30
    33b4:	f0 01       	movw	r30, r0
    33b6:	11 24       	eor	r1, r1
    33b8:	e1 52       	subi	r30, 0x21	; 33
    33ba:	fd 4e       	sbci	r31, 0xED	; 237
    33bc:	fd 87       	std	Y+13, r31	; 0x0d
    33be:	ec 87       	std	Y+12, r30	; 0x0c
    33c0:	80 81       	ld	r24, Z
    33c2:	8f 5f       	subi	r24, 0xFF	; 255
    33c4:	80 83       	st	Z, r24
    33c6:	df 91       	pop	r29
    33c8:	cf 91       	pop	r28
    33ca:	1f 91       	pop	r17
    33cc:	0f 91       	pop	r16
    33ce:	08 95       	ret

000033d0 <pvTaskIncrementMutexHeldCount>:
    33d0:	80 91 4d 13 	lds	r24, 0x134D	; 0x80134d <pxCurrentTCB>
    33d4:	90 91 4e 13 	lds	r25, 0x134E	; 0x80134e <pxCurrentTCB+0x1>
    33d8:	89 2b       	or	r24, r25
    33da:	39 f0       	breq	.+14     	; 0x33ea <pvTaskIncrementMutexHeldCount+0x1a>
    33dc:	e0 91 4d 13 	lds	r30, 0x134D	; 0x80134d <pxCurrentTCB>
    33e0:	f0 91 4e 13 	lds	r31, 0x134E	; 0x80134e <pxCurrentTCB+0x1>
    33e4:	86 a5       	ldd	r24, Z+46	; 0x2e
    33e6:	8f 5f       	subi	r24, 0xFF	; 255
    33e8:	86 a7       	std	Z+46, r24	; 0x2e
    33ea:	80 91 4d 13 	lds	r24, 0x134D	; 0x80134d <pxCurrentTCB>
    33ee:	90 91 4e 13 	lds	r25, 0x134E	; 0x80134e <pxCurrentTCB+0x1>
    33f2:	08 95       	ret

000033f4 <xTaskGenericNotifyWait>:
    33f4:	4f 92       	push	r4
    33f6:	5f 92       	push	r5
    33f8:	6f 92       	push	r6
    33fa:	7f 92       	push	r7
    33fc:	af 92       	push	r10
    33fe:	bf 92       	push	r11
    3400:	cf 92       	push	r12
    3402:	df 92       	push	r13
    3404:	ef 92       	push	r14
    3406:	ff 92       	push	r15
    3408:	0f 93       	push	r16
    340a:	1f 93       	push	r17
    340c:	cf 93       	push	r28
    340e:	df 93       	push	r29
    3410:	28 01       	movw	r4, r16
    3412:	39 01       	movw	r6, r18
    3414:	0f b6       	in	r0, 0x3f	; 63
    3416:	f8 94       	cli
    3418:	0f 92       	push	r0
    341a:	e0 91 4d 13 	lds	r30, 0x134D	; 0x80134d <pxCurrentTCB>
    341e:	f0 91 4e 13 	lds	r31, 0x134E	; 0x80134e <pxCurrentTCB+0x1>
    3422:	c8 2f       	mov	r28, r24
    3424:	d0 e0       	ldi	r29, 0x00	; 0
    3426:	ec 0f       	add	r30, r28
    3428:	fd 1f       	adc	r31, r29
    342a:	83 a9       	ldd	r24, Z+51	; 0x33
    342c:	82 30       	cpi	r24, 0x02	; 2
    342e:	79 f1       	breq	.+94     	; 0x348e <xTaskGenericNotifyWait+0x9a>
    3430:	e0 91 4d 13 	lds	r30, 0x134D	; 0x80134d <pxCurrentTCB>
    3434:	f0 91 4e 13 	lds	r31, 0x134E	; 0x80134e <pxCurrentTCB+0x1>
    3438:	ce 01       	movw	r24, r28
    343a:	88 0f       	add	r24, r24
    343c:	99 1f       	adc	r25, r25
    343e:	88 0f       	add	r24, r24
    3440:	99 1f       	adc	r25, r25
    3442:	e8 0f       	add	r30, r24
    3444:	f9 1f       	adc	r31, r25
    3446:	87 a5       	ldd	r24, Z+47	; 0x2f
    3448:	90 a9       	ldd	r25, Z+48	; 0x30
    344a:	a1 a9       	ldd	r26, Z+49	; 0x31
    344c:	b2 a9       	ldd	r27, Z+50	; 0x32
    344e:	40 95       	com	r20
    3450:	50 95       	com	r21
    3452:	60 95       	com	r22
    3454:	70 95       	com	r23
    3456:	48 23       	and	r20, r24
    3458:	59 23       	and	r21, r25
    345a:	6a 23       	and	r22, r26
    345c:	7b 23       	and	r23, r27
    345e:	47 a7       	std	Z+47, r20	; 0x2f
    3460:	50 ab       	std	Z+48, r21	; 0x30
    3462:	61 ab       	std	Z+49, r22	; 0x31
    3464:	72 ab       	std	Z+50, r23	; 0x32
    3466:	e0 91 4d 13 	lds	r30, 0x134D	; 0x80134d <pxCurrentTCB>
    346a:	f0 91 4e 13 	lds	r31, 0x134E	; 0x80134e <pxCurrentTCB+0x1>
    346e:	ec 0f       	add	r30, r28
    3470:	fd 1f       	adc	r31, r29
    3472:	81 e0       	ldi	r24, 0x01	; 1
    3474:	83 ab       	std	Z+51, r24	; 0x33
    3476:	a1 14       	cp	r10, r1
    3478:	b1 04       	cpc	r11, r1
    347a:	c1 04       	cpc	r12, r1
    347c:	d1 04       	cpc	r13, r1
    347e:	39 f0       	breq	.+14     	; 0x348e <xTaskGenericNotifyWait+0x9a>
    3480:	41 e0       	ldi	r20, 0x01	; 1
    3482:	c6 01       	movw	r24, r12
    3484:	b5 01       	movw	r22, r10
    3486:	0e 94 37 12 	call	0x246e	; 0x246e <prvAddCurrentTaskToDelayedList>
    348a:	0e 94 9a 0a 	call	0x1534	; 0x1534 <vPortYield>
    348e:	0f 90       	pop	r0
    3490:	0f be       	out	0x3f, r0	; 63
    3492:	0f b6       	in	r0, 0x3f	; 63
    3494:	f8 94       	cli
    3496:	0f 92       	push	r0
    3498:	e1 14       	cp	r14, r1
    349a:	f1 04       	cpc	r15, r1
    349c:	a1 f0       	breq	.+40     	; 0x34c6 <xTaskGenericNotifyWait+0xd2>
    349e:	e0 91 4d 13 	lds	r30, 0x134D	; 0x80134d <pxCurrentTCB>
    34a2:	f0 91 4e 13 	lds	r31, 0x134E	; 0x80134e <pxCurrentTCB+0x1>
    34a6:	ce 01       	movw	r24, r28
    34a8:	88 0f       	add	r24, r24
    34aa:	99 1f       	adc	r25, r25
    34ac:	88 0f       	add	r24, r24
    34ae:	99 1f       	adc	r25, r25
    34b0:	e8 0f       	add	r30, r24
    34b2:	f9 1f       	adc	r31, r25
    34b4:	87 a5       	ldd	r24, Z+47	; 0x2f
    34b6:	90 a9       	ldd	r25, Z+48	; 0x30
    34b8:	a1 a9       	ldd	r26, Z+49	; 0x31
    34ba:	b2 a9       	ldd	r27, Z+50	; 0x32
    34bc:	f7 01       	movw	r30, r14
    34be:	80 83       	st	Z, r24
    34c0:	91 83       	std	Z+1, r25	; 0x01
    34c2:	a2 83       	std	Z+2, r26	; 0x02
    34c4:	b3 83       	std	Z+3, r27	; 0x03
    34c6:	e0 91 4d 13 	lds	r30, 0x134D	; 0x80134d <pxCurrentTCB>
    34ca:	f0 91 4e 13 	lds	r31, 0x134E	; 0x80134e <pxCurrentTCB+0x1>
    34ce:	ec 0f       	add	r30, r28
    34d0:	fd 1f       	adc	r31, r29
    34d2:	83 a9       	ldd	r24, Z+51	; 0x33
    34d4:	82 30       	cpi	r24, 0x02	; 2
    34d6:	e9 f4       	brne	.+58     	; 0x3512 <xTaskGenericNotifyWait+0x11e>
    34d8:	e0 91 4d 13 	lds	r30, 0x134D	; 0x80134d <pxCurrentTCB>
    34dc:	f0 91 4e 13 	lds	r31, 0x134E	; 0x80134e <pxCurrentTCB+0x1>
    34e0:	ce 01       	movw	r24, r28
    34e2:	88 0f       	add	r24, r24
    34e4:	99 1f       	adc	r25, r25
    34e6:	88 0f       	add	r24, r24
    34e8:	99 1f       	adc	r25, r25
    34ea:	e8 0f       	add	r30, r24
    34ec:	f9 1f       	adc	r31, r25
    34ee:	87 a5       	ldd	r24, Z+47	; 0x2f
    34f0:	90 a9       	ldd	r25, Z+48	; 0x30
    34f2:	a1 a9       	ldd	r26, Z+49	; 0x31
    34f4:	b2 a9       	ldd	r27, Z+50	; 0x32
    34f6:	40 94       	com	r4
    34f8:	50 94       	com	r5
    34fa:	60 94       	com	r6
    34fc:	70 94       	com	r7
    34fe:	48 22       	and	r4, r24
    3500:	59 22       	and	r5, r25
    3502:	6a 22       	and	r6, r26
    3504:	7b 22       	and	r7, r27
    3506:	47 a6       	std	Z+47, r4	; 0x2f
    3508:	50 aa       	std	Z+48, r5	; 0x30
    350a:	61 aa       	std	Z+49, r6	; 0x31
    350c:	72 aa       	std	Z+50, r7	; 0x32
    350e:	81 e0       	ldi	r24, 0x01	; 1
    3510:	01 c0       	rjmp	.+2      	; 0x3514 <xTaskGenericNotifyWait+0x120>
    3512:	80 e0       	ldi	r24, 0x00	; 0
    3514:	20 91 4d 13 	lds	r18, 0x134D	; 0x80134d <pxCurrentTCB>
    3518:	30 91 4e 13 	lds	r19, 0x134E	; 0x80134e <pxCurrentTCB+0x1>
    351c:	c2 0f       	add	r28, r18
    351e:	d3 1f       	adc	r29, r19
    3520:	1b aa       	std	Y+51, r1	; 0x33
    3522:	0f 90       	pop	r0
    3524:	0f be       	out	0x3f, r0	; 63
    3526:	df 91       	pop	r29
    3528:	cf 91       	pop	r28
    352a:	1f 91       	pop	r17
    352c:	0f 91       	pop	r16
    352e:	ff 90       	pop	r15
    3530:	ef 90       	pop	r14
    3532:	df 90       	pop	r13
    3534:	cf 90       	pop	r12
    3536:	bf 90       	pop	r11
    3538:	af 90       	pop	r10
    353a:	7f 90       	pop	r7
    353c:	6f 90       	pop	r6
    353e:	5f 90       	pop	r5
    3540:	4f 90       	pop	r4
    3542:	08 95       	ret

00003544 <xTaskGenericNotify>:
    3544:	8f 92       	push	r8
    3546:	9f 92       	push	r9
    3548:	af 92       	push	r10
    354a:	bf 92       	push	r11
    354c:	ef 92       	push	r14
    354e:	ff 92       	push	r15
    3550:	0f 93       	push	r16
    3552:	cf 93       	push	r28
    3554:	df 93       	push	r29
    3556:	dc 01       	movw	r26, r24
    3558:	0f b6       	in	r0, 0x3f	; 63
    355a:	f8 94       	cli
    355c:	0f 92       	push	r0
    355e:	e1 14       	cp	r14, r1
    3560:	f1 04       	cpc	r15, r1
    3562:	79 f0       	breq	.+30     	; 0x3582 <xTaskGenericNotify+0x3e>
    3564:	fc 01       	movw	r30, r24
    3566:	84 e0       	ldi	r24, 0x04	; 4
    3568:	68 9f       	mul	r22, r24
    356a:	e0 0d       	add	r30, r0
    356c:	f1 1d       	adc	r31, r1
    356e:	11 24       	eor	r1, r1
    3570:	87 a4       	ldd	r8, Z+47	; 0x2f
    3572:	90 a8       	ldd	r9, Z+48	; 0x30
    3574:	a1 a8       	ldd	r10, Z+49	; 0x31
    3576:	b2 a8       	ldd	r11, Z+50	; 0x32
    3578:	f7 01       	movw	r30, r14
    357a:	80 82       	st	Z, r8
    357c:	91 82       	std	Z+1, r9	; 0x01
    357e:	a2 82       	std	Z+2, r10	; 0x02
    3580:	b3 82       	std	Z+3, r11	; 0x03
    3582:	70 e0       	ldi	r23, 0x00	; 0
    3584:	fd 01       	movw	r30, r26
    3586:	e6 0f       	add	r30, r22
    3588:	f7 1f       	adc	r31, r23
    358a:	83 a9       	ldd	r24, Z+51	; 0x33
    358c:	92 e0       	ldi	r25, 0x02	; 2
    358e:	93 ab       	std	Z+51, r25	; 0x33
    3590:	02 30       	cpi	r16, 0x02	; 2
    3592:	f9 f0       	breq	.+62     	; 0x35d2 <xTaskGenericNotify+0x8e>
    3594:	18 f4       	brcc	.+6      	; 0x359c <xTaskGenericNotify+0x58>
    3596:	01 30       	cpi	r16, 0x01	; 1
    3598:	31 f0       	breq	.+12     	; 0x35a6 <xTaskGenericNotify+0x62>
    359a:	49 c0       	rjmp	.+146    	; 0x362e <xTaskGenericNotify+0xea>
    359c:	03 30       	cpi	r16, 0x03	; 3
    359e:	69 f1       	breq	.+90     	; 0x35fa <xTaskGenericNotify+0xb6>
    35a0:	04 30       	cpi	r16, 0x04	; 4
    35a2:	b9 f1       	breq	.+110    	; 0x3612 <xTaskGenericNotify+0xce>
    35a4:	44 c0       	rjmp	.+136    	; 0x362e <xTaskGenericNotify+0xea>
    35a6:	66 0f       	add	r22, r22
    35a8:	77 1f       	adc	r23, r23
    35aa:	66 0f       	add	r22, r22
    35ac:	77 1f       	adc	r23, r23
    35ae:	fd 01       	movw	r30, r26
    35b0:	e6 0f       	add	r30, r22
    35b2:	f7 1f       	adc	r31, r23
    35b4:	87 a4       	ldd	r8, Z+47	; 0x2f
    35b6:	90 a8       	ldd	r9, Z+48	; 0x30
    35b8:	a1 a8       	ldd	r10, Z+49	; 0x31
    35ba:	b2 a8       	ldd	r11, Z+50	; 0x32
    35bc:	ba 01       	movw	r22, r20
    35be:	a9 01       	movw	r20, r18
    35c0:	48 29       	or	r20, r8
    35c2:	59 29       	or	r21, r9
    35c4:	6a 29       	or	r22, r10
    35c6:	7b 29       	or	r23, r11
    35c8:	47 a7       	std	Z+47, r20	; 0x2f
    35ca:	50 ab       	std	Z+48, r21	; 0x30
    35cc:	61 ab       	std	Z+49, r22	; 0x31
    35ce:	72 ab       	std	Z+50, r23	; 0x32
    35d0:	2e c0       	rjmp	.+92     	; 0x362e <xTaskGenericNotify+0xea>
    35d2:	66 0f       	add	r22, r22
    35d4:	77 1f       	adc	r23, r23
    35d6:	66 0f       	add	r22, r22
    35d8:	77 1f       	adc	r23, r23
    35da:	fd 01       	movw	r30, r26
    35dc:	e6 0f       	add	r30, r22
    35de:	f7 1f       	adc	r31, r23
    35e0:	47 a5       	ldd	r20, Z+47	; 0x2f
    35e2:	50 a9       	ldd	r21, Z+48	; 0x30
    35e4:	61 a9       	ldd	r22, Z+49	; 0x31
    35e6:	72 a9       	ldd	r23, Z+50	; 0x32
    35e8:	4f 5f       	subi	r20, 0xFF	; 255
    35ea:	5f 4f       	sbci	r21, 0xFF	; 255
    35ec:	6f 4f       	sbci	r22, 0xFF	; 255
    35ee:	7f 4f       	sbci	r23, 0xFF	; 255
    35f0:	47 a7       	std	Z+47, r20	; 0x2f
    35f2:	50 ab       	std	Z+48, r21	; 0x30
    35f4:	61 ab       	std	Z+49, r22	; 0x31
    35f6:	72 ab       	std	Z+50, r23	; 0x32
    35f8:	1a c0       	rjmp	.+52     	; 0x362e <xTaskGenericNotify+0xea>
    35fa:	66 0f       	add	r22, r22
    35fc:	77 1f       	adc	r23, r23
    35fe:	66 0f       	add	r22, r22
    3600:	77 1f       	adc	r23, r23
    3602:	fd 01       	movw	r30, r26
    3604:	e6 0f       	add	r30, r22
    3606:	f7 1f       	adc	r31, r23
    3608:	27 a7       	std	Z+47, r18	; 0x2f
    360a:	30 ab       	std	Z+48, r19	; 0x30
    360c:	41 ab       	std	Z+49, r20	; 0x31
    360e:	52 ab       	std	Z+50, r21	; 0x32
    3610:	0e c0       	rjmp	.+28     	; 0x362e <xTaskGenericNotify+0xea>
    3612:	82 30       	cpi	r24, 0x02	; 2
    3614:	09 f4       	brne	.+2      	; 0x3618 <xTaskGenericNotify+0xd4>
    3616:	79 c0       	rjmp	.+242    	; 0x370a <xTaskGenericNotify+0x1c6>
    3618:	66 0f       	add	r22, r22
    361a:	77 1f       	adc	r23, r23
    361c:	66 0f       	add	r22, r22
    361e:	77 1f       	adc	r23, r23
    3620:	fd 01       	movw	r30, r26
    3622:	e6 0f       	add	r30, r22
    3624:	f7 1f       	adc	r31, r23
    3626:	27 a7       	std	Z+47, r18	; 0x2f
    3628:	30 ab       	std	Z+48, r19	; 0x30
    362a:	41 ab       	std	Z+49, r20	; 0x31
    362c:	52 ab       	std	Z+50, r21	; 0x32
    362e:	81 30       	cpi	r24, 0x01	; 1
    3630:	09 f0       	breq	.+2      	; 0x3634 <xTaskGenericNotify+0xf0>
    3632:	6d c0       	rjmp	.+218    	; 0x370e <xTaskGenericNotify+0x1ca>
    3634:	1c 96       	adiw	r26, 0x0c	; 12
    3636:	ed 91       	ld	r30, X+
    3638:	fc 91       	ld	r31, X
    363a:	1d 97       	sbiw	r26, 0x0d	; 13
    363c:	16 96       	adiw	r26, 0x06	; 6
    363e:	cd 91       	ld	r28, X+
    3640:	dc 91       	ld	r29, X
    3642:	17 97       	sbiw	r26, 0x07	; 7
    3644:	18 96       	adiw	r26, 0x08	; 8
    3646:	8d 91       	ld	r24, X+
    3648:	9c 91       	ld	r25, X
    364a:	19 97       	sbiw	r26, 0x09	; 9
    364c:	9f 83       	std	Y+7, r25	; 0x07
    364e:	8e 83       	std	Y+6, r24	; 0x06
    3650:	18 96       	adiw	r26, 0x08	; 8
    3652:	cd 91       	ld	r28, X+
    3654:	dc 91       	ld	r29, X
    3656:	19 97       	sbiw	r26, 0x09	; 9
    3658:	16 96       	adiw	r26, 0x06	; 6
    365a:	8d 91       	ld	r24, X+
    365c:	9c 91       	ld	r25, X
    365e:	17 97       	sbiw	r26, 0x07	; 7
    3660:	9d 83       	std	Y+5, r25	; 0x05
    3662:	8c 83       	std	Y+4, r24	; 0x04
    3664:	9d 01       	movw	r18, r26
    3666:	2e 5f       	subi	r18, 0xFE	; 254
    3668:	3f 4f       	sbci	r19, 0xFF	; 255
    366a:	81 81       	ldd	r24, Z+1	; 0x01
    366c:	92 81       	ldd	r25, Z+2	; 0x02
    366e:	82 17       	cp	r24, r18
    3670:	93 07       	cpc	r25, r19
    3672:	31 f4       	brne	.+12     	; 0x3680 <xTaskGenericNotify+0x13c>
    3674:	18 96       	adiw	r26, 0x08	; 8
    3676:	8d 91       	ld	r24, X+
    3678:	9c 91       	ld	r25, X
    367a:	19 97       	sbiw	r26, 0x09	; 9
    367c:	92 83       	std	Z+2, r25	; 0x02
    367e:	81 83       	std	Z+1, r24	; 0x01
    3680:	1d 96       	adiw	r26, 0x0d	; 13
    3682:	1c 92       	st	X, r1
    3684:	1e 92       	st	-X, r1
    3686:	1c 97       	sbiw	r26, 0x0c	; 12
    3688:	80 81       	ld	r24, Z
    368a:	81 50       	subi	r24, 0x01	; 1
    368c:	80 83       	st	Z, r24
    368e:	5a 96       	adiw	r26, 0x1a	; 26
    3690:	ec 91       	ld	r30, X
    3692:	5a 97       	sbiw	r26, 0x1a	; 26
    3694:	80 91 9d 12 	lds	r24, 0x129D	; 0x80129d <uxTopReadyPriority>
    3698:	8e 17       	cp	r24, r30
    369a:	10 f4       	brcc	.+4      	; 0x36a0 <xTaskGenericNotify+0x15c>
    369c:	e0 93 9d 12 	sts	0x129D, r30	; 0x80129d <uxTopReadyPriority>
    36a0:	8b e0       	ldi	r24, 0x0B	; 11
    36a2:	8e 9f       	mul	r24, r30
    36a4:	f0 01       	movw	r30, r0
    36a6:	11 24       	eor	r1, r1
    36a8:	e1 52       	subi	r30, 0x21	; 33
    36aa:	fd 4e       	sbci	r31, 0xED	; 237
    36ac:	01 80       	ldd	r0, Z+1	; 0x01
    36ae:	f2 81       	ldd	r31, Z+2	; 0x02
    36b0:	e0 2d       	mov	r30, r0
    36b2:	17 96       	adiw	r26, 0x07	; 7
    36b4:	fc 93       	st	X, r31
    36b6:	ee 93       	st	-X, r30
    36b8:	16 97       	sbiw	r26, 0x06	; 6
    36ba:	46 81       	ldd	r20, Z+6	; 0x06
    36bc:	57 81       	ldd	r21, Z+7	; 0x07
    36be:	19 96       	adiw	r26, 0x09	; 9
    36c0:	5c 93       	st	X, r21
    36c2:	4e 93       	st	-X, r20
    36c4:	18 97       	sbiw	r26, 0x08	; 8
    36c6:	c6 81       	ldd	r28, Z+6	; 0x06
    36c8:	d7 81       	ldd	r29, Z+7	; 0x07
    36ca:	3d 83       	std	Y+5, r19	; 0x05
    36cc:	2c 83       	std	Y+4, r18	; 0x04
    36ce:	37 83       	std	Z+7, r19	; 0x07
    36d0:	26 83       	std	Z+6, r18	; 0x06
    36d2:	5a 96       	adiw	r26, 0x1a	; 26
    36d4:	ec 91       	ld	r30, X
    36d6:	5a 97       	sbiw	r26, 0x1a	; 26
    36d8:	8e 9f       	mul	r24, r30
    36da:	f0 01       	movw	r30, r0
    36dc:	11 24       	eor	r1, r1
    36de:	e1 52       	subi	r30, 0x21	; 33
    36e0:	fd 4e       	sbci	r31, 0xED	; 237
    36e2:	1d 96       	adiw	r26, 0x0d	; 13
    36e4:	fc 93       	st	X, r31
    36e6:	ee 93       	st	-X, r30
    36e8:	1c 97       	sbiw	r26, 0x0c	; 12
    36ea:	80 81       	ld	r24, Z
    36ec:	8f 5f       	subi	r24, 0xFF	; 255
    36ee:	80 83       	st	Z, r24
    36f0:	e0 91 4d 13 	lds	r30, 0x134D	; 0x80134d <pxCurrentTCB>
    36f4:	f0 91 4e 13 	lds	r31, 0x134E	; 0x80134e <pxCurrentTCB+0x1>
    36f8:	5a 96       	adiw	r26, 0x1a	; 26
    36fa:	9c 91       	ld	r25, X
    36fc:	82 8d       	ldd	r24, Z+26	; 0x1a
    36fe:	89 17       	cp	r24, r25
    3700:	40 f4       	brcc	.+16     	; 0x3712 <xTaskGenericNotify+0x1ce>
    3702:	0e 94 9a 0a 	call	0x1534	; 0x1534 <vPortYield>
    3706:	81 e0       	ldi	r24, 0x01	; 1
    3708:	05 c0       	rjmp	.+10     	; 0x3714 <xTaskGenericNotify+0x1d0>
    370a:	80 e0       	ldi	r24, 0x00	; 0
    370c:	03 c0       	rjmp	.+6      	; 0x3714 <xTaskGenericNotify+0x1d0>
    370e:	81 e0       	ldi	r24, 0x01	; 1
    3710:	01 c0       	rjmp	.+2      	; 0x3714 <xTaskGenericNotify+0x1d0>
    3712:	81 e0       	ldi	r24, 0x01	; 1
    3714:	0f 90       	pop	r0
    3716:	0f be       	out	0x3f, r0	; 63
    3718:	df 91       	pop	r29
    371a:	cf 91       	pop	r28
    371c:	0f 91       	pop	r16
    371e:	ff 90       	pop	r15
    3720:	ef 90       	pop	r14
    3722:	bf 90       	pop	r11
    3724:	af 90       	pop	r10
    3726:	9f 90       	pop	r9
    3728:	8f 90       	pop	r8
    372a:	08 95       	ret

0000372c <xTaskGenericNotifyFromISR>:
    372c:	8f 92       	push	r8
    372e:	9f 92       	push	r9
    3730:	af 92       	push	r10
    3732:	bf 92       	push	r11
    3734:	cf 92       	push	r12
    3736:	df 92       	push	r13
    3738:	ef 92       	push	r14
    373a:	ff 92       	push	r15
    373c:	0f 93       	push	r16
    373e:	cf 93       	push	r28
    3740:	df 93       	push	r29
    3742:	dc 01       	movw	r26, r24
    3744:	e1 14       	cp	r14, r1
    3746:	f1 04       	cpc	r15, r1
    3748:	79 f0       	breq	.+30     	; 0x3768 <xTaskGenericNotifyFromISR+0x3c>
    374a:	fc 01       	movw	r30, r24
    374c:	84 e0       	ldi	r24, 0x04	; 4
    374e:	68 9f       	mul	r22, r24
    3750:	e0 0d       	add	r30, r0
    3752:	f1 1d       	adc	r31, r1
    3754:	11 24       	eor	r1, r1
    3756:	87 a4       	ldd	r8, Z+47	; 0x2f
    3758:	90 a8       	ldd	r9, Z+48	; 0x30
    375a:	a1 a8       	ldd	r10, Z+49	; 0x31
    375c:	b2 a8       	ldd	r11, Z+50	; 0x32
    375e:	f7 01       	movw	r30, r14
    3760:	80 82       	st	Z, r8
    3762:	91 82       	std	Z+1, r9	; 0x01
    3764:	a2 82       	std	Z+2, r10	; 0x02
    3766:	b3 82       	std	Z+3, r11	; 0x03
    3768:	70 e0       	ldi	r23, 0x00	; 0
    376a:	fd 01       	movw	r30, r26
    376c:	e6 0f       	add	r30, r22
    376e:	f7 1f       	adc	r31, r23
    3770:	83 a9       	ldd	r24, Z+51	; 0x33
    3772:	92 e0       	ldi	r25, 0x02	; 2
    3774:	93 ab       	std	Z+51, r25	; 0x33
    3776:	02 30       	cpi	r16, 0x02	; 2
    3778:	f9 f0       	breq	.+62     	; 0x37b8 <xTaskGenericNotifyFromISR+0x8c>
    377a:	18 f4       	brcc	.+6      	; 0x3782 <xTaskGenericNotifyFromISR+0x56>
    377c:	01 30       	cpi	r16, 0x01	; 1
    377e:	31 f0       	breq	.+12     	; 0x378c <xTaskGenericNotifyFromISR+0x60>
    3780:	49 c0       	rjmp	.+146    	; 0x3814 <xTaskGenericNotifyFromISR+0xe8>
    3782:	03 30       	cpi	r16, 0x03	; 3
    3784:	69 f1       	breq	.+90     	; 0x37e0 <xTaskGenericNotifyFromISR+0xb4>
    3786:	04 30       	cpi	r16, 0x04	; 4
    3788:	b9 f1       	breq	.+110    	; 0x37f8 <xTaskGenericNotifyFromISR+0xcc>
    378a:	44 c0       	rjmp	.+136    	; 0x3814 <xTaskGenericNotifyFromISR+0xe8>
    378c:	66 0f       	add	r22, r22
    378e:	77 1f       	adc	r23, r23
    3790:	66 0f       	add	r22, r22
    3792:	77 1f       	adc	r23, r23
    3794:	fd 01       	movw	r30, r26
    3796:	e6 0f       	add	r30, r22
    3798:	f7 1f       	adc	r31, r23
    379a:	87 a4       	ldd	r8, Z+47	; 0x2f
    379c:	90 a8       	ldd	r9, Z+48	; 0x30
    379e:	a1 a8       	ldd	r10, Z+49	; 0x31
    37a0:	b2 a8       	ldd	r11, Z+50	; 0x32
    37a2:	ba 01       	movw	r22, r20
    37a4:	a9 01       	movw	r20, r18
    37a6:	48 29       	or	r20, r8
    37a8:	59 29       	or	r21, r9
    37aa:	6a 29       	or	r22, r10
    37ac:	7b 29       	or	r23, r11
    37ae:	47 a7       	std	Z+47, r20	; 0x2f
    37b0:	50 ab       	std	Z+48, r21	; 0x30
    37b2:	61 ab       	std	Z+49, r22	; 0x31
    37b4:	72 ab       	std	Z+50, r23	; 0x32
    37b6:	2e c0       	rjmp	.+92     	; 0x3814 <xTaskGenericNotifyFromISR+0xe8>
    37b8:	66 0f       	add	r22, r22
    37ba:	77 1f       	adc	r23, r23
    37bc:	66 0f       	add	r22, r22
    37be:	77 1f       	adc	r23, r23
    37c0:	fd 01       	movw	r30, r26
    37c2:	e6 0f       	add	r30, r22
    37c4:	f7 1f       	adc	r31, r23
    37c6:	47 a5       	ldd	r20, Z+47	; 0x2f
    37c8:	50 a9       	ldd	r21, Z+48	; 0x30
    37ca:	61 a9       	ldd	r22, Z+49	; 0x31
    37cc:	72 a9       	ldd	r23, Z+50	; 0x32
    37ce:	4f 5f       	subi	r20, 0xFF	; 255
    37d0:	5f 4f       	sbci	r21, 0xFF	; 255
    37d2:	6f 4f       	sbci	r22, 0xFF	; 255
    37d4:	7f 4f       	sbci	r23, 0xFF	; 255
    37d6:	47 a7       	std	Z+47, r20	; 0x2f
    37d8:	50 ab       	std	Z+48, r21	; 0x30
    37da:	61 ab       	std	Z+49, r22	; 0x31
    37dc:	72 ab       	std	Z+50, r23	; 0x32
    37de:	1a c0       	rjmp	.+52     	; 0x3814 <xTaskGenericNotifyFromISR+0xe8>
    37e0:	66 0f       	add	r22, r22
    37e2:	77 1f       	adc	r23, r23
    37e4:	66 0f       	add	r22, r22
    37e6:	77 1f       	adc	r23, r23
    37e8:	fd 01       	movw	r30, r26
    37ea:	e6 0f       	add	r30, r22
    37ec:	f7 1f       	adc	r31, r23
    37ee:	27 a7       	std	Z+47, r18	; 0x2f
    37f0:	30 ab       	std	Z+48, r19	; 0x30
    37f2:	41 ab       	std	Z+49, r20	; 0x31
    37f4:	52 ab       	std	Z+50, r21	; 0x32
    37f6:	0e c0       	rjmp	.+28     	; 0x3814 <xTaskGenericNotifyFromISR+0xe8>
    37f8:	82 30       	cpi	r24, 0x02	; 2
    37fa:	09 f4       	brne	.+2      	; 0x37fe <xTaskGenericNotifyFromISR+0xd2>
    37fc:	a4 c0       	rjmp	.+328    	; 0x3946 <xTaskGenericNotifyFromISR+0x21a>
    37fe:	66 0f       	add	r22, r22
    3800:	77 1f       	adc	r23, r23
    3802:	66 0f       	add	r22, r22
    3804:	77 1f       	adc	r23, r23
    3806:	fd 01       	movw	r30, r26
    3808:	e6 0f       	add	r30, r22
    380a:	f7 1f       	adc	r31, r23
    380c:	27 a7       	std	Z+47, r18	; 0x2f
    380e:	30 ab       	std	Z+48, r19	; 0x30
    3810:	41 ab       	std	Z+49, r20	; 0x31
    3812:	52 ab       	std	Z+50, r21	; 0x32
    3814:	81 30       	cpi	r24, 0x01	; 1
    3816:	09 f0       	breq	.+2      	; 0x381a <xTaskGenericNotifyFromISR+0xee>
    3818:	98 c0       	rjmp	.+304    	; 0x394a <xTaskGenericNotifyFromISR+0x21e>
    381a:	80 91 8e 12 	lds	r24, 0x128E	; 0x80128e <uxSchedulerSuspended>
    381e:	81 11       	cpse	r24, r1
    3820:	5f c0       	rjmp	.+190    	; 0x38e0 <xTaskGenericNotifyFromISR+0x1b4>
    3822:	1c 96       	adiw	r26, 0x0c	; 12
    3824:	ed 91       	ld	r30, X+
    3826:	fc 91       	ld	r31, X
    3828:	1d 97       	sbiw	r26, 0x0d	; 13
    382a:	16 96       	adiw	r26, 0x06	; 6
    382c:	cd 91       	ld	r28, X+
    382e:	dc 91       	ld	r29, X
    3830:	17 97       	sbiw	r26, 0x07	; 7
    3832:	18 96       	adiw	r26, 0x08	; 8
    3834:	8d 91       	ld	r24, X+
    3836:	9c 91       	ld	r25, X
    3838:	19 97       	sbiw	r26, 0x09	; 9
    383a:	9f 83       	std	Y+7, r25	; 0x07
    383c:	8e 83       	std	Y+6, r24	; 0x06
    383e:	18 96       	adiw	r26, 0x08	; 8
    3840:	cd 91       	ld	r28, X+
    3842:	dc 91       	ld	r29, X
    3844:	19 97       	sbiw	r26, 0x09	; 9
    3846:	16 96       	adiw	r26, 0x06	; 6
    3848:	8d 91       	ld	r24, X+
    384a:	9c 91       	ld	r25, X
    384c:	17 97       	sbiw	r26, 0x07	; 7
    384e:	9d 83       	std	Y+5, r25	; 0x05
    3850:	8c 83       	std	Y+4, r24	; 0x04
    3852:	9d 01       	movw	r18, r26
    3854:	2e 5f       	subi	r18, 0xFE	; 254
    3856:	3f 4f       	sbci	r19, 0xFF	; 255
    3858:	81 81       	ldd	r24, Z+1	; 0x01
    385a:	92 81       	ldd	r25, Z+2	; 0x02
    385c:	82 17       	cp	r24, r18
    385e:	93 07       	cpc	r25, r19
    3860:	31 f4       	brne	.+12     	; 0x386e <xTaskGenericNotifyFromISR+0x142>
    3862:	18 96       	adiw	r26, 0x08	; 8
    3864:	8d 91       	ld	r24, X+
    3866:	9c 91       	ld	r25, X
    3868:	19 97       	sbiw	r26, 0x09	; 9
    386a:	92 83       	std	Z+2, r25	; 0x02
    386c:	81 83       	std	Z+1, r24	; 0x01
    386e:	1d 96       	adiw	r26, 0x0d	; 13
    3870:	1c 92       	st	X, r1
    3872:	1e 92       	st	-X, r1
    3874:	1c 97       	sbiw	r26, 0x0c	; 12
    3876:	80 81       	ld	r24, Z
    3878:	81 50       	subi	r24, 0x01	; 1
    387a:	80 83       	st	Z, r24
    387c:	5a 96       	adiw	r26, 0x1a	; 26
    387e:	ec 91       	ld	r30, X
    3880:	5a 97       	sbiw	r26, 0x1a	; 26
    3882:	80 91 9d 12 	lds	r24, 0x129D	; 0x80129d <uxTopReadyPriority>
    3886:	8e 17       	cp	r24, r30
    3888:	10 f4       	brcc	.+4      	; 0x388e <xTaskGenericNotifyFromISR+0x162>
    388a:	e0 93 9d 12 	sts	0x129D, r30	; 0x80129d <uxTopReadyPriority>
    388e:	8b e0       	ldi	r24, 0x0B	; 11
    3890:	8e 9f       	mul	r24, r30
    3892:	f0 01       	movw	r30, r0
    3894:	11 24       	eor	r1, r1
    3896:	e1 52       	subi	r30, 0x21	; 33
    3898:	fd 4e       	sbci	r31, 0xED	; 237
    389a:	01 80       	ldd	r0, Z+1	; 0x01
    389c:	f2 81       	ldd	r31, Z+2	; 0x02
    389e:	e0 2d       	mov	r30, r0
    38a0:	17 96       	adiw	r26, 0x07	; 7
    38a2:	fc 93       	st	X, r31
    38a4:	ee 93       	st	-X, r30
    38a6:	16 97       	sbiw	r26, 0x06	; 6
    38a8:	46 81       	ldd	r20, Z+6	; 0x06
    38aa:	57 81       	ldd	r21, Z+7	; 0x07
    38ac:	19 96       	adiw	r26, 0x09	; 9
    38ae:	5c 93       	st	X, r21
    38b0:	4e 93       	st	-X, r20
    38b2:	18 97       	sbiw	r26, 0x08	; 8
    38b4:	c6 81       	ldd	r28, Z+6	; 0x06
    38b6:	d7 81       	ldd	r29, Z+7	; 0x07
    38b8:	3d 83       	std	Y+5, r19	; 0x05
    38ba:	2c 83       	std	Y+4, r18	; 0x04
    38bc:	37 83       	std	Z+7, r19	; 0x07
    38be:	26 83       	std	Z+6, r18	; 0x06
    38c0:	5a 96       	adiw	r26, 0x1a	; 26
    38c2:	ec 91       	ld	r30, X
    38c4:	5a 97       	sbiw	r26, 0x1a	; 26
    38c6:	8e 9f       	mul	r24, r30
    38c8:	f0 01       	movw	r30, r0
    38ca:	11 24       	eor	r1, r1
    38cc:	e1 52       	subi	r30, 0x21	; 33
    38ce:	fd 4e       	sbci	r31, 0xED	; 237
    38d0:	1d 96       	adiw	r26, 0x0d	; 13
    38d2:	fc 93       	st	X, r31
    38d4:	ee 93       	st	-X, r30
    38d6:	1c 97       	sbiw	r26, 0x0c	; 12
    38d8:	80 81       	ld	r24, Z
    38da:	8f 5f       	subi	r24, 0xFF	; 255
    38dc:	80 83       	st	Z, r24
    38de:	20 c0       	rjmp	.+64     	; 0x3920 <xTaskGenericNotifyFromISR+0x1f4>
    38e0:	4a eb       	ldi	r20, 0xBA	; 186
    38e2:	52 e1       	ldi	r21, 0x12	; 18
    38e4:	fa 01       	movw	r30, r20
    38e6:	c1 81       	ldd	r28, Z+1	; 0x01
    38e8:	d2 81       	ldd	r29, Z+2	; 0x02
    38ea:	53 96       	adiw	r26, 0x13	; 19
    38ec:	dc 93       	st	X, r29
    38ee:	ce 93       	st	-X, r28
    38f0:	52 97       	sbiw	r26, 0x12	; 18
    38f2:	8e 81       	ldd	r24, Y+6	; 0x06
    38f4:	9f 81       	ldd	r25, Y+7	; 0x07
    38f6:	55 96       	adiw	r26, 0x15	; 21
    38f8:	9c 93       	st	X, r25
    38fa:	8e 93       	st	-X, r24
    38fc:	54 97       	sbiw	r26, 0x14	; 20
    38fe:	2e 81       	ldd	r18, Y+6	; 0x06
    3900:	3f 81       	ldd	r19, Y+7	; 0x07
    3902:	cd 01       	movw	r24, r26
    3904:	0e 96       	adiw	r24, 0x0e	; 14
    3906:	f9 01       	movw	r30, r18
    3908:	95 83       	std	Z+5, r25	; 0x05
    390a:	84 83       	std	Z+4, r24	; 0x04
    390c:	9f 83       	std	Y+7, r25	; 0x07
    390e:	8e 83       	std	Y+6, r24	; 0x06
    3910:	59 96       	adiw	r26, 0x19	; 25
    3912:	5c 93       	st	X, r21
    3914:	4e 93       	st	-X, r20
    3916:	58 97       	sbiw	r26, 0x18	; 24
    3918:	fa 01       	movw	r30, r20
    391a:	80 81       	ld	r24, Z
    391c:	8f 5f       	subi	r24, 0xFF	; 255
    391e:	80 83       	st	Z, r24
    3920:	e0 91 4d 13 	lds	r30, 0x134D	; 0x80134d <pxCurrentTCB>
    3924:	f0 91 4e 13 	lds	r31, 0x134E	; 0x80134e <pxCurrentTCB+0x1>
    3928:	5a 96       	adiw	r26, 0x1a	; 26
    392a:	9c 91       	ld	r25, X
    392c:	82 8d       	ldd	r24, Z+26	; 0x1a
    392e:	89 17       	cp	r24, r25
    3930:	70 f4       	brcc	.+28     	; 0x394e <xTaskGenericNotifyFromISR+0x222>
    3932:	c1 14       	cp	r12, r1
    3934:	d1 04       	cpc	r13, r1
    3936:	19 f0       	breq	.+6      	; 0x393e <xTaskGenericNotifyFromISR+0x212>
    3938:	81 e0       	ldi	r24, 0x01	; 1
    393a:	f6 01       	movw	r30, r12
    393c:	80 83       	st	Z, r24
    393e:	81 e0       	ldi	r24, 0x01	; 1
    3940:	80 93 97 12 	sts	0x1297, r24	; 0x801297 <xYieldPending>
    3944:	05 c0       	rjmp	.+10     	; 0x3950 <xTaskGenericNotifyFromISR+0x224>
    3946:	80 e0       	ldi	r24, 0x00	; 0
    3948:	03 c0       	rjmp	.+6      	; 0x3950 <xTaskGenericNotifyFromISR+0x224>
    394a:	81 e0       	ldi	r24, 0x01	; 1
    394c:	01 c0       	rjmp	.+2      	; 0x3950 <xTaskGenericNotifyFromISR+0x224>
    394e:	81 e0       	ldi	r24, 0x01	; 1
    3950:	df 91       	pop	r29
    3952:	cf 91       	pop	r28
    3954:	0f 91       	pop	r16
    3956:	ff 90       	pop	r15
    3958:	ef 90       	pop	r14
    395a:	df 90       	pop	r13
    395c:	cf 90       	pop	r12
    395e:	bf 90       	pop	r11
    3960:	af 90       	pop	r10
    3962:	9f 90       	pop	r9
    3964:	8f 90       	pop	r8
    3966:	08 95       	ret

00003968 <xTaskGenericNotifyStateClear>:

        configASSERT( uxIndexToClear < configTASK_NOTIFICATION_ARRAY_ENTRIES );

        /* If null is passed in here then it is the calling task that is having
         * its notification state cleared. */
        pxTCB = prvGetTCBFromHandle( xTask );
    3968:	00 97       	sbiw	r24, 0x00	; 0
    396a:	21 f4       	brne	.+8      	; 0x3974 <xTaskGenericNotifyStateClear+0xc>
    396c:	80 91 4d 13 	lds	r24, 0x134D	; 0x80134d <pxCurrentTCB>
    3970:	90 91 4e 13 	lds	r25, 0x134E	; 0x80134e <pxCurrentTCB+0x1>

        taskENTER_CRITICAL();
    3974:	0f b6       	in	r0, 0x3f	; 63
    3976:	f8 94       	cli
    3978:	0f 92       	push	r0
        {
            if( pxTCB->ucNotifyState[ uxIndexToClear ] == taskNOTIFICATION_RECEIVED )
    397a:	70 e0       	ldi	r23, 0x00	; 0
    397c:	fc 01       	movw	r30, r24
    397e:	e6 0f       	add	r30, r22
    3980:	f7 1f       	adc	r31, r23
    3982:	23 a9       	ldd	r18, Z+51	; 0x33
    3984:	22 30       	cpi	r18, 0x02	; 2
    3986:	31 f4       	brne	.+12     	; 0x3994 <xTaskGenericNotifyStateClear+0x2c>
            {
                pxTCB->ucNotifyState[ uxIndexToClear ] = taskNOT_WAITING_NOTIFICATION;
    3988:	fc 01       	movw	r30, r24
    398a:	e6 0f       	add	r30, r22
    398c:	f7 1f       	adc	r31, r23
    398e:	13 aa       	std	Z+51, r1	; 0x33
                xReturn = pdPASS;
    3990:	81 e0       	ldi	r24, 0x01	; 1
    3992:	01 c0       	rjmp	.+2      	; 0x3996 <xTaskGenericNotifyStateClear+0x2e>
            }
            else
            {
                xReturn = pdFAIL;
    3994:	80 e0       	ldi	r24, 0x00	; 0
            }
        }
        taskEXIT_CRITICAL();
    3996:	0f 90       	pop	r0
    3998:	0f be       	out	0x3f, r0	; 63

        return xReturn;
    }
    399a:	08 95       	ret

0000399c <prvInsertTimerInActiveList>:
    399c:	cf 92       	push	r12
    399e:	df 92       	push	r13
    39a0:	ef 92       	push	r14
    39a2:	ff 92       	push	r15
    39a4:	0f 93       	push	r16
    39a6:	1f 93       	push	r17
    39a8:	fc 01       	movw	r30, r24
    39aa:	42 83       	std	Z+2, r20	; 0x02
    39ac:	53 83       	std	Z+3, r21	; 0x03
    39ae:	64 83       	std	Z+4, r22	; 0x04
    39b0:	75 83       	std	Z+5, r23	; 0x05
    39b2:	93 87       	std	Z+11, r25	; 0x0b
    39b4:	82 87       	std	Z+10, r24	; 0x0a
    39b6:	04 17       	cp	r16, r20
    39b8:	15 07       	cpc	r17, r21
    39ba:	26 07       	cpc	r18, r22
    39bc:	37 07       	cpc	r19, r23
    39be:	c0 f0       	brcs	.+48     	; 0x39f0 <prvInsertTimerInActiveList+0x54>
    39c0:	0c 19       	sub	r16, r12
    39c2:	1d 09       	sbc	r17, r13
    39c4:	2e 09       	sbc	r18, r14
    39c6:	3f 09       	sbc	r19, r15
    39c8:	86 85       	ldd	r24, Z+14	; 0x0e
    39ca:	97 85       	ldd	r25, Z+15	; 0x0f
    39cc:	a0 89       	ldd	r26, Z+16	; 0x10
    39ce:	b1 89       	ldd	r27, Z+17	; 0x11
    39d0:	08 17       	cp	r16, r24
    39d2:	19 07       	cpc	r17, r25
    39d4:	2a 07       	cpc	r18, r26
    39d6:	3b 07       	cpc	r19, r27
    39d8:	00 f5       	brcc	.+64     	; 0x3a1a <prvInsertTimerInActiveList+0x7e>
    39da:	bf 01       	movw	r22, r30
    39dc:	6e 5f       	subi	r22, 0xFE	; 254
    39de:	7f 4f       	sbci	r23, 0xFF	; 255
    39e0:	80 91 57 13 	lds	r24, 0x1357	; 0x801357 <pxOverflowTimerList>
    39e4:	90 91 58 13 	lds	r25, 0x1358	; 0x801358 <pxOverflowTimerList+0x1>
    39e8:	0e 94 e3 09 	call	0x13c6	; 0x13c6 <vListInsert>
    39ec:	80 e0       	ldi	r24, 0x00	; 0
    39ee:	18 c0       	rjmp	.+48     	; 0x3a20 <prvInsertTimerInActiveList+0x84>
    39f0:	0c 15       	cp	r16, r12
    39f2:	1d 05       	cpc	r17, r13
    39f4:	2e 05       	cpc	r18, r14
    39f6:	3f 05       	cpc	r19, r15
    39f8:	28 f4       	brcc	.+10     	; 0x3a04 <prvInsertTimerInActiveList+0x68>
    39fa:	4c 15       	cp	r20, r12
    39fc:	5d 05       	cpc	r21, r13
    39fe:	6e 05       	cpc	r22, r14
    3a00:	7f 05       	cpc	r23, r15
    3a02:	68 f4       	brcc	.+26     	; 0x3a1e <prvInsertTimerInActiveList+0x82>
    3a04:	bf 01       	movw	r22, r30
    3a06:	6e 5f       	subi	r22, 0xFE	; 254
    3a08:	7f 4f       	sbci	r23, 0xFF	; 255
    3a0a:	80 91 59 13 	lds	r24, 0x1359	; 0x801359 <pxCurrentTimerList>
    3a0e:	90 91 5a 13 	lds	r25, 0x135A	; 0x80135a <pxCurrentTimerList+0x1>
    3a12:	0e 94 e3 09 	call	0x13c6	; 0x13c6 <vListInsert>
    3a16:	80 e0       	ldi	r24, 0x00	; 0
    3a18:	03 c0       	rjmp	.+6      	; 0x3a20 <prvInsertTimerInActiveList+0x84>
    3a1a:	81 e0       	ldi	r24, 0x01	; 1
    3a1c:	01 c0       	rjmp	.+2      	; 0x3a20 <prvInsertTimerInActiveList+0x84>
    3a1e:	81 e0       	ldi	r24, 0x01	; 1
    3a20:	1f 91       	pop	r17
    3a22:	0f 91       	pop	r16
    3a24:	ff 90       	pop	r15
    3a26:	ef 90       	pop	r14
    3a28:	df 90       	pop	r13
    3a2a:	cf 90       	pop	r12
    3a2c:	08 95       	ret

00003a2e <prvCheckForValidListAndQueue>:
    3a2e:	0f b6       	in	r0, 0x3f	; 63
    3a30:	f8 94       	cli
    3a32:	0f 92       	push	r0
    3a34:	80 91 55 13 	lds	r24, 0x1355	; 0x801355 <xTimerQueue>
    3a38:	90 91 56 13 	lds	r25, 0x1356	; 0x801356 <xTimerQueue+0x1>
    3a3c:	89 2b       	or	r24, r25
    3a3e:	e9 f4       	brne	.+58     	; 0x3a7a <prvCheckForValidListAndQueue+0x4c>
    3a40:	86 e6       	ldi	r24, 0x66	; 102
    3a42:	93 e1       	ldi	r25, 0x13	; 19
    3a44:	0e 94 ce 09 	call	0x139c	; 0x139c <vListInitialise>
    3a48:	8b e5       	ldi	r24, 0x5B	; 91
    3a4a:	93 e1       	ldi	r25, 0x13	; 19
    3a4c:	0e 94 ce 09 	call	0x139c	; 0x139c <vListInitialise>
    3a50:	86 e6       	ldi	r24, 0x66	; 102
    3a52:	93 e1       	ldi	r25, 0x13	; 19
    3a54:	90 93 5a 13 	sts	0x135A, r25	; 0x80135a <pxCurrentTimerList+0x1>
    3a58:	80 93 59 13 	sts	0x1359, r24	; 0x801359 <pxCurrentTimerList>
    3a5c:	8b e5       	ldi	r24, 0x5B	; 91
    3a5e:	93 e1       	ldi	r25, 0x13	; 19
    3a60:	90 93 58 13 	sts	0x1358, r25	; 0x801358 <pxOverflowTimerList+0x1>
    3a64:	80 93 57 13 	sts	0x1357, r24	; 0x801357 <pxOverflowTimerList>
    3a68:	40 e0       	ldi	r20, 0x00	; 0
    3a6a:	67 e0       	ldi	r22, 0x07	; 7
    3a6c:	8a e0       	ldi	r24, 0x0A	; 10
    3a6e:	0e 94 76 0c 	call	0x18ec	; 0x18ec <xQueueGenericCreate>
    3a72:	90 93 56 13 	sts	0x1356, r25	; 0x801356 <xTimerQueue+0x1>
    3a76:	80 93 55 13 	sts	0x1355, r24	; 0x801355 <xTimerQueue>
    3a7a:	0f 90       	pop	r0
    3a7c:	0f be       	out	0x3f, r0	; 63
    3a7e:	08 95       	ret

00003a80 <xTimerCreateTimerTask>:
    3a80:	ef 92       	push	r14
    3a82:	ff 92       	push	r15
    3a84:	0f 93       	push	r16
    3a86:	d3 df       	rcall	.-90     	; 0x3a2e <prvCheckForValidListAndQueue>
    3a88:	80 91 55 13 	lds	r24, 0x1355	; 0x801355 <xTimerQueue>
    3a8c:	90 91 56 13 	lds	r25, 0x1356	; 0x801356 <xTimerQueue+0x1>
    3a90:	89 2b       	or	r24, r25
    3a92:	91 f0       	breq	.+36     	; 0x3ab8 <xTimerCreateTimerTask+0x38>
    3a94:	0f 2e       	mov	r0, r31
    3a96:	f3 e5       	ldi	r31, 0x53	; 83
    3a98:	ef 2e       	mov	r14, r31
    3a9a:	f3 e1       	ldi	r31, 0x13	; 19
    3a9c:	ff 2e       	mov	r15, r31
    3a9e:	f0 2d       	mov	r31, r0
    3aa0:	03 e0       	ldi	r16, 0x03	; 3
    3aa2:	20 e0       	ldi	r18, 0x00	; 0
    3aa4:	30 e0       	ldi	r19, 0x00	; 0
    3aa6:	40 ec       	ldi	r20, 0xC0	; 192
    3aa8:	50 e0       	ldi	r21, 0x00	; 0
    3aaa:	60 ed       	ldi	r22, 0xD0	; 208
    3aac:	73 e0       	ldi	r23, 0x03	; 3
    3aae:	88 e4       	ldi	r24, 0x48	; 72
    3ab0:	91 e0       	ldi	r25, 0x01	; 1
    3ab2:	0e 94 d9 12 	call	0x25b2	; 0x25b2 <xTaskCreate>
    3ab6:	01 c0       	rjmp	.+2      	; 0x3aba <xTimerCreateTimerTask+0x3a>
    3ab8:	80 e0       	ldi	r24, 0x00	; 0
    3aba:	0f 91       	pop	r16
    3abc:	ff 90       	pop	r15
    3abe:	ef 90       	pop	r14
    3ac0:	08 95       	ret

00003ac2 <xTimerGenericCommand>:
    BaseType_t xTimerGenericCommand( TimerHandle_t xTimer,
                                     const BaseType_t xCommandID,
                                     const TickType_t xOptionalValue,
                                     BaseType_t * const pxHigherPriorityTaskWoken,
                                     const TickType_t xTicksToWait )
    {
    3ac2:	8f 92       	push	r8
    3ac4:	9f 92       	push	r9
    3ac6:	af 92       	push	r10
    3ac8:	bf 92       	push	r11
    3aca:	cf 92       	push	r12
    3acc:	df 92       	push	r13
    3ace:	ef 92       	push	r14
    3ad0:	ff 92       	push	r15
    3ad2:	0f 93       	push	r16
    3ad4:	1f 93       	push	r17
    3ad6:	cf 93       	push	r28
    3ad8:	df 93       	push	r29
    3ada:	cd b7       	in	r28, 0x3d	; 61
    3adc:	de b7       	in	r29, 0x3e	; 62
    3ade:	27 97       	sbiw	r28, 0x07	; 7
    3ae0:	0f b6       	in	r0, 0x3f	; 63
    3ae2:	f8 94       	cli
    3ae4:	de bf       	out	0x3e, r29	; 62
    3ae6:	0f be       	out	0x3f, r0	; 63
    3ae8:	cd bf       	out	0x3d, r28	; 61

        configASSERT( xTimer );

        /* Send a message to the timer service task to perform a particular action
         * on a particular timer definition. */
        if( xTimerQueue != NULL )
    3aea:	e0 91 55 13 	lds	r30, 0x1355	; 0x801355 <xTimerQueue>
    3aee:	f0 91 56 13 	lds	r31, 0x1356	; 0x801356 <xTimerQueue+0x1>
    3af2:	30 97       	sbiw	r30, 0x00	; 0
    3af4:	81 f1       	breq	.+96     	; 0x3b56 <xTimerGenericCommand+0x94>
        {
            /* Send a command to the timer service task to start the xTimer timer. */
            xMessage.xMessageID = xCommandID;
    3af6:	69 83       	std	Y+1, r22	; 0x01
            xMessage.u.xTimerParameters.xMessageValue = xOptionalValue;
    3af8:	2a 83       	std	Y+2, r18	; 0x02
    3afa:	3b 83       	std	Y+3, r19	; 0x03
    3afc:	4c 83       	std	Y+4, r20	; 0x04
    3afe:	5d 83       	std	Y+5, r21	; 0x05
            xMessage.u.xTimerParameters.pxTimer = xTimer;
    3b00:	9f 83       	std	Y+7, r25	; 0x07
    3b02:	8e 83       	std	Y+6, r24	; 0x06

            if( xCommandID < tmrFIRST_FROM_ISR_COMMAND )
    3b04:	66 30       	cpi	r22, 0x06	; 6
    3b06:	f4 f4       	brge	.+60     	; 0x3b44 <xTimerGenericCommand+0x82>
            {
                if( xTaskGetSchedulerState() == taskSCHEDULER_RUNNING )
    3b08:	0c db       	rcall	.-2536   	; 0x3122 <xTaskGetSchedulerState>
    3b0a:	82 30       	cpi	r24, 0x02	; 2
    3b0c:	69 f4       	brne	.+26     	; 0x3b28 <xTimerGenericCommand+0x66>
                {
                    xReturn = xQueueSendToBack( xTimerQueue, &xMessage, xTicksToWait );
    3b0e:	00 e0       	ldi	r16, 0x00	; 0
    3b10:	a7 01       	movw	r20, r14
    3b12:	96 01       	movw	r18, r12
    3b14:	be 01       	movw	r22, r28
    3b16:	6f 5f       	subi	r22, 0xFF	; 255
    3b18:	7f 4f       	sbci	r23, 0xFF	; 255
    3b1a:	80 91 55 13 	lds	r24, 0x1355	; 0x801355 <xTimerQueue>
    3b1e:	90 91 56 13 	lds	r25, 0x1356	; 0x801356 <xTimerQueue+0x1>
    3b22:	0e 94 97 0c 	call	0x192e	; 0x192e <xQueueGenericSend>
    3b26:	18 c0       	rjmp	.+48     	; 0x3b58 <xTimerGenericCommand+0x96>
                }
                else
                {
                    xReturn = xQueueSendToBack( xTimerQueue, &xMessage, tmrNO_DELAY );
    3b28:	00 e0       	ldi	r16, 0x00	; 0
    3b2a:	20 e0       	ldi	r18, 0x00	; 0
    3b2c:	30 e0       	ldi	r19, 0x00	; 0
    3b2e:	a9 01       	movw	r20, r18
    3b30:	be 01       	movw	r22, r28
    3b32:	6f 5f       	subi	r22, 0xFF	; 255
    3b34:	7f 4f       	sbci	r23, 0xFF	; 255
    3b36:	80 91 55 13 	lds	r24, 0x1355	; 0x801355 <xTimerQueue>
    3b3a:	90 91 56 13 	lds	r25, 0x1356	; 0x801356 <xTimerQueue+0x1>
    3b3e:	0e 94 97 0c 	call	0x192e	; 0x192e <xQueueGenericSend>
    3b42:	0a c0       	rjmp	.+20     	; 0x3b58 <xTimerGenericCommand+0x96>
                }
            }
            else
            {
                xReturn = xQueueSendToBackFromISR( xTimerQueue, &xMessage, pxHigherPriorityTaskWoken );
    3b44:	20 e0       	ldi	r18, 0x00	; 0
    3b46:	a8 01       	movw	r20, r16
    3b48:	be 01       	movw	r22, r28
    3b4a:	6f 5f       	subi	r22, 0xFF	; 255
    3b4c:	7f 4f       	sbci	r23, 0xFF	; 255
    3b4e:	cf 01       	movw	r24, r30
    3b50:	0e 94 3a 0d 	call	0x1a74	; 0x1a74 <xQueueGenericSendFromISR>
    3b54:	01 c0       	rjmp	.+2      	; 0x3b58 <xTimerGenericCommand+0x96>
                                     const BaseType_t xCommandID,
                                     const TickType_t xOptionalValue,
                                     BaseType_t * const pxHigherPriorityTaskWoken,
                                     const TickType_t xTicksToWait )
    {
        BaseType_t xReturn = pdFAIL;
    3b56:	80 e0       	ldi	r24, 0x00	; 0
        {
            mtCOVERAGE_TEST_MARKER();
        }

        return xReturn;
    }
    3b58:	27 96       	adiw	r28, 0x07	; 7
    3b5a:	0f b6       	in	r0, 0x3f	; 63
    3b5c:	f8 94       	cli
    3b5e:	de bf       	out	0x3e, r29	; 62
    3b60:	0f be       	out	0x3f, r0	; 63
    3b62:	cd bf       	out	0x3d, r28	; 61
    3b64:	df 91       	pop	r29
    3b66:	cf 91       	pop	r28
    3b68:	1f 91       	pop	r17
    3b6a:	0f 91       	pop	r16
    3b6c:	ff 90       	pop	r15
    3b6e:	ef 90       	pop	r14
    3b70:	df 90       	pop	r13
    3b72:	cf 90       	pop	r12
    3b74:	bf 90       	pop	r11
    3b76:	af 90       	pop	r10
    3b78:	9f 90       	pop	r9
    3b7a:	8f 90       	pop	r8
    3b7c:	08 95       	ret

00003b7e <prvSampleTimeNow>:
        return xNextExpireTime;
    }
/*-----------------------------------------------------------*/

    static TickType_t prvSampleTimeNow( BaseType_t * const pxTimerListsWereSwitched )
    {
    3b7e:	2f 92       	push	r2
    3b80:	3f 92       	push	r3
    3b82:	4f 92       	push	r4
    3b84:	5f 92       	push	r5
    3b86:	6f 92       	push	r6
    3b88:	7f 92       	push	r7
    3b8a:	8f 92       	push	r8
    3b8c:	9f 92       	push	r9
    3b8e:	af 92       	push	r10
    3b90:	bf 92       	push	r11
    3b92:	cf 92       	push	r12
    3b94:	df 92       	push	r13
    3b96:	ef 92       	push	r14
    3b98:	ff 92       	push	r15
    3b9a:	0f 93       	push	r16
    3b9c:	1f 93       	push	r17
    3b9e:	cf 93       	push	r28
    3ba0:	df 93       	push	r29
    3ba2:	1c 01       	movw	r2, r24
        TickType_t xTimeNow;
        PRIVILEGED_DATA static TickType_t xLastTime = ( TickType_t ) 0U; /*lint !e956 Variable is only accessible to one task. */

        xTimeNow = xTaskGetTickCount();
    3ba4:	0e 94 51 14 	call	0x28a2	; 0x28a2 <xTaskGetTickCount>
    3ba8:	2b 01       	movw	r4, r22
    3baa:	3c 01       	movw	r6, r24

        if( xTimeNow < xLastTime )
    3bac:	80 91 4f 13 	lds	r24, 0x134F	; 0x80134f <xLastTime.2436>
    3bb0:	90 91 50 13 	lds	r25, 0x1350	; 0x801350 <xLastTime.2436+0x1>
    3bb4:	a0 91 51 13 	lds	r26, 0x1351	; 0x801351 <xLastTime.2436+0x2>
    3bb8:	b0 91 52 13 	lds	r27, 0x1352	; 0x801352 <xLastTime.2436+0x3>
    3bbc:	48 16       	cp	r4, r24
    3bbe:	59 06       	cpc	r5, r25
    3bc0:	6a 06       	cpc	r6, r26
    3bc2:	7b 06       	cpc	r7, r27
    3bc4:	08 f0       	brcs	.+2      	; 0x3bc8 <prvSampleTimeNow+0x4a>
    3bc6:	53 c0       	rjmp	.+166    	; 0x3c6e <prvSampleTimeNow+0xf0>
    3bc8:	3b c0       	rjmp	.+118    	; 0x3c40 <prvSampleTimeNow+0xc2>
         * If there are any timers still referenced from the current timer list
         * then they must have expired and should be processed before the lists
         * are switched. */
        while( listLIST_IS_EMPTY( pxCurrentTimerList ) == pdFALSE )
        {
            xNextExpireTime = listGET_ITEM_VALUE_OF_HEAD_ENTRY( pxCurrentTimerList );
    3bca:	07 80       	ldd	r0, Z+7	; 0x07
    3bcc:	f0 85       	ldd	r31, Z+8	; 0x08
    3bce:	e0 2d       	mov	r30, r0
    3bd0:	80 80       	ld	r8, Z
    3bd2:	91 80       	ldd	r9, Z+1	; 0x01
    3bd4:	a2 80       	ldd	r10, Z+2	; 0x02
    3bd6:	b3 80       	ldd	r11, Z+3	; 0x03

            /* Remove the timer from the list. */
            pxTimer = ( Timer_t * ) listGET_OWNER_OF_HEAD_ENTRY( pxCurrentTimerList ); /*lint !e9087 !e9079 void * is used as this macro is used with tasks and co-routines too.  Alignment is known to be fine as the type of the pointer stored and retrieved is the same. */
    3bd8:	c0 85       	ldd	r28, Z+8	; 0x08
    3bda:	d1 85       	ldd	r29, Z+9	; 0x09
            ( void ) uxListRemove( &( pxTimer->xTimerListItem ) );
    3bdc:	8e 01       	movw	r16, r28
    3bde:	0e 5f       	subi	r16, 0xFE	; 254
    3be0:	1f 4f       	sbci	r17, 0xFF	; 255
    3be2:	c8 01       	movw	r24, r16
    3be4:	0e 94 20 0a 	call	0x1440	; 0x1440 <uxListRemove>
            traceTIMER_EXPIRED( pxTimer );

            /* Execute its callback, then send a command to restart the timer if
             * it is an auto-reload timer.  It cannot be restarted here as the lists
             * have not yet been switched. */
            pxTimer->pxCallbackFunction( ( TimerHandle_t ) pxTimer );
    3be8:	ec 89       	ldd	r30, Y+20	; 0x14
    3bea:	fd 89       	ldd	r31, Y+21	; 0x15
    3bec:	ce 01       	movw	r24, r28
    3bee:	19 95       	eicall

            if( ( pxTimer->ucStatus & tmrSTATUS_IS_AUTORELOAD ) != 0 )
    3bf0:	8e 89       	ldd	r24, Y+22	; 0x16
    3bf2:	82 ff       	sbrs	r24, 2
    3bf4:	25 c0       	rjmp	.+74     	; 0x3c40 <prvSampleTimeNow+0xc2>
                 * the timer going into the same timer list then it has already expired
                 * and the timer should be re-inserted into the current list so it is
                 * processed again within this loop.  Otherwise a command should be sent
                 * to restart the timer to ensure it is only inserted into a list after
                 * the lists have been swapped. */
                xReloadTime = ( xNextExpireTime + pxTimer->xTimerPeriodInTicks );
    3bf6:	8e 85       	ldd	r24, Y+14	; 0x0e
    3bf8:	9f 85       	ldd	r25, Y+15	; 0x0f
    3bfa:	a8 89       	ldd	r26, Y+16	; 0x10
    3bfc:	b9 89       	ldd	r27, Y+17	; 0x11
    3bfe:	88 0d       	add	r24, r8
    3c00:	99 1d       	adc	r25, r9
    3c02:	aa 1d       	adc	r26, r10
    3c04:	bb 1d       	adc	r27, r11

                if( xReloadTime > xNextExpireTime )
    3c06:	88 16       	cp	r8, r24
    3c08:	99 06       	cpc	r9, r25
    3c0a:	aa 06       	cpc	r10, r26
    3c0c:	bb 06       	cpc	r11, r27
    3c0e:	70 f4       	brcc	.+28     	; 0x3c2c <prvSampleTimeNow+0xae>
                {
                    listSET_LIST_ITEM_VALUE( &( pxTimer->xTimerListItem ), xReloadTime );
    3c10:	8a 83       	std	Y+2, r24	; 0x02
    3c12:	9b 83       	std	Y+3, r25	; 0x03
    3c14:	ac 83       	std	Y+4, r26	; 0x04
    3c16:	bd 83       	std	Y+5, r27	; 0x05
                    listSET_LIST_ITEM_OWNER( &( pxTimer->xTimerListItem ), pxTimer );
    3c18:	db 87       	std	Y+11, r29	; 0x0b
    3c1a:	ca 87       	std	Y+10, r28	; 0x0a
                    vListInsert( pxCurrentTimerList, &( pxTimer->xTimerListItem ) );
    3c1c:	b8 01       	movw	r22, r16
    3c1e:	80 91 59 13 	lds	r24, 0x1359	; 0x801359 <pxCurrentTimerList>
    3c22:	90 91 5a 13 	lds	r25, 0x135A	; 0x80135a <pxCurrentTimerList+0x1>
    3c26:	0e 94 e3 09 	call	0x13c6	; 0x13c6 <vListInsert>
    3c2a:	0a c0       	rjmp	.+20     	; 0x3c40 <prvSampleTimeNow+0xc2>
                }
                else
                {
                    xResult = xTimerGenericCommand( pxTimer, tmrCOMMAND_START_DONT_TRACE, xNextExpireTime, NULL, tmrNO_DELAY );
    3c2c:	c1 2c       	mov	r12, r1
    3c2e:	d1 2c       	mov	r13, r1
    3c30:	76 01       	movw	r14, r12
    3c32:	00 e0       	ldi	r16, 0x00	; 0
    3c34:	10 e0       	ldi	r17, 0x00	; 0
    3c36:	a5 01       	movw	r20, r10
    3c38:	94 01       	movw	r18, r8
    3c3a:	60 e0       	ldi	r22, 0x00	; 0
    3c3c:	ce 01       	movw	r24, r28
    3c3e:	41 df       	rcall	.-382    	; 0x3ac2 <xTimerGenericCommand>

        /* The tick count has overflowed.  The timer lists must be switched.
         * If there are any timers still referenced from the current timer list
         * then they must have expired and should be processed before the lists
         * are switched. */
        while( listLIST_IS_EMPTY( pxCurrentTimerList ) == pdFALSE )
    3c40:	e0 91 59 13 	lds	r30, 0x1359	; 0x801359 <pxCurrentTimerList>
    3c44:	f0 91 5a 13 	lds	r31, 0x135A	; 0x80135a <pxCurrentTimerList+0x1>
    3c48:	80 81       	ld	r24, Z
    3c4a:	81 11       	cpse	r24, r1
    3c4c:	be cf       	rjmp	.-132    	; 0x3bca <prvSampleTimeNow+0x4c>
                mtCOVERAGE_TEST_MARKER();
            }
        }

        pxTemp = pxCurrentTimerList;
        pxCurrentTimerList = pxOverflowTimerList;
    3c4e:	80 91 57 13 	lds	r24, 0x1357	; 0x801357 <pxOverflowTimerList>
    3c52:	90 91 58 13 	lds	r25, 0x1358	; 0x801358 <pxOverflowTimerList+0x1>
    3c56:	90 93 5a 13 	sts	0x135A, r25	; 0x80135a <pxCurrentTimerList+0x1>
    3c5a:	80 93 59 13 	sts	0x1359, r24	; 0x801359 <pxCurrentTimerList>
        pxOverflowTimerList = pxTemp;
    3c5e:	f0 93 58 13 	sts	0x1358, r31	; 0x801358 <pxOverflowTimerList+0x1>
    3c62:	e0 93 57 13 	sts	0x1357, r30	; 0x801357 <pxOverflowTimerList>
        xTimeNow = xTaskGetTickCount();

        if( xTimeNow < xLastTime )
        {
            prvSwitchTimerLists();
            *pxTimerListsWereSwitched = pdTRUE;
    3c66:	81 e0       	ldi	r24, 0x01	; 1
    3c68:	f1 01       	movw	r30, r2
    3c6a:	80 83       	st	Z, r24
    3c6c:	02 c0       	rjmp	.+4      	; 0x3c72 <prvSampleTimeNow+0xf4>
        }
        else
        {
            *pxTimerListsWereSwitched = pdFALSE;
    3c6e:	f1 01       	movw	r30, r2
    3c70:	10 82       	st	Z, r1
        }

        xLastTime = xTimeNow;
    3c72:	40 92 4f 13 	sts	0x134F, r4	; 0x80134f <xLastTime.2436>
    3c76:	50 92 50 13 	sts	0x1350, r5	; 0x801350 <xLastTime.2436+0x1>
    3c7a:	60 92 51 13 	sts	0x1351, r6	; 0x801351 <xLastTime.2436+0x2>
    3c7e:	70 92 52 13 	sts	0x1352, r7	; 0x801352 <xLastTime.2436+0x3>

        return xTimeNow;
    }
    3c82:	c3 01       	movw	r24, r6
    3c84:	b2 01       	movw	r22, r4
    3c86:	df 91       	pop	r29
    3c88:	cf 91       	pop	r28
    3c8a:	1f 91       	pop	r17
    3c8c:	0f 91       	pop	r16
    3c8e:	ff 90       	pop	r15
    3c90:	ef 90       	pop	r14
    3c92:	df 90       	pop	r13
    3c94:	cf 90       	pop	r12
    3c96:	bf 90       	pop	r11
    3c98:	af 90       	pop	r10
    3c9a:	9f 90       	pop	r9
    3c9c:	8f 90       	pop	r8
    3c9e:	7f 90       	pop	r7
    3ca0:	6f 90       	pop	r6
    3ca2:	5f 90       	pop	r5
    3ca4:	4f 90       	pop	r4
    3ca6:	3f 90       	pop	r3
    3ca8:	2f 90       	pop	r2
    3caa:	08 95       	ret

00003cac <vApplicationIdleHook>:
 *
 */
void vApplicationIdleHook( void ) __attribute__((weak));

void vApplicationIdleHook( void )
{
    3cac:	08 95       	ret

00003cae <prvSetMainLedOn>:
 * Private function to enable board led to use it in application hooks
 */
void prvSetMainLedOn( void ) 
{
#if defined(__AVR_ATmega640__) || defined(__AVR_ATmega1280__) || defined(__AVR_ATmega1281__) || defined(__AVR_ATmega2560__) || defined(__AVR_ATmega2561__) // Arduino Mega with 2560
    DDRB  |= _BV(DDB7);
    3cae:	27 9a       	sbi	0x04, 7	; 4
    PORTB |= _BV(PORTB7);       // Main (red PB7) LED on. Main LED on.
    3cb0:	2f 9a       	sbi	0x05, 7	; 5
    3cb2:	08 95       	ret

00003cb4 <prvBlinkMainLed>:
 */
void prvBlinkMainLed( void ) 
{

#if defined(__AVR_ATmega640__) || defined(__AVR_ATmega1280__) || defined(__AVR_ATmega1281__) || defined(__AVR_ATmega2560__) || defined(__AVR_ATmega2561__)  // Mega with 2560
        PINB  |= _BV(PINB7);       // Main (red PB7) LED toggle.
    3cb4:	1f 9a       	sbi	0x03, 7	; 3
    3cb6:	08 95       	ret

00003cb8 <vApplicationMallocFailedHook>:
\*---------------------------------------------------------------------------*/
void vApplicationMallocFailedHook( void ) __attribute__((weak));

void vApplicationMallocFailedHook( void )
{
    prvSetMainLedOn(); // Main LED on.
    3cb8:	fa df       	rcall	.-12     	; 0x3cae <prvSetMainLedOn>
	#else
		//round up by default
		__ticks_dc = (uint32_t)(ceil(fabs(__tmp)));
	#endif

	__builtin_avr_delay_cycles(__ticks_dc);
    3cba:	2f ef       	ldi	r18, 0xFF	; 255
    3cbc:	80 e7       	ldi	r24, 0x70	; 112
    3cbe:	92 e0       	ldi	r25, 0x02	; 2
    3cc0:	21 50       	subi	r18, 0x01	; 1
    3cc2:	80 40       	sbci	r24, 0x00	; 0
    3cc4:	90 40       	sbci	r25, 0x00	; 0
    3cc6:	e1 f7       	brne	.-8      	; 0x3cc0 <vApplicationMallocFailedHook+0x8>
    3cc8:	00 c0       	rjmp	.+0      	; 0x3cca <vApplicationMallocFailedHook+0x12>
    
    for(;;)
    {
        _delay_ms(50);
        prvBlinkMainLed(); // Main LED fast blink.
    3cca:	00 00       	nop
    3ccc:	f3 df       	rcall	.-26     	; 0x3cb4 <prvBlinkMainLed>
    3cce:	f5 cf       	rjmp	.-22     	; 0x3cba <vApplicationMallocFailedHook+0x2>

00003cd0 <vApplicationStackOverflowHook>:

void vApplicationStackOverflowHook( TaskHandle_t xTask __attribute__((unused)),
                                    char * pcTaskName __attribute__((unused)) )
{

    prvSetMainLedOn(); // Main LED on.
    3cd0:	ee df       	rcall	.-36     	; 0x3cae <prvSetMainLedOn>
    3cd2:	2f ef       	ldi	r18, 0xFF	; 255
    3cd4:	87 ea       	ldi	r24, 0xA7	; 167
    3cd6:	91 e6       	ldi	r25, 0x61	; 97
    3cd8:	21 50       	subi	r18, 0x01	; 1
    3cda:	80 40       	sbci	r24, 0x00	; 0
    3cdc:	90 40       	sbci	r25, 0x00	; 0
    3cde:	e1 f7       	brne	.-8      	; 0x3cd8 <vApplicationStackOverflowHook+0x8>
    3ce0:	00 c0       	rjmp	.+0      	; 0x3ce2 <vApplicationStackOverflowHook+0x12>

    for(;;)
    {
        _delay_ms(2000);
        prvBlinkMainLed();  // Main LED slow blink.
    3ce2:	00 00       	nop
    3ce4:	e7 df       	rcall	.-50     	; 0x3cb4 <prvBlinkMainLed>
    3ce6:	f5 cf       	rjmp	.-22     	; 0x3cd2 <vApplicationStackOverflowHook+0x2>

00003ce8 <lora_handler_decodeUplink>:
	   
	}
}

void lora_handler_decodeUplink(lora_driver_payload_t load)
{
    3ce8:	cf 93       	push	r28
    3cea:	df 93       	push	r29
    3cec:	cd b7       	in	r28, 0x3d	; 61
    3cee:	de b7       	in	r29, 0x3e	; 62
	int16_t hum;
	int16_t carbon;
	temp = (load.bytes[0] << 8) + load.bytes[1];
    hum = (load.bytes[2] << 8) + load.bytes[3];
	carbon = (load.bytes[4] << 8) + load.bytes[5];
	printf("|%d_%d_%d|",temp,hum,carbon);
    3cf0:	8c 85       	ldd	r24, Y+12	; 0x0c
    3cf2:	90 e0       	ldi	r25, 0x00	; 0
    3cf4:	98 2f       	mov	r25, r24
    3cf6:	88 27       	eor	r24, r24
    3cf8:	2d 85       	ldd	r18, Y+13	; 0x0d
    3cfa:	82 0f       	add	r24, r18
    3cfc:	91 1d       	adc	r25, r1
    3cfe:	9f 93       	push	r25
    3d00:	8f 93       	push	r24
    3d02:	8a 85       	ldd	r24, Y+10	; 0x0a
    3d04:	90 e0       	ldi	r25, 0x00	; 0
    3d06:	98 2f       	mov	r25, r24
    3d08:	88 27       	eor	r24, r24
    3d0a:	2b 85       	ldd	r18, Y+11	; 0x0b
    3d0c:	82 0f       	add	r24, r18
    3d0e:	91 1d       	adc	r25, r1
    3d10:	9f 93       	push	r25
    3d12:	8f 93       	push	r24
    3d14:	88 85       	ldd	r24, Y+8	; 0x08
    3d16:	90 e0       	ldi	r25, 0x00	; 0
    3d18:	98 2f       	mov	r25, r24
    3d1a:	88 27       	eor	r24, r24
    3d1c:	29 85       	ldd	r18, Y+9	; 0x09
    3d1e:	82 0f       	add	r24, r18
    3d20:	91 1d       	adc	r25, r1
    3d22:	9f 93       	push	r25
    3d24:	8f 93       	push	r24
    3d26:	89 e0       	ldi	r24, 0x09	; 9
    3d28:	94 e0       	ldi	r25, 0x04	; 4
    3d2a:	9f 93       	push	r25
    3d2c:	8f 93       	push	r24
    3d2e:	0e 94 0a 37 	call	0x6e14	; 0x6e14 <printf>
}
    3d32:	0f b6       	in	r0, 0x3f	; 63
    3d34:	f8 94       	cli
    3d36:	de bf       	out	0x3e, r29	; 62
    3d38:	0f be       	out	0x3f, r0	; 63
    3d3a:	cd bf       	out	0x3d, r28	; 61
    3d3c:	df 91       	pop	r29
    3d3e:	cf 91       	pop	r28
    3d40:	08 95       	ret

00003d42 <lora_handler_decodeDownlink>:

void lora_handler_decodeDownlink(lora_driver_payload_t load)
{
    3d42:	ef 92       	push	r14
    3d44:	ff 92       	push	r15
    3d46:	0f 93       	push	r16
    3d48:	1f 93       	push	r17
    3d4a:	cf 93       	push	r28
    3d4c:	df 93       	push	r29
    3d4e:	cd b7       	in	r28, 0x3d	; 61
    3d50:	de b7       	in	r29, 0x3e	; 62
	maxTemp = (load.bytes[2] << 8) + load.bytes[3];
	minHum = (load.bytes[4] << 8) + load.bytes[5];
	maxHum = (load.bytes[6] << 8) + load.bytes[7];
	minCO2 = (load.bytes[8] << 8) + load.bytes[9];
	maxCO2 = (load.bytes[10] << 8) + load.bytes[11];
	status = (load.bytes[12] << 8) + load.bytes[13];
    3d52:	28 8d       	ldd	r18, Y+24	; 0x18
    3d54:	30 e0       	ldi	r19, 0x00	; 0
    3d56:	32 2f       	mov	r19, r18
    3d58:	22 27       	eor	r18, r18
    3d5a:	89 8d       	ldd	r24, Y+25	; 0x19
    3d5c:	28 0f       	add	r18, r24
    3d5e:	31 1d       	adc	r19, r1
	tempStatus = status-status/10*10;
    3d60:	c9 01       	movw	r24, r18
    3d62:	6a e0       	ldi	r22, 0x0A	; 10
    3d64:	70 e0       	ldi	r23, 0x00	; 0
    3d66:	0e 94 02 35 	call	0x6a04	; 0x6a04 <__divmodhi4>
    3d6a:	fc 01       	movw	r30, r24
	humStatus = status-status/100*100-tempStatus;
    3d6c:	0f 2e       	mov	r0, r31
    3d6e:	f4 e6       	ldi	r31, 0x64	; 100
    3d70:	ef 2e       	mov	r14, r31
    3d72:	f1 2c       	mov	r15, r1
    3d74:	f0 2d       	mov	r31, r0
    3d76:	c9 01       	movw	r24, r18
    3d78:	b7 01       	movw	r22, r14
    3d7a:	0e 94 02 35 	call	0x6a04	; 0x6a04 <__divmodhi4>
	CO2Status = (status-humStatus-tempStatus)/100;
	printf("|%d_%d_%d_%d_%d_%d_%d_%d_%d|",minTemp,maxTemp,minHum,maxHum,minCO2,maxCO2,tempStatus,humStatus,CO2Status);
    3d7e:	8c 01       	movw	r16, r24
    3d80:	0e 1b       	sub	r16, r30
    3d82:	1f 0b       	sbc	r17, r31
    3d84:	a9 01       	movw	r20, r18
    3d86:	48 1b       	sub	r20, r24
    3d88:	59 0b       	sbc	r21, r25
    3d8a:	ca 01       	movw	r24, r20
    3d8c:	b7 01       	movw	r22, r14
    3d8e:	0e 94 02 35 	call	0x6a04	; 0x6a04 <__divmodhi4>
    3d92:	7f 93       	push	r23
    3d94:	6f 93       	push	r22
    3d96:	1f 93       	push	r17
    3d98:	0f 93       	push	r16
    3d9a:	ff 93       	push	r31
    3d9c:	ef 93       	push	r30
    3d9e:	8e 89       	ldd	r24, Y+22	; 0x16
    3da0:	90 e0       	ldi	r25, 0x00	; 0
    3da2:	98 2f       	mov	r25, r24
    3da4:	88 27       	eor	r24, r24
    3da6:	2f 89       	ldd	r18, Y+23	; 0x17
    3da8:	82 0f       	add	r24, r18
    3daa:	91 1d       	adc	r25, r1
    3dac:	9f 93       	push	r25
    3dae:	8f 93       	push	r24
    3db0:	8c 89       	ldd	r24, Y+20	; 0x14
    3db2:	90 e0       	ldi	r25, 0x00	; 0
    3db4:	98 2f       	mov	r25, r24
    3db6:	88 27       	eor	r24, r24
    3db8:	2d 89       	ldd	r18, Y+21	; 0x15
    3dba:	82 0f       	add	r24, r18
    3dbc:	91 1d       	adc	r25, r1
    3dbe:	9f 93       	push	r25
    3dc0:	8f 93       	push	r24
    3dc2:	8a 89       	ldd	r24, Y+18	; 0x12
    3dc4:	90 e0       	ldi	r25, 0x00	; 0
    3dc6:	98 2f       	mov	r25, r24
    3dc8:	88 27       	eor	r24, r24
    3dca:	2b 89       	ldd	r18, Y+19	; 0x13
    3dcc:	82 0f       	add	r24, r18
    3dce:	91 1d       	adc	r25, r1
    3dd0:	9f 93       	push	r25
    3dd2:	8f 93       	push	r24
    3dd4:	88 89       	ldd	r24, Y+16	; 0x10
    3dd6:	90 e0       	ldi	r25, 0x00	; 0
    3dd8:	98 2f       	mov	r25, r24
    3dda:	88 27       	eor	r24, r24
    3ddc:	29 89       	ldd	r18, Y+17	; 0x11
    3dde:	82 0f       	add	r24, r18
    3de0:	91 1d       	adc	r25, r1
    3de2:	9f 93       	push	r25
    3de4:	8f 93       	push	r24
    3de6:	8e 85       	ldd	r24, Y+14	; 0x0e
    3de8:	90 e0       	ldi	r25, 0x00	; 0
    3dea:	98 2f       	mov	r25, r24
    3dec:	88 27       	eor	r24, r24
    3dee:	2f 85       	ldd	r18, Y+15	; 0x0f
    3df0:	82 0f       	add	r24, r18
    3df2:	91 1d       	adc	r25, r1
    3df4:	9f 93       	push	r25
    3df6:	8f 93       	push	r24
    3df8:	8c 85       	ldd	r24, Y+12	; 0x0c
    3dfa:	90 e0       	ldi	r25, 0x00	; 0
    3dfc:	98 2f       	mov	r25, r24
    3dfe:	88 27       	eor	r24, r24
    3e00:	2d 85       	ldd	r18, Y+13	; 0x0d
    3e02:	82 0f       	add	r24, r18
    3e04:	91 1d       	adc	r25, r1
    3e06:	9f 93       	push	r25
    3e08:	8f 93       	push	r24
    3e0a:	84 e1       	ldi	r24, 0x14	; 20
    3e0c:	94 e0       	ldi	r25, 0x04	; 4
    3e0e:	9f 93       	push	r25
    3e10:	8f 93       	push	r24
    3e12:	0e 94 0a 37 	call	0x6e14	; 0x6e14 <printf>
}
    3e16:	0f b6       	in	r0, 0x3f	; 63
    3e18:	f8 94       	cli
    3e1a:	de bf       	out	0x3e, r29	; 62
    3e1c:	0f be       	out	0x3f, r0	; 63
    3e1e:	cd bf       	out	0x3d, r28	; 61
    3e20:	df 91       	pop	r29
    3e22:	cf 91       	pop	r28
    3e24:	1f 91       	pop	r17
    3e26:	0f 91       	pop	r16
    3e28:	ff 90       	pop	r15
    3e2a:	ef 90       	pop	r14
    3e2c:	08 95       	ret

00003e2e <lora_handler_task>:

/*-----------------------------------------------------------*/
void lora_handler_task( void *pvParameters )
{
	// Hardware reset of LoRaWAN transceiver
	lora_driver_resetRn2483(1);
    3e2e:	81 e0       	ldi	r24, 0x01	; 1
    3e30:	17 d7       	rcall	.+3630   	; 0x4c60 <lora_driver_resetRn2483>
	vTaskDelay(2);
    3e32:	62 e0       	ldi	r22, 0x02	; 2
    3e34:	70 e0       	ldi	r23, 0x00	; 0
    3e36:	80 e0       	ldi	r24, 0x00	; 0
    3e38:	90 e0       	ldi	r25, 0x00	; 0
    3e3a:	0e 94 75 16 	call	0x2cea	; 0x2cea <vTaskDelay>
	lora_driver_resetRn2483(0);
    3e3e:	80 e0       	ldi	r24, 0x00	; 0
    3e40:	0f d7       	rcall	.+3614   	; 0x4c60 <lora_driver_resetRn2483>
	// Give it a chance to wakeup
	vTaskDelay(150);
    3e42:	66 e9       	ldi	r22, 0x96	; 150
    3e44:	70 e0       	ldi	r23, 0x00	; 0
    3e46:	80 e0       	ldi	r24, 0x00	; 0
    3e48:	90 e0       	ldi	r25, 0x00	; 0
    3e4a:	0e 94 75 16 	call	0x2cea	; 0x2cea <vTaskDelay>
static char devEui[17]; // It is static to avoid it to occupy stack space in the task

static void _lora_setup(void)
{
	lora_driver_returnCode_t rc;
	status_leds_slowBlink(led_ST2); // OPTIONAL: Led the green led blink slowly while we are setting up LoRa
    3e4e:	81 e0       	ldi	r24, 0x01	; 1
    3e50:	0e 94 96 30 	call	0x612c	; 0x612c <status_leds_slowBlink>

	// Factory reset the transceiver
	printf("FactoryReset >%s<\n", lora_driver_mapReturnCodeToText(lora_driver_rn2483FactoryReset()));
    3e54:	13 d7       	rcall	.+3622   	; 0x4c7c <lora_driver_rn2483FactoryReset>
    3e56:	0e 94 bb 28 	call	0x5176	; 0x5176 <lora_driver_mapReturnCodeToText>
    3e5a:	9f 93       	push	r25
    3e5c:	8f 93       	push	r24
    3e5e:	81 e3       	ldi	r24, 0x31	; 49
    3e60:	94 e0       	ldi	r25, 0x04	; 4
    3e62:	9f 93       	push	r25
    3e64:	8f 93       	push	r24
    3e66:	0e 94 0a 37 	call	0x6e14	; 0x6e14 <printf>
	
	// Configure to EU868 LoRaWAN standards
	printf("Configure to EU868 >%s<\n", lora_driver_mapReturnCodeToText(lora_driver_configureToEu868()));
    3e6a:	0e 94 bc 27 	call	0x4f78	; 0x4f78 <lora_driver_configureToEu868>
    3e6e:	0e 94 bb 28 	call	0x5176	; 0x5176 <lora_driver_mapReturnCodeToText>
    3e72:	9f 93       	push	r25
    3e74:	8f 93       	push	r24
    3e76:	84 e4       	ldi	r24, 0x44	; 68
    3e78:	94 e0       	ldi	r25, 0x04	; 4
    3e7a:	9f 93       	push	r25
    3e7c:	8f 93       	push	r24
    3e7e:	0e 94 0a 37 	call	0x6e14	; 0x6e14 <printf>

	// Get the transceivers HW EUI
	rc = lora_driver_getRn2483Hweui(_out_buf);
    3e82:	8f e9       	ldi	r24, 0x9F	; 159
    3e84:	93 e1       	ldi	r25, 0x13	; 19
    3e86:	0c d7       	rcall	.+3608   	; 0x4ca0 <lora_driver_getRn2483Hweui>
	printf("Get HWEUI >%s<: %s\n",lora_driver_mapReturnCodeToText(rc), _out_buf);
    3e88:	0e 94 bb 28 	call	0x5176	; 0x5176 <lora_driver_mapReturnCodeToText>
    3e8c:	cf e9       	ldi	r28, 0x9F	; 159
    3e8e:	d3 e1       	ldi	r29, 0x13	; 19
    3e90:	df 93       	push	r29
    3e92:	cf 93       	push	r28
    3e94:	9f 93       	push	r25
    3e96:	8f 93       	push	r24
    3e98:	8d e5       	ldi	r24, 0x5D	; 93
    3e9a:	94 e0       	ldi	r25, 0x04	; 4
    3e9c:	9f 93       	push	r25
    3e9e:	8f 93       	push	r24
    3ea0:	0e 94 0a 37 	call	0x6e14	; 0x6e14 <printf>

	// Set the HWEUI as DevEUI in the LoRaWAN software stack in the transceiver
	printf("Set DevEUI: %s >%s<\n", _out_buf, lora_driver_mapReturnCodeToText(lora_driver_setDeviceIdentifier(_out_buf)));
    3ea4:	ce 01       	movw	r24, r28
    3ea6:	18 d7       	rcall	.+3632   	; 0x4cd8 <lora_driver_setDeviceIdentifier>
    3ea8:	0e 94 bb 28 	call	0x5176	; 0x5176 <lora_driver_mapReturnCodeToText>
    3eac:	9f 93       	push	r25
    3eae:	8f 93       	push	r24
    3eb0:	df 93       	push	r29
    3eb2:	cf 93       	push	r28
    3eb4:	81 e7       	ldi	r24, 0x71	; 113
    3eb6:	94 e0       	ldi	r25, 0x04	; 4
    3eb8:	9f 93       	push	r25
    3eba:	8f 93       	push	r24
    3ebc:	0e 94 0a 37 	call	0x6e14	; 0x6e14 <printf>

	// Set Over The Air Activation parameters to be ready to join the LoRaWAN
	printf("Set OTAA Identity appEUI:%s appKEY:%s devEUI:%s >%s<\n", LORA_appEUI, LORA_appKEY, _out_buf, lora_driver_mapReturnCodeToText(lora_driver_setOtaaIdentity(LORA_appEUI,LORA_appKEY,_out_buf)));
    3ec0:	ae 01       	movw	r20, r28
    3ec2:	66 e8       	ldi	r22, 0x86	; 134
    3ec4:	74 e0       	ldi	r23, 0x04	; 4
    3ec6:	87 ea       	ldi	r24, 0xA7	; 167
    3ec8:	94 e0       	ldi	r25, 0x04	; 4
    3eca:	0e 94 9a 28 	call	0x5134	; 0x5134 <lora_driver_setOtaaIdentity>
    3ece:	0e 94 bb 28 	call	0x5176	; 0x5176 <lora_driver_mapReturnCodeToText>
    3ed2:	9f 93       	push	r25
    3ed4:	8f 93       	push	r24
    3ed6:	df 93       	push	r29
    3ed8:	cf 93       	push	r28
    3eda:	86 e8       	ldi	r24, 0x86	; 134
    3edc:	94 e0       	ldi	r25, 0x04	; 4
    3ede:	9f 93       	push	r25
    3ee0:	8f 93       	push	r24
    3ee2:	87 ea       	ldi	r24, 0xA7	; 167
    3ee4:	94 e0       	ldi	r25, 0x04	; 4
    3ee6:	9f 93       	push	r25
    3ee8:	8f 93       	push	r24
    3eea:	88 eb       	ldi	r24, 0xB8	; 184
    3eec:	94 e0       	ldi	r25, 0x04	; 4
    3eee:	9f 93       	push	r25
    3ef0:	8f 93       	push	r24
    3ef2:	0e 94 0a 37 	call	0x6e14	; 0x6e14 <printf>

	// Save all the MAC settings in the transceiver
	printf("Save mac >%s<\n",lora_driver_mapReturnCodeToText(lora_driver_saveMac()));
    3ef6:	23 d7       	rcall	.+3654   	; 0x4d3e <lora_driver_saveMac>
    3ef8:	0e 94 bb 28 	call	0x5176	; 0x5176 <lora_driver_mapReturnCodeToText>
    3efc:	9f 93       	push	r25
    3efe:	8f 93       	push	r24
    3f00:	8e ee       	ldi	r24, 0xEE	; 238
    3f02:	94 e0       	ldi	r25, 0x04	; 4
    3f04:	9f 93       	push	r25
    3f06:	8f 93       	push	r24
    3f08:	0e 94 0a 37 	call	0x6e14	; 0x6e14 <printf>

	// Enable Adaptive Data Rate
	printf("Set Adaptive Data Rate: ON >%s<\n", lora_driver_mapReturnCodeToText(lora_driver_setAdaptiveDataRate(LORA_ON)));
    3f0c:	ed b7       	in	r30, 0x3d	; 61
    3f0e:	fe b7       	in	r31, 0x3e	; 62
    3f10:	b2 96       	adiw	r30, 0x22	; 34
    3f12:	0f b6       	in	r0, 0x3f	; 63
    3f14:	f8 94       	cli
    3f16:	fe bf       	out	0x3e, r31	; 62
    3f18:	0f be       	out	0x3f, r0	; 63
    3f1a:	ed bf       	out	0x3d, r30	; 61
    3f1c:	81 e0       	ldi	r24, 0x01	; 1
    3f1e:	0e 94 99 27 	call	0x4f32	; 0x4f32 <lora_driver_setAdaptiveDataRate>
    3f22:	0e 94 bb 28 	call	0x5176	; 0x5176 <lora_driver_mapReturnCodeToText>
    3f26:	9f 93       	push	r25
    3f28:	8f 93       	push	r24
    3f2a:	8d ef       	ldi	r24, 0xFD	; 253
    3f2c:	94 e0       	ldi	r25, 0x04	; 4
    3f2e:	9f 93       	push	r25
    3f30:	8f 93       	push	r24
    3f32:	0e 94 0a 37 	call	0x6e14	; 0x6e14 <printf>

	// Set receiver window1 delay to 500 ms - this is needed if down-link messages will be used
	printf("Set Receiver Delay: %d ms >%s<\n", 500, lora_driver_mapReturnCodeToText(lora_driver_setReceiveDelay(500)));
    3f36:	84 ef       	ldi	r24, 0xF4	; 244
    3f38:	91 e0       	ldi	r25, 0x01	; 1
    3f3a:	0e 94 a4 27 	call	0x4f48	; 0x4f48 <lora_driver_setReceiveDelay>
    3f3e:	0e 94 bb 28 	call	0x5176	; 0x5176 <lora_driver_mapReturnCodeToText>
    3f42:	9f 93       	push	r25
    3f44:	8f 93       	push	r24
    3f46:	81 e0       	ldi	r24, 0x01	; 1
    3f48:	8f 93       	push	r24
    3f4a:	84 ef       	ldi	r24, 0xF4	; 244
    3f4c:	8f 93       	push	r24
    3f4e:	8e e1       	ldi	r24, 0x1E	; 30
    3f50:	95 e0       	ldi	r25, 0x05	; 5
    3f52:	9f 93       	push	r25
    3f54:	8f 93       	push	r24
    3f56:	0e 94 0a 37 	call	0x6e14	; 0x6e14 <printf>
    3f5a:	8d b7       	in	r24, 0x3d	; 61
    3f5c:	9e b7       	in	r25, 0x3e	; 62
    3f5e:	0a 96       	adiw	r24, 0x0a	; 10
    3f60:	0f b6       	in	r0, 0x3f	; 63
    3f62:	f8 94       	cli
    3f64:	9e bf       	out	0x3e, r25	; 62
    3f66:	0f be       	out	0x3f, r0	; 63
    3f68:	8d bf       	out	0x3d, r24	; 61
    3f6a:	ca e0       	ldi	r28, 0x0A	; 10
	// Join the LoRaWAN
	uint8_t maxJoinTriesLeft = 10;
	
	do {
		rc = lora_driver_join(LORA_OTAA);
		printf("Join Network TriesLeft:%d >%s<\n", maxJoinTriesLeft, lora_driver_mapReturnCodeToText(rc));
    3f6c:	d0 e0       	ldi	r29, 0x00	; 0
    3f6e:	0e e3       	ldi	r16, 0x3E	; 62

	// Join the LoRaWAN
	uint8_t maxJoinTriesLeft = 10;
	
	do {
		rc = lora_driver_join(LORA_OTAA);
    3f70:	15 e0       	ldi	r17, 0x05	; 5
    3f72:	80 e0       	ldi	r24, 0x00	; 0
    3f74:	ea d6       	rcall	.+3540   	; 0x4d4a <lora_driver_join>
    3f76:	f8 2e       	mov	r15, r24
		printf("Join Network TriesLeft:%d >%s<\n", maxJoinTriesLeft, lora_driver_mapReturnCodeToText(rc));
    3f78:	0e 94 bb 28 	call	0x5176	; 0x5176 <lora_driver_mapReturnCodeToText>
    3f7c:	9f 93       	push	r25
    3f7e:	8f 93       	push	r24
    3f80:	df 93       	push	r29
    3f82:	cf 93       	push	r28
    3f84:	1f 93       	push	r17
    3f86:	0f 93       	push	r16
    3f88:	0e 94 0a 37 	call	0x6e14	; 0x6e14 <printf>

		if ( rc != LORA_ACCEPTED)
    3f8c:	0f 90       	pop	r0
    3f8e:	0f 90       	pop	r0
    3f90:	0f 90       	pop	r0
    3f92:	0f 90       	pop	r0
    3f94:	0f 90       	pop	r0
    3f96:	0f 90       	pop	r0
    3f98:	f8 e0       	ldi	r31, 0x08	; 8
    3f9a:	ff 16       	cp	r15, r31
    3f9c:	09 f4       	brne	.+2      	; 0x3fa0 <lora_handler_task+0x172>
    3f9e:	d8 c0       	rjmp	.+432    	; 0x4150 <lora_handler_task+0x322>
		{
			// Make the red led pulse to tell something went wrong
			status_leds_longPuls(led_ST1); // OPTIONAL
    3fa0:	80 e0       	ldi	r24, 0x00	; 0
    3fa2:	0e 94 fa 30 	call	0x61f4	; 0x61f4 <status_leds_longPuls>
			// Wait 5 sec and lets try again
			vTaskDelay(pdMS_TO_TICKS(5000UL));
    3fa6:	66 e3       	ldi	r22, 0x36	; 54
    3fa8:	71 e0       	ldi	r23, 0x01	; 1
    3faa:	80 e0       	ldi	r24, 0x00	; 0
    3fac:	90 e0       	ldi	r25, 0x00	; 0
    3fae:	0e 94 75 16 	call	0x2cea	; 0x2cea <vTaskDelay>
    3fb2:	21 97       	sbiw	r28, 0x01	; 1
		}
		else
		{
			break;
		}
	} while (--maxJoinTriesLeft);
    3fb4:	f1 f6       	brne	.-68     	; 0x3f72 <lora_handler_task+0x144>
    3fb6:	c5 c0       	rjmp	.+394    	; 0x4142 <lora_handler_task+0x314>
		status_leds_fastBlink(led_ST1); // OPTIONAL

		// Lets stay here
		while (1)
		{
			taskYIELD();
    3fb8:	0e 94 9a 0a 	call	0x1534	; 0x1534 <vPortYield>
	_uplink_payload.portNo = 2;
	
	for(;;)
	{
		
		int16_t temp = temperatureSensor_getValue(sensorModelManager_getTemperatureSensor());
    3fbc:	fd cf       	rjmp	.-6      	; 0x3fb8 <lora_handler_task+0x18a>
    3fbe:	0e 94 c6 07 	call	0xf8c	; 0xf8c <sensorModelManager_getTemperatureSensor>
    3fc2:	0e 94 5f 07 	call	0xebe	; 0xebe <temperatureSensor_getValue>
    3fc6:	b6 d1       	rcall	.+876    	; 0x4334 <__fixsfsi>
    3fc8:	46 2e       	mov	r4, r22
		int16_t hum = humiditySensor_getValue(sensorModelManager_getHumiditySensor());
    3fca:	37 2e       	mov	r3, r23
    3fcc:	0e 94 cb 07 	call	0xf96	; 0xf96 <sensorModelManager_getHumiditySensor>
    3fd0:	0e 94 9c 06 	call	0xd38	; 0xd38 <humiditySensor_getValue>
    3fd4:	af d1       	rcall	.+862    	; 0x4334 <__fixsfsi>
    3fd6:	16 2f       	mov	r17, r22
    3fd8:	07 2f       	mov	r16, r23
		int16_t co2_ppm = carbonDioxideSensor_getValue(sensorModelManager_getCarbonDioxideSensor());
    3fda:	0e 94 d0 07 	call	0xfa0	; 0xfa0 <sensorModelManager_getCarbonDioxideSensor>
    3fde:	0e 94 de 05 	call	0xbbc	; 0xbbc <carbonDioxideSensor_getValue>
		
		_uplink_payload.bytes[0] = temp >> 8;
    3fe2:	3a 82       	std	Y+2, r3	; 0x02
		_uplink_payload.bytes[1] = temp & 0xFF;
    3fe4:	4b 82       	std	Y+3, r4	; 0x03
		_uplink_payload.bytes[2] = hum >> 8;
    3fe6:	0c 83       	std	Y+4, r16	; 0x04
		_uplink_payload.bytes[3] = hum & 0xFF;
    3fe8:	1d 83       	std	Y+5, r17	; 0x05
		_uplink_payload.bytes[4] = co2_ppm >> 8;
    3fea:	9e 83       	std	Y+6, r25	; 0x06
		_uplink_payload.bytes[5] = co2_ppm & 0xFF;

		status_leds_shortPuls(led_ST4);  // OPTIONAL
    3fec:	8f 83       	std	Y+7, r24	; 0x07
    3fee:	83 e0       	ldi	r24, 0x03	; 3
    3ff0:	0e 94 0c 31 	call	0x6218	; 0x6218 <status_leds_shortPuls>
		PORTA ^= _BV(PA3);
    3ff4:	82 b1       	in	r24, 0x02	; 2
    3ff6:	89 25       	eor	r24, r9
		char *result = lora_driver_mapReturnCodeToText(lora_driver_sendUploadMessage(false, &_uplink_payload));
    3ff8:	82 b9       	out	0x02, r24	; 2
    3ffa:	be 01       	movw	r22, r28
    3ffc:	80 e0       	ldi	r24, 0x00	; 0
    3ffe:	ce d6       	rcall	.+3484   	; 0x4d9c <lora_driver_sendUploadMessage>
    4000:	0e 94 bb 28 	call	0x5176	; 0x5176 <lora_driver_mapReturnCodeToText>
    4004:	8c 01       	movw	r16, r24
		printf("Upload Message >%s<\n", result);
    4006:	1f 93       	push	r17
    4008:	8f 93       	push	r24
    400a:	ff 92       	push	r15
    400c:	ef 92       	push	r14
    400e:	0e 94 0a 37 	call	0x6e14	; 0x6e14 <printf>
		if (result=="MAC_RX"||result=="OK")
    4012:	0f 90       	pop	r0
    4014:	0f 90       	pop	r0
    4016:	0f 90       	pop	r0
    4018:	0f 90       	pop	r0
    401a:	25 e0       	ldi	r18, 0x05	; 5
    401c:	03 37       	cpi	r16, 0x73	; 115
    401e:	12 07       	cpc	r17, r18
    4020:	21 f0       	breq	.+8      	; 0x402a <lora_handler_task+0x1fc>
    4022:	82 e0       	ldi	r24, 0x02	; 2
    4024:	03 38       	cpi	r16, 0x83	; 131
    4026:	18 07       	cpc	r17, r24
    4028:	c1 f5       	brne	.+112    	; 0x409a <lora_handler_task+0x26c>
		{
			downlinkPayload.portNo = 1;
    402a:	f6 01       	movw	r30, r12
    402c:	80 82       	st	Z, r8
			downlinkPayload.len = 14;
    402e:	51 82       	std	Z+1, r5	; 0x01
			xMessageBufferReceive(downLinkBufferHandle, &downlinkPayload, sizeof(lora_driver_payload_t), portMAX_DELAY);
    4030:	0f ef       	ldi	r16, 0xFF	; 255
    4032:	1f ef       	ldi	r17, 0xFF	; 255
    4034:	98 01       	movw	r18, r16
    4036:	46 e1       	ldi	r20, 0x16	; 22
    4038:	50 e0       	ldi	r21, 0x00	; 0
    403a:	b6 01       	movw	r22, r12
    403c:	80 91 71 13 	lds	r24, 0x1371	; 0x801371 <downLinkBufferHandle>
    4040:	90 91 72 13 	lds	r25, 0x1372	; 0x801372 <downLinkBufferHandle+0x1>
    4044:	0e 94 65 11 	call	0x22ca	; 0x22ca <xStreamBufferReceive>
			PORTA ^= _BV(PA3);
    4048:	82 b1       	in	r24, 0x02	; 2
    404a:	89 25       	eor	r24, r9
    404c:	82 b9       	out	0x02, r24	; 2
			printf("DOWN LINK: from port: %d with %d bytes received!", downlinkPayload.portNo, downlinkPayload.len); // Just for Debug
    404e:	f6 01       	movw	r30, r12
    4050:	81 81       	ldd	r24, Z+1	; 0x01
    4052:	1f 92       	push	r1
    4054:	8f 93       	push	r24
    4056:	80 81       	ld	r24, Z
    4058:	1f 92       	push	r1
    405a:	8f 93       	push	r24
    405c:	7f 92       	push	r7
    405e:	6f 92       	push	r6
    4060:	0e 94 0a 37 	call	0x6e14	; 0x6e14 <printf>
			lora_handler_decodeDownlink(downlinkPayload);
    4064:	8d b7       	in	r24, 0x3d	; 61
    4066:	9e b7       	in	r25, 0x3e	; 62
    4068:	46 97       	sbiw	r24, 0x16	; 22
    406a:	0f b6       	in	r0, 0x3f	; 63
    406c:	f8 94       	cli
    406e:	9e bf       	out	0x3e, r25	; 62
    4070:	0f be       	out	0x3f, r0	; 63
    4072:	8d bf       	out	0x3d, r24	; 61
    4074:	ad b7       	in	r26, 0x3d	; 61
    4076:	be b7       	in	r27, 0x3e	; 62
    4078:	11 96       	adiw	r26, 0x01	; 1
    407a:	86 e1       	ldi	r24, 0x16	; 22
    407c:	f6 01       	movw	r30, r12
    407e:	01 90       	ld	r0, Z+
    4080:	0d 92       	st	X+, r0
    4082:	8a 95       	dec	r24
    4084:	e1 f7       	brne	.-8      	; 0x407e <lora_handler_task+0x250>
    4086:	5d de       	rcall	.-838    	; 0x3d42 <lora_handler_decodeDownlink>
		status_leds_shortPuls(led_ST4);  // OPTIONAL
		PORTA ^= _BV(PA3);
		char *result = lora_driver_mapReturnCodeToText(lora_driver_sendUploadMessage(false, &_uplink_payload));
		printf("Upload Message >%s<\n", result);
		if (result=="MAC_RX"||result=="OK")
		{
    4088:	ed b7       	in	r30, 0x3d	; 61
    408a:	fe b7       	in	r31, 0x3e	; 62
    408c:	7c 96       	adiw	r30, 0x1c	; 28
    408e:	0f b6       	in	r0, 0x3f	; 63
    4090:	f8 94       	cli
    4092:	fe bf       	out	0x3e, r31	; 62
    4094:	0f be       	out	0x3f, r0	; 63
    4096:	ed bf       	out	0x3d, r30	; 61
			testPayload.bytes[11] = 900 & 0xFF;
			testPayload.bytes[12] = 101 >> 8;
			testPayload.bytes[13] = 101 & 0xFF;
			//lora_handler_decodeDownlink(testPayload);
		}
		else if (result!="MAC_TX_OK"&&result!="OK")
    4098:	30 c0       	rjmp	.+96     	; 0x40fa <lora_handler_task+0x2cc>
    409a:	0a 57       	subi	r16, 0x7A	; 122
		{
			// Hardware reset of LoRaWAN transceiver
			lora_driver_resetRn2483(1);
    409c:	15 40       	sbci	r17, 0x05	; 5
    409e:	69 f1       	breq	.+90     	; 0x40fa <lora_handler_task+0x2cc>
    40a0:	88 2d       	mov	r24, r8
			vTaskDelay(2);
    40a2:	de d5       	rcall	.+3004   	; 0x4c60 <lora_driver_resetRn2483>
    40a4:	62 e0       	ldi	r22, 0x02	; 2
    40a6:	70 e0       	ldi	r23, 0x00	; 0
    40a8:	80 e0       	ldi	r24, 0x00	; 0
    40aa:	90 e0       	ldi	r25, 0x00	; 0
			lora_driver_resetRn2483(0);
    40ac:	0e 94 75 16 	call	0x2cea	; 0x2cea <vTaskDelay>
    40b0:	80 e0       	ldi	r24, 0x00	; 0
			// Give it a chance to wakeup
			vTaskDelay(150);
    40b2:	d6 d5       	rcall	.+2988   	; 0x4c60 <lora_driver_resetRn2483>
    40b4:	66 e9       	ldi	r22, 0x96	; 150
    40b6:	70 e0       	ldi	r23, 0x00	; 0
    40b8:	80 e0       	ldi	r24, 0x00	; 0
    40ba:	90 e0       	ldi	r25, 0x00	; 0
			printf("Rejoin Network TriesLeft:>%s<\n", lora_driver_mapReturnCodeToText(lora_driver_join(LORA_OTAA)));
    40bc:	0e 94 75 16 	call	0x2cea	; 0x2cea <vTaskDelay>
    40c0:	80 e0       	ldi	r24, 0x00	; 0
    40c2:	43 d6       	rcall	.+3206   	; 0x4d4a <lora_driver_join>
    40c4:	0e 94 bb 28 	call	0x5176	; 0x5176 <lora_driver_mapReturnCodeToText>
    40c8:	9f 93       	push	r25
    40ca:	8f 93       	push	r24
    40cc:	bf 92       	push	r11
    40ce:	af 92       	push	r10
    40d0:	0e 94 0a 37 	call	0x6e14	; 0x6e14 <printf>
			printf("Upload Message >%s<\n", lora_driver_mapReturnCodeToText(lora_driver_sendUploadMessage(false, &_uplink_payload)));
    40d4:	be 01       	movw	r22, r28
    40d6:	80 e0       	ldi	r24, 0x00	; 0
    40d8:	61 d6       	rcall	.+3266   	; 0x4d9c <lora_driver_sendUploadMessage>
    40da:	0e 94 bb 28 	call	0x5176	; 0x5176 <lora_driver_mapReturnCodeToText>
    40de:	9f 93       	push	r25
    40e0:	8f 93       	push	r24
    40e2:	ff 92       	push	r15
    40e4:	ef 92       	push	r14
    40e6:	0e 94 0a 37 	call	0x6e14	; 0x6e14 <printf>
    40ea:	8d b7       	in	r24, 0x3d	; 61
    40ec:	9e b7       	in	r25, 0x3e	; 62
    40ee:	08 96       	adiw	r24, 0x08	; 8
    40f0:	0f b6       	in	r0, 0x3f	; 63
    40f2:	f8 94       	cli
    40f4:	9e bf       	out	0x3e, r25	; 62
    40f6:	0f be       	out	0x3f, r0	; 63
    40f8:	8d bf       	out	0x3d, r24	; 61
		}
		PORTA ^= _BV(PA3);
    40fa:	82 b1       	in	r24, 0x02	; 2
    40fc:	89 25       	eor	r24, r9
    40fe:	82 b9       	out	0x02, r24	; 2
		lora_handler_decodeUplink(_uplink_payload);
    4100:	ed b7       	in	r30, 0x3d	; 61
    4102:	fe b7       	in	r31, 0x3e	; 62
    4104:	76 97       	sbiw	r30, 0x16	; 22
    4106:	0f b6       	in	r0, 0x3f	; 63
    4108:	f8 94       	cli
    410a:	fe bf       	out	0x3e, r31	; 62
    410c:	0f be       	out	0x3f, r0	; 63
    410e:	ed bf       	out	0x3d, r30	; 61
    4110:	ad b7       	in	r26, 0x3d	; 61
    4112:	be b7       	in	r27, 0x3e	; 62
    4114:	11 96       	adiw	r26, 0x01	; 1
    4116:	86 e1       	ldi	r24, 0x16	; 22
    4118:	fe 01       	movw	r30, r28
    411a:	01 90       	ld	r0, Z+
    411c:	0d 92       	st	X+, r0
    411e:	8a 95       	dec	r24
    4120:	e1 f7       	brne	.-8      	; 0x411a <lora_handler_task+0x2ec>
    4122:	e2 dd       	rcall	.-1084   	; 0x3ce8 <lora_handler_decodeUplink>
		//wait 1 min
		vTaskDelay(pdMS_TO_TICKS(6000));
    4124:	64 e7       	ldi	r22, 0x74	; 116
    4126:	71 e0       	ldi	r23, 0x01	; 1
    4128:	80 e0       	ldi	r24, 0x00	; 0
    412a:	90 e0       	ldi	r25, 0x00	; 0
    412c:	0e 94 75 16 	call	0x2cea	; 0x2cea <vTaskDelay>
		//lora_handler_downlink();
	}
    4130:	8d b7       	in	r24, 0x3d	; 61
    4132:	9e b7       	in	r25, 0x3e	; 62
    4134:	46 96       	adiw	r24, 0x16	; 22
    4136:	0f b6       	in	r0, 0x3f	; 63
    4138:	f8 94       	cli
    413a:	9e bf       	out	0x3e, r25	; 62
    413c:	0f be       	out	0x3f, r0	; 63
    413e:	8d bf       	out	0x3d, r24	; 61
    4140:	3e cf       	rjmp	.-388    	; 0x3fbe <lora_handler_task+0x190>
	}
	else
	{
		// Something went wrong
		// Turn off the green led
		status_leds_ledOff(led_ST2); // OPTIONAL
    4142:	81 e0       	ldi	r24, 0x01	; 1
    4144:	0e 94 eb 30 	call	0x61d6	; 0x61d6 <status_leds_ledOff>
		// Make the red led blink fast to tell something went wrong
		status_leds_fastBlink(led_ST1); // OPTIONAL
    4148:	80 e0       	ldi	r24, 0x00	; 0
    414a:	0e 94 b9 30 	call	0x6172	; 0x6172 <status_leds_fastBlink>
    414e:	34 cf       	rjmp	.-408    	; 0x3fb8 <lora_handler_task+0x18a>

	if (rc == LORA_ACCEPTED)
	{
		// Connected to LoRaWAN :-)
		// Make the green led steady
		status_leds_ledOn(led_ST2); // OPTIONAL
    4150:	81 e0       	ldi	r24, 0x01	; 1
    4152:	0e 94 dc 30 	call	0x61b8	; 0x61b8 <status_leds_ledOn>

	//lora_driver_flushBuffers(); // get rid of first version string from module after reset!

	_lora_setup();

	_uplink_payload.len = 6;
    4156:	e9 e8       	ldi	r30, 0x89	; 137
    4158:	f3 e1       	ldi	r31, 0x13	; 19
    415a:	86 e0       	ldi	r24, 0x06	; 6
    415c:	81 83       	std	Z+1, r24	; 0x01
	_uplink_payload.portNo = 2;
    415e:	82 e0       	ldi	r24, 0x02	; 2
    4160:	80 83       	st	Z, r24
		
		int16_t temp = temperatureSensor_getValue(sensorModelManager_getTemperatureSensor());
		int16_t hum = humiditySensor_getValue(sensorModelManager_getHumiditySensor());
		int16_t co2_ppm = carbonDioxideSensor_getValue(sensorModelManager_getCarbonDioxideSensor());
		
		_uplink_payload.bytes[0] = temp >> 8;
    4162:	ef 01       	movw	r28, r30
		_uplink_payload.bytes[3] = hum & 0xFF;
		_uplink_payload.bytes[4] = co2_ppm >> 8;
		_uplink_payload.bytes[5] = co2_ppm & 0xFF;

		status_leds_shortPuls(led_ST4);  // OPTIONAL
		PORTA ^= _BV(PA3);
    4164:	68 94       	set
    4166:	99 24       	eor	r9, r9
    4168:	93 f8       	bld	r9, 3
		char *result = lora_driver_mapReturnCodeToText(lora_driver_sendUploadMessage(false, &_uplink_payload));
		printf("Upload Message >%s<\n", result);
    416a:	0f 2e       	mov	r0, r31
    416c:	fe e5       	ldi	r31, 0x5E	; 94
    416e:	ef 2e       	mov	r14, r31
    4170:	f5 e0       	ldi	r31, 0x05	; 5
    4172:	ff 2e       	mov	r15, r31
    4174:	f0 2d       	mov	r31, r0
		if (result=="MAC_RX"||result=="OK")
		{
			downlinkPayload.portNo = 1;
    4176:	0f 2e       	mov	r0, r31
    4178:	f3 e7       	ldi	r31, 0x73	; 115
    417a:	cf 2e       	mov	r12, r31
    417c:	f3 e1       	ldi	r31, 0x13	; 19
    417e:	df 2e       	mov	r13, r31
    4180:	f0 2d       	mov	r31, r0
    4182:	88 24       	eor	r8, r8
    4184:	83 94       	inc	r8
			downlinkPayload.len = 14;
    4186:	0f 2e       	mov	r0, r31
    4188:	fe e0       	ldi	r31, 0x0E	; 14
    418a:	5f 2e       	mov	r5, r31
    418c:	f0 2d       	mov	r31, r0
			xMessageBufferReceive(downLinkBufferHandle, &downlinkPayload, sizeof(lora_driver_payload_t), portMAX_DELAY);
			PORTA ^= _BV(PA3);
			printf("DOWN LINK: from port: %d with %d bytes received!", downlinkPayload.portNo, downlinkPayload.len); // Just for Debug
    418e:	0f 2e       	mov	r0, r31
    4190:	f8 ed       	ldi	r31, 0xD8	; 216
    4192:	6f 2e       	mov	r6, r31
    4194:	f3 e0       	ldi	r31, 0x03	; 3
    4196:	7f 2e       	mov	r7, r31
    4198:	f0 2d       	mov	r31, r0
			lora_driver_resetRn2483(1);
			vTaskDelay(2);
			lora_driver_resetRn2483(0);
			// Give it a chance to wakeup
			vTaskDelay(150);
			printf("Rejoin Network TriesLeft:>%s<\n", lora_driver_mapReturnCodeToText(lora_driver_join(LORA_OTAA)));
    419a:	0f 2e       	mov	r0, r31
    419c:	f4 e8       	ldi	r31, 0x84	; 132
    419e:	af 2e       	mov	r10, r31
    41a0:	f5 e0       	ldi	r31, 0x05	; 5
    41a2:	bf 2e       	mov	r11, r31
    41a4:	f0 2d       	mov	r31, r0
    41a6:	0b cf       	rjmp	.-490    	; 0x3fbe <lora_handler_task+0x190>

000041a8 <lora_handler_initialise>:
		//lora_handler_downlink();
	}
}

void lora_handler_initialise(MessageBufferHandle_t messageBufferHandle)
{
    41a8:	ef 92       	push	r14
    41aa:	ff 92       	push	r15
    41ac:	0f 93       	push	r16
	downLinkBufferHandle = messageBufferHandle;
    41ae:	90 93 72 13 	sts	0x1372, r25	; 0x801372 <downLinkBufferHandle+0x1>
    41b2:	80 93 71 13 	sts	0x1371, r24	; 0x801371 <downLinkBufferHandle>
	xTaskCreate(lora_handler_task,"LRHand",configMINIMAL_STACK_SIZE,(void*)1,tskIDLE_PRIORITY + 2,NULL);
    41b6:	e1 2c       	mov	r14, r1
    41b8:	f1 2c       	mov	r15, r1
    41ba:	02 e0       	ldi	r16, 0x02	; 2
    41bc:	21 e0       	ldi	r18, 0x01	; 1
    41be:	30 e0       	ldi	r19, 0x00	; 0
    41c0:	40 ec       	ldi	r20, 0xC0	; 192
    41c2:	50 e0       	ldi	r21, 0x00	; 0
    41c4:	63 ea       	ldi	r22, 0xA3	; 163
    41c6:	75 e0       	ldi	r23, 0x05	; 5
    41c8:	87 e1       	ldi	r24, 0x17	; 23
    41ca:	9f e1       	ldi	r25, 0x1F	; 31
    41cc:	0e 94 d9 12 	call	0x25b2	; 0x25b2 <xTaskCreate>
	//xTaskCreate(lora_handler_downlinkTask,"LRDownlink",configMINIMAL_STACK_SIZE,(void*)1,tskIDLE_PRIORITY + 2,NULL);
}
    41d0:	0f 91       	pop	r16
    41d2:	ff 90       	pop	r15
    41d4:	ef 90       	pop	r14
    41d6:	08 95       	ret

000041d8 <initialiseSystem>:
	// A3 for LoRaWAN
	// A4 means 7-segment Display is showing carbon dioxide
	// A5 means 7-segment Display is showing humidity
	// A6 means 7-segment Display is showing temperature
	// A7 means 7-segment Display is showing time(hh.mm)
	DDRA |= _BV(DDA0) | _BV(DDA1) | _BV(DDA2) | _BV(DDA3) | _BV(DDA4) | _BV(DDA5) | _BV(DDA6) | _BV(DDA7);
    41d8:	81 b1       	in	r24, 0x01	; 1
    41da:	8f ef       	ldi	r24, 0xFF	; 255
    41dc:	81 b9       	out	0x01, r24	; 1
	//Turn off all led
	PORTA ^= _BV(PA0);
    41de:	92 b1       	in	r25, 0x02	; 2
    41e0:	81 e0       	ldi	r24, 0x01	; 1
    41e2:	89 27       	eor	r24, r25
    41e4:	82 b9       	out	0x02, r24	; 2
	PORTA ^= _BV(PA1);
    41e6:	92 b1       	in	r25, 0x02	; 2
    41e8:	82 e0       	ldi	r24, 0x02	; 2
    41ea:	89 27       	eor	r24, r25
    41ec:	82 b9       	out	0x02, r24	; 2
	PORTA ^= _BV(PA2);
    41ee:	92 b1       	in	r25, 0x02	; 2
    41f0:	84 e0       	ldi	r24, 0x04	; 4
    41f2:	89 27       	eor	r24, r25
    41f4:	82 b9       	out	0x02, r24	; 2
	PORTA ^= _BV(PA3);
    41f6:	92 b1       	in	r25, 0x02	; 2
    41f8:	88 e0       	ldi	r24, 0x08	; 8
    41fa:	89 27       	eor	r24, r25
    41fc:	82 b9       	out	0x02, r24	; 2
	PORTA ^= _BV(PA4);
    41fe:	92 b1       	in	r25, 0x02	; 2
    4200:	80 e1       	ldi	r24, 0x10	; 16
    4202:	89 27       	eor	r24, r25
    4204:	82 b9       	out	0x02, r24	; 2
	PORTA ^= _BV(PA5);
    4206:	92 b1       	in	r25, 0x02	; 2
    4208:	80 e2       	ldi	r24, 0x20	; 32
    420a:	89 27       	eor	r24, r25
    420c:	82 b9       	out	0x02, r24	; 2
	PORTA ^= _BV(PA6);
    420e:	92 b1       	in	r25, 0x02	; 2
    4210:	80 e4       	ldi	r24, 0x40	; 64
    4212:	89 27       	eor	r24, r25
    4214:	82 b9       	out	0x02, r24	; 2
	PORTA ^= _BV(PA7);
    4216:	82 b1       	in	r24, 0x02	; 2
    4218:	80 58       	subi	r24, 0x80	; 128
    421a:	82 b9       	out	0x02, r24	; 2
	// Make it possible to use stdio on COM port 0 (USB) on Arduino board - Setting 57600,8,N,1
	stdio_initialise(ser_USART0);
    421c:	80 e0       	ldi	r24, 0x00	; 0
    421e:	0e 94 ba 2d 	call	0x5b74	; 0x5b74 <stdio_initialise>
    mh_z19_initialise(ser_USART3);
    4222:	83 e0       	ldi	r24, 0x03	; 3
    4224:	90 e0       	ldi	r25, 0x00	; 0
    4226:	0e 94 97 29 	call	0x532e	; 0x532e <mh_z19_initialise>
	
	if ( HIH8120_OK == hih8120_initialise() )
    422a:	5a d3       	rcall	.+1716   	; 0x48e0 <hih8120_initialise>
    422c:	81 11       	cpse	r24, r1
    422e:	08 c0       	rjmp	.+16     	; 0x4240 <initialiseSystem+0x68>
	{
		printf("temperature/humidity sensor init!");
    4230:	8a ea       	ldi	r24, 0xAA	; 170
    4232:	95 e0       	ldi	r25, 0x05	; 5
    4234:	9f 93       	push	r25
    4236:	8f 93       	push	r24
    4238:	0e 94 0a 37 	call	0x6e14	; 0x6e14 <printf>
    423c:	0f 90       	pop	r0
    423e:	0f 90       	pop	r0
	}
	//BufferSizeBytes can't bigger than 14? program will stuck if it is bigger than 14. Need size: 44(22*2)
	//downLinkMessageBufferHandle = xMessageBufferCreate(sizeof(lora_driver_payload_t)*2);
	lora_driver_initialise(ser_USART1, downLinkMessageBufferHandle);
    4240:	60 e0       	ldi	r22, 0x00	; 0
    4242:	70 e0       	ldi	r23, 0x00	; 0
    4244:	81 e0       	ldi	r24, 0x01	; 1
    4246:	cc c4       	rjmp	.+2456   	; 0x4be0 <lora_driver_initialise>
    4248:	08 95       	ret

0000424a <main>:
}

/*-----------------------------------------------------------*/
int main(void)
{
	initialiseSystem(); // Must be done as the very first thing!!
    424a:	c6 df       	rcall	.-116    	; 0x41d8 <initialiseSystem>
	printf("Program Started!!!\n");
    424c:	8c ec       	ldi	r24, 0xCC	; 204
    424e:	95 e0       	ldi	r25, 0x05	; 5
    4250:	0e 94 1d 37 	call	0x6e3a	; 0x6e3a <puts>
	sensorModelManager_create();	
    4254:	0e 94 a2 07 	call	0xf44	; 0xf44 <sensorModelManager_create>
	lora_handler_initialise(downLinkMessageBufferHandle);
    4258:	80 e0       	ldi	r24, 0x00	; 0
    425a:	90 e0       	ldi	r25, 0x00	; 0
    425c:	a5 df       	rcall	.-182    	; 0x41a8 <lora_handler_initialise>
	vTaskStartScheduler();
    425e:	0e 94 13 14 	call	0x2826	; 0x2826 <vTaskStartScheduler>
    4262:	ff cf       	rjmp	.-2      	; 0x4262 <main+0x18>

00004264 <__divsf3>:
    4264:	0c d0       	rcall	.+24     	; 0x427e <__divsf3x>
    4266:	eb c0       	rjmp	.+470    	; 0x443e <__fp_round>
    4268:	e3 d0       	rcall	.+454    	; 0x4430 <__fp_pscB>
    426a:	40 f0       	brcs	.+16     	; 0x427c <__divsf3+0x18>
    426c:	da d0       	rcall	.+436    	; 0x4422 <__fp_pscA>
    426e:	30 f0       	brcs	.+12     	; 0x427c <__divsf3+0x18>
    4270:	21 f4       	brne	.+8      	; 0x427a <__divsf3+0x16>
    4272:	5f 3f       	cpi	r21, 0xFF	; 255
    4274:	19 f0       	breq	.+6      	; 0x427c <__divsf3+0x18>
    4276:	cc c0       	rjmp	.+408    	; 0x4410 <__fp_inf>
    4278:	51 11       	cpse	r21, r1
    427a:	15 c1       	rjmp	.+554    	; 0x44a6 <__fp_szero>
    427c:	cf c0       	rjmp	.+414    	; 0x441c <__fp_nan>

0000427e <__divsf3x>:
    427e:	f0 d0       	rcall	.+480    	; 0x4460 <__fp_split3>
    4280:	98 f3       	brcs	.-26     	; 0x4268 <__divsf3+0x4>

00004282 <__divsf3_pse>:
    4282:	99 23       	and	r25, r25
    4284:	c9 f3       	breq	.-14     	; 0x4278 <__divsf3+0x14>
    4286:	55 23       	and	r21, r21
    4288:	b1 f3       	breq	.-20     	; 0x4276 <__divsf3+0x12>
    428a:	95 1b       	sub	r25, r21
    428c:	55 0b       	sbc	r21, r21
    428e:	bb 27       	eor	r27, r27
    4290:	aa 27       	eor	r26, r26
    4292:	62 17       	cp	r22, r18
    4294:	73 07       	cpc	r23, r19
    4296:	84 07       	cpc	r24, r20
    4298:	38 f0       	brcs	.+14     	; 0x42a8 <__divsf3_pse+0x26>
    429a:	9f 5f       	subi	r25, 0xFF	; 255
    429c:	5f 4f       	sbci	r21, 0xFF	; 255
    429e:	22 0f       	add	r18, r18
    42a0:	33 1f       	adc	r19, r19
    42a2:	44 1f       	adc	r20, r20
    42a4:	aa 1f       	adc	r26, r26
    42a6:	a9 f3       	breq	.-22     	; 0x4292 <__divsf3_pse+0x10>
    42a8:	33 d0       	rcall	.+102    	; 0x4310 <__divsf3_pse+0x8e>
    42aa:	0e 2e       	mov	r0, r30
    42ac:	3a f0       	brmi	.+14     	; 0x42bc <__divsf3_pse+0x3a>
    42ae:	e0 e8       	ldi	r30, 0x80	; 128
    42b0:	30 d0       	rcall	.+96     	; 0x4312 <__divsf3_pse+0x90>
    42b2:	91 50       	subi	r25, 0x01	; 1
    42b4:	50 40       	sbci	r21, 0x00	; 0
    42b6:	e6 95       	lsr	r30
    42b8:	00 1c       	adc	r0, r0
    42ba:	ca f7       	brpl	.-14     	; 0x42ae <__divsf3_pse+0x2c>
    42bc:	29 d0       	rcall	.+82     	; 0x4310 <__divsf3_pse+0x8e>
    42be:	fe 2f       	mov	r31, r30
    42c0:	27 d0       	rcall	.+78     	; 0x4310 <__divsf3_pse+0x8e>
    42c2:	66 0f       	add	r22, r22
    42c4:	77 1f       	adc	r23, r23
    42c6:	88 1f       	adc	r24, r24
    42c8:	bb 1f       	adc	r27, r27
    42ca:	26 17       	cp	r18, r22
    42cc:	37 07       	cpc	r19, r23
    42ce:	48 07       	cpc	r20, r24
    42d0:	ab 07       	cpc	r26, r27
    42d2:	b0 e8       	ldi	r27, 0x80	; 128
    42d4:	09 f0       	breq	.+2      	; 0x42d8 <__divsf3_pse+0x56>
    42d6:	bb 0b       	sbc	r27, r27
    42d8:	80 2d       	mov	r24, r0
    42da:	bf 01       	movw	r22, r30
    42dc:	ff 27       	eor	r31, r31
    42de:	93 58       	subi	r25, 0x83	; 131
    42e0:	5f 4f       	sbci	r21, 0xFF	; 255
    42e2:	2a f0       	brmi	.+10     	; 0x42ee <__divsf3_pse+0x6c>
    42e4:	9e 3f       	cpi	r25, 0xFE	; 254
    42e6:	51 05       	cpc	r21, r1
    42e8:	68 f0       	brcs	.+26     	; 0x4304 <__divsf3_pse+0x82>
    42ea:	92 c0       	rjmp	.+292    	; 0x4410 <__fp_inf>
    42ec:	dc c0       	rjmp	.+440    	; 0x44a6 <__fp_szero>
    42ee:	5f 3f       	cpi	r21, 0xFF	; 255
    42f0:	ec f3       	brlt	.-6      	; 0x42ec <__divsf3_pse+0x6a>
    42f2:	98 3e       	cpi	r25, 0xE8	; 232
    42f4:	dc f3       	brlt	.-10     	; 0x42ec <__divsf3_pse+0x6a>
    42f6:	86 95       	lsr	r24
    42f8:	77 95       	ror	r23
    42fa:	67 95       	ror	r22
    42fc:	b7 95       	ror	r27
    42fe:	f7 95       	ror	r31
    4300:	9f 5f       	subi	r25, 0xFF	; 255
    4302:	c9 f7       	brne	.-14     	; 0x42f6 <__divsf3_pse+0x74>
    4304:	88 0f       	add	r24, r24
    4306:	91 1d       	adc	r25, r1
    4308:	96 95       	lsr	r25
    430a:	87 95       	ror	r24
    430c:	97 f9       	bld	r25, 7
    430e:	08 95       	ret
    4310:	e1 e0       	ldi	r30, 0x01	; 1
    4312:	66 0f       	add	r22, r22
    4314:	77 1f       	adc	r23, r23
    4316:	88 1f       	adc	r24, r24
    4318:	bb 1f       	adc	r27, r27
    431a:	62 17       	cp	r22, r18
    431c:	73 07       	cpc	r23, r19
    431e:	84 07       	cpc	r24, r20
    4320:	ba 07       	cpc	r27, r26
    4322:	20 f0       	brcs	.+8      	; 0x432c <__divsf3_pse+0xaa>
    4324:	62 1b       	sub	r22, r18
    4326:	73 0b       	sbc	r23, r19
    4328:	84 0b       	sbc	r24, r20
    432a:	ba 0b       	sbc	r27, r26
    432c:	ee 1f       	adc	r30, r30
    432e:	88 f7       	brcc	.-30     	; 0x4312 <__divsf3_pse+0x90>
    4330:	e0 95       	com	r30
    4332:	08 95       	ret

00004334 <__fixsfsi>:
    4334:	04 d0       	rcall	.+8      	; 0x433e <__fixunssfsi>
    4336:	68 94       	set
    4338:	b1 11       	cpse	r27, r1
    433a:	b5 c0       	rjmp	.+362    	; 0x44a6 <__fp_szero>
    433c:	08 95       	ret

0000433e <__fixunssfsi>:
    433e:	98 d0       	rcall	.+304    	; 0x4470 <__fp_splitA>
    4340:	88 f0       	brcs	.+34     	; 0x4364 <__fixunssfsi+0x26>
    4342:	9f 57       	subi	r25, 0x7F	; 127
    4344:	90 f0       	brcs	.+36     	; 0x436a <__fixunssfsi+0x2c>
    4346:	b9 2f       	mov	r27, r25
    4348:	99 27       	eor	r25, r25
    434a:	b7 51       	subi	r27, 0x17	; 23
    434c:	a0 f0       	brcs	.+40     	; 0x4376 <__fixunssfsi+0x38>
    434e:	d1 f0       	breq	.+52     	; 0x4384 <__fixunssfsi+0x46>
    4350:	66 0f       	add	r22, r22
    4352:	77 1f       	adc	r23, r23
    4354:	88 1f       	adc	r24, r24
    4356:	99 1f       	adc	r25, r25
    4358:	1a f0       	brmi	.+6      	; 0x4360 <__fixunssfsi+0x22>
    435a:	ba 95       	dec	r27
    435c:	c9 f7       	brne	.-14     	; 0x4350 <__fixunssfsi+0x12>
    435e:	12 c0       	rjmp	.+36     	; 0x4384 <__fixunssfsi+0x46>
    4360:	b1 30       	cpi	r27, 0x01	; 1
    4362:	81 f0       	breq	.+32     	; 0x4384 <__fixunssfsi+0x46>
    4364:	9f d0       	rcall	.+318    	; 0x44a4 <__fp_zero>
    4366:	b1 e0       	ldi	r27, 0x01	; 1
    4368:	08 95       	ret
    436a:	9c c0       	rjmp	.+312    	; 0x44a4 <__fp_zero>
    436c:	67 2f       	mov	r22, r23
    436e:	78 2f       	mov	r23, r24
    4370:	88 27       	eor	r24, r24
    4372:	b8 5f       	subi	r27, 0xF8	; 248
    4374:	39 f0       	breq	.+14     	; 0x4384 <__fixunssfsi+0x46>
    4376:	b9 3f       	cpi	r27, 0xF9	; 249
    4378:	cc f3       	brlt	.-14     	; 0x436c <__fixunssfsi+0x2e>
    437a:	86 95       	lsr	r24
    437c:	77 95       	ror	r23
    437e:	67 95       	ror	r22
    4380:	b3 95       	inc	r27
    4382:	d9 f7       	brne	.-10     	; 0x437a <__fixunssfsi+0x3c>
    4384:	3e f4       	brtc	.+14     	; 0x4394 <__fixunssfsi+0x56>
    4386:	90 95       	com	r25
    4388:	80 95       	com	r24
    438a:	70 95       	com	r23
    438c:	61 95       	neg	r22
    438e:	7f 4f       	sbci	r23, 0xFF	; 255
    4390:	8f 4f       	sbci	r24, 0xFF	; 255
    4392:	9f 4f       	sbci	r25, 0xFF	; 255
    4394:	08 95       	ret

00004396 <__floatunsisf>:
    4396:	e8 94       	clt
    4398:	09 c0       	rjmp	.+18     	; 0x43ac <__floatsisf+0x12>

0000439a <__floatsisf>:
    439a:	97 fb       	bst	r25, 7
    439c:	3e f4       	brtc	.+14     	; 0x43ac <__floatsisf+0x12>
    439e:	90 95       	com	r25
    43a0:	80 95       	com	r24
    43a2:	70 95       	com	r23
    43a4:	61 95       	neg	r22
    43a6:	7f 4f       	sbci	r23, 0xFF	; 255
    43a8:	8f 4f       	sbci	r24, 0xFF	; 255
    43aa:	9f 4f       	sbci	r25, 0xFF	; 255
    43ac:	99 23       	and	r25, r25
    43ae:	a9 f0       	breq	.+42     	; 0x43da <__floatsisf+0x40>
    43b0:	f9 2f       	mov	r31, r25
    43b2:	96 e9       	ldi	r25, 0x96	; 150
    43b4:	bb 27       	eor	r27, r27
    43b6:	93 95       	inc	r25
    43b8:	f6 95       	lsr	r31
    43ba:	87 95       	ror	r24
    43bc:	77 95       	ror	r23
    43be:	67 95       	ror	r22
    43c0:	b7 95       	ror	r27
    43c2:	f1 11       	cpse	r31, r1
    43c4:	f8 cf       	rjmp	.-16     	; 0x43b6 <__floatsisf+0x1c>
    43c6:	fa f4       	brpl	.+62     	; 0x4406 <__floatsisf+0x6c>
    43c8:	bb 0f       	add	r27, r27
    43ca:	11 f4       	brne	.+4      	; 0x43d0 <__floatsisf+0x36>
    43cc:	60 ff       	sbrs	r22, 0
    43ce:	1b c0       	rjmp	.+54     	; 0x4406 <__floatsisf+0x6c>
    43d0:	6f 5f       	subi	r22, 0xFF	; 255
    43d2:	7f 4f       	sbci	r23, 0xFF	; 255
    43d4:	8f 4f       	sbci	r24, 0xFF	; 255
    43d6:	9f 4f       	sbci	r25, 0xFF	; 255
    43d8:	16 c0       	rjmp	.+44     	; 0x4406 <__floatsisf+0x6c>
    43da:	88 23       	and	r24, r24
    43dc:	11 f0       	breq	.+4      	; 0x43e2 <__floatsisf+0x48>
    43de:	96 e9       	ldi	r25, 0x96	; 150
    43e0:	11 c0       	rjmp	.+34     	; 0x4404 <__floatsisf+0x6a>
    43e2:	77 23       	and	r23, r23
    43e4:	21 f0       	breq	.+8      	; 0x43ee <__floatsisf+0x54>
    43e6:	9e e8       	ldi	r25, 0x8E	; 142
    43e8:	87 2f       	mov	r24, r23
    43ea:	76 2f       	mov	r23, r22
    43ec:	05 c0       	rjmp	.+10     	; 0x43f8 <__floatsisf+0x5e>
    43ee:	66 23       	and	r22, r22
    43f0:	71 f0       	breq	.+28     	; 0x440e <__floatsisf+0x74>
    43f2:	96 e8       	ldi	r25, 0x86	; 134
    43f4:	86 2f       	mov	r24, r22
    43f6:	70 e0       	ldi	r23, 0x00	; 0
    43f8:	60 e0       	ldi	r22, 0x00	; 0
    43fa:	2a f0       	brmi	.+10     	; 0x4406 <__floatsisf+0x6c>
    43fc:	9a 95       	dec	r25
    43fe:	66 0f       	add	r22, r22
    4400:	77 1f       	adc	r23, r23
    4402:	88 1f       	adc	r24, r24
    4404:	da f7       	brpl	.-10     	; 0x43fc <__floatsisf+0x62>
    4406:	88 0f       	add	r24, r24
    4408:	96 95       	lsr	r25
    440a:	87 95       	ror	r24
    440c:	97 f9       	bld	r25, 7
    440e:	08 95       	ret

00004410 <__fp_inf>:
    4410:	97 f9       	bld	r25, 7
    4412:	9f 67       	ori	r25, 0x7F	; 127
    4414:	80 e8       	ldi	r24, 0x80	; 128
    4416:	70 e0       	ldi	r23, 0x00	; 0
    4418:	60 e0       	ldi	r22, 0x00	; 0
    441a:	08 95       	ret

0000441c <__fp_nan>:
    441c:	9f ef       	ldi	r25, 0xFF	; 255
    441e:	80 ec       	ldi	r24, 0xC0	; 192
    4420:	08 95       	ret

00004422 <__fp_pscA>:
    4422:	00 24       	eor	r0, r0
    4424:	0a 94       	dec	r0
    4426:	16 16       	cp	r1, r22
    4428:	17 06       	cpc	r1, r23
    442a:	18 06       	cpc	r1, r24
    442c:	09 06       	cpc	r0, r25
    442e:	08 95       	ret

00004430 <__fp_pscB>:
    4430:	00 24       	eor	r0, r0
    4432:	0a 94       	dec	r0
    4434:	12 16       	cp	r1, r18
    4436:	13 06       	cpc	r1, r19
    4438:	14 06       	cpc	r1, r20
    443a:	05 06       	cpc	r0, r21
    443c:	08 95       	ret

0000443e <__fp_round>:
    443e:	09 2e       	mov	r0, r25
    4440:	03 94       	inc	r0
    4442:	00 0c       	add	r0, r0
    4444:	11 f4       	brne	.+4      	; 0x444a <__fp_round+0xc>
    4446:	88 23       	and	r24, r24
    4448:	52 f0       	brmi	.+20     	; 0x445e <__fp_round+0x20>
    444a:	bb 0f       	add	r27, r27
    444c:	40 f4       	brcc	.+16     	; 0x445e <__fp_round+0x20>
    444e:	bf 2b       	or	r27, r31
    4450:	11 f4       	brne	.+4      	; 0x4456 <__fp_round+0x18>
    4452:	60 ff       	sbrs	r22, 0
    4454:	04 c0       	rjmp	.+8      	; 0x445e <__fp_round+0x20>
    4456:	6f 5f       	subi	r22, 0xFF	; 255
    4458:	7f 4f       	sbci	r23, 0xFF	; 255
    445a:	8f 4f       	sbci	r24, 0xFF	; 255
    445c:	9f 4f       	sbci	r25, 0xFF	; 255
    445e:	08 95       	ret

00004460 <__fp_split3>:
    4460:	57 fd       	sbrc	r21, 7
    4462:	90 58       	subi	r25, 0x80	; 128
    4464:	44 0f       	add	r20, r20
    4466:	55 1f       	adc	r21, r21
    4468:	59 f0       	breq	.+22     	; 0x4480 <__fp_splitA+0x10>
    446a:	5f 3f       	cpi	r21, 0xFF	; 255
    446c:	71 f0       	breq	.+28     	; 0x448a <__fp_splitA+0x1a>
    446e:	47 95       	ror	r20

00004470 <__fp_splitA>:
    4470:	88 0f       	add	r24, r24
    4472:	97 fb       	bst	r25, 7
    4474:	99 1f       	adc	r25, r25
    4476:	61 f0       	breq	.+24     	; 0x4490 <__fp_splitA+0x20>
    4478:	9f 3f       	cpi	r25, 0xFF	; 255
    447a:	79 f0       	breq	.+30     	; 0x449a <__fp_splitA+0x2a>
    447c:	87 95       	ror	r24
    447e:	08 95       	ret
    4480:	12 16       	cp	r1, r18
    4482:	13 06       	cpc	r1, r19
    4484:	14 06       	cpc	r1, r20
    4486:	55 1f       	adc	r21, r21
    4488:	f2 cf       	rjmp	.-28     	; 0x446e <__fp_split3+0xe>
    448a:	46 95       	lsr	r20
    448c:	f1 df       	rcall	.-30     	; 0x4470 <__fp_splitA>
    448e:	08 c0       	rjmp	.+16     	; 0x44a0 <__fp_splitA+0x30>
    4490:	16 16       	cp	r1, r22
    4492:	17 06       	cpc	r1, r23
    4494:	18 06       	cpc	r1, r24
    4496:	99 1f       	adc	r25, r25
    4498:	f1 cf       	rjmp	.-30     	; 0x447c <__fp_splitA+0xc>
    449a:	86 95       	lsr	r24
    449c:	71 05       	cpc	r23, r1
    449e:	61 05       	cpc	r22, r1
    44a0:	08 94       	sec
    44a2:	08 95       	ret

000044a4 <__fp_zero>:
    44a4:	e8 94       	clt

000044a6 <__fp_szero>:
    44a6:	bb 27       	eor	r27, r27
    44a8:	66 27       	eor	r22, r22
    44aa:	77 27       	eor	r23, r23
    44ac:	cb 01       	movw	r24, r22
    44ae:	97 f9       	bld	r25, 7
    44b0:	08 95       	ret

000044b2 <__mulsf3>:
    44b2:	0b d0       	rcall	.+22     	; 0x44ca <__mulsf3x>
    44b4:	c4 cf       	rjmp	.-120    	; 0x443e <__fp_round>
    44b6:	b5 df       	rcall	.-150    	; 0x4422 <__fp_pscA>
    44b8:	28 f0       	brcs	.+10     	; 0x44c4 <__mulsf3+0x12>
    44ba:	ba df       	rcall	.-140    	; 0x4430 <__fp_pscB>
    44bc:	18 f0       	brcs	.+6      	; 0x44c4 <__mulsf3+0x12>
    44be:	95 23       	and	r25, r21
    44c0:	09 f0       	breq	.+2      	; 0x44c4 <__mulsf3+0x12>
    44c2:	a6 cf       	rjmp	.-180    	; 0x4410 <__fp_inf>
    44c4:	ab cf       	rjmp	.-170    	; 0x441c <__fp_nan>
    44c6:	11 24       	eor	r1, r1
    44c8:	ee cf       	rjmp	.-36     	; 0x44a6 <__fp_szero>

000044ca <__mulsf3x>:
    44ca:	ca df       	rcall	.-108    	; 0x4460 <__fp_split3>
    44cc:	a0 f3       	brcs	.-24     	; 0x44b6 <__mulsf3+0x4>

000044ce <__mulsf3_pse>:
    44ce:	95 9f       	mul	r25, r21
    44d0:	d1 f3       	breq	.-12     	; 0x44c6 <__mulsf3+0x14>
    44d2:	95 0f       	add	r25, r21
    44d4:	50 e0       	ldi	r21, 0x00	; 0
    44d6:	55 1f       	adc	r21, r21
    44d8:	62 9f       	mul	r22, r18
    44da:	f0 01       	movw	r30, r0
    44dc:	72 9f       	mul	r23, r18
    44de:	bb 27       	eor	r27, r27
    44e0:	f0 0d       	add	r31, r0
    44e2:	b1 1d       	adc	r27, r1
    44e4:	63 9f       	mul	r22, r19
    44e6:	aa 27       	eor	r26, r26
    44e8:	f0 0d       	add	r31, r0
    44ea:	b1 1d       	adc	r27, r1
    44ec:	aa 1f       	adc	r26, r26
    44ee:	64 9f       	mul	r22, r20
    44f0:	66 27       	eor	r22, r22
    44f2:	b0 0d       	add	r27, r0
    44f4:	a1 1d       	adc	r26, r1
    44f6:	66 1f       	adc	r22, r22
    44f8:	82 9f       	mul	r24, r18
    44fa:	22 27       	eor	r18, r18
    44fc:	b0 0d       	add	r27, r0
    44fe:	a1 1d       	adc	r26, r1
    4500:	62 1f       	adc	r22, r18
    4502:	73 9f       	mul	r23, r19
    4504:	b0 0d       	add	r27, r0
    4506:	a1 1d       	adc	r26, r1
    4508:	62 1f       	adc	r22, r18
    450a:	83 9f       	mul	r24, r19
    450c:	a0 0d       	add	r26, r0
    450e:	61 1d       	adc	r22, r1
    4510:	22 1f       	adc	r18, r18
    4512:	74 9f       	mul	r23, r20
    4514:	33 27       	eor	r19, r19
    4516:	a0 0d       	add	r26, r0
    4518:	61 1d       	adc	r22, r1
    451a:	23 1f       	adc	r18, r19
    451c:	84 9f       	mul	r24, r20
    451e:	60 0d       	add	r22, r0
    4520:	21 1d       	adc	r18, r1
    4522:	82 2f       	mov	r24, r18
    4524:	76 2f       	mov	r23, r22
    4526:	6a 2f       	mov	r22, r26
    4528:	11 24       	eor	r1, r1
    452a:	9f 57       	subi	r25, 0x7F	; 127
    452c:	50 40       	sbci	r21, 0x00	; 0
    452e:	8a f0       	brmi	.+34     	; 0x4552 <__mulsf3_pse+0x84>
    4530:	e1 f0       	breq	.+56     	; 0x456a <__mulsf3_pse+0x9c>
    4532:	88 23       	and	r24, r24
    4534:	4a f0       	brmi	.+18     	; 0x4548 <__mulsf3_pse+0x7a>
    4536:	ee 0f       	add	r30, r30
    4538:	ff 1f       	adc	r31, r31
    453a:	bb 1f       	adc	r27, r27
    453c:	66 1f       	adc	r22, r22
    453e:	77 1f       	adc	r23, r23
    4540:	88 1f       	adc	r24, r24
    4542:	91 50       	subi	r25, 0x01	; 1
    4544:	50 40       	sbci	r21, 0x00	; 0
    4546:	a9 f7       	brne	.-22     	; 0x4532 <__mulsf3_pse+0x64>
    4548:	9e 3f       	cpi	r25, 0xFE	; 254
    454a:	51 05       	cpc	r21, r1
    454c:	70 f0       	brcs	.+28     	; 0x456a <__mulsf3_pse+0x9c>
    454e:	60 cf       	rjmp	.-320    	; 0x4410 <__fp_inf>
    4550:	aa cf       	rjmp	.-172    	; 0x44a6 <__fp_szero>
    4552:	5f 3f       	cpi	r21, 0xFF	; 255
    4554:	ec f3       	brlt	.-6      	; 0x4550 <__mulsf3_pse+0x82>
    4556:	98 3e       	cpi	r25, 0xE8	; 232
    4558:	dc f3       	brlt	.-10     	; 0x4550 <__mulsf3_pse+0x82>
    455a:	86 95       	lsr	r24
    455c:	77 95       	ror	r23
    455e:	67 95       	ror	r22
    4560:	b7 95       	ror	r27
    4562:	f7 95       	ror	r31
    4564:	e7 95       	ror	r30
    4566:	9f 5f       	subi	r25, 0xFF	; 255
    4568:	c1 f7       	brne	.-16     	; 0x455a <__mulsf3_pse+0x8c>
    456a:	fe 2b       	or	r31, r30
    456c:	88 0f       	add	r24, r24
    456e:	91 1d       	adc	r25, r1
    4570:	96 95       	lsr	r25
    4572:	87 95       	ror	r24
    4574:	97 f9       	bld	r25, 7
    4576:	08 95       	ret

00004578 <_spiCallBack>:
    4578:	81 b3       	in	r24, 0x11	; 17
    457a:	8f 60       	ori	r24, 0x0F	; 15
    457c:	81 bb       	out	0x11, r24	; 17
    457e:	28 98       	cbi	0x05, 0	; 5
    4580:	28 9a       	sbi	0x05, 0	; 5
    4582:	21 b3       	in	r18, 0x11	; 17
    4584:	81 e0       	ldi	r24, 0x01	; 1
    4586:	90 e0       	ldi	r25, 0x00	; 0
    4588:	00 90 33 14 	lds	r0, 0x1433	; 0x801433 <_digitNo>
    458c:	02 c0       	rjmp	.+4      	; 0x4592 <_spiCallBack+0x1a>
    458e:	88 0f       	add	r24, r24
    4590:	99 1f       	adc	r25, r25
    4592:	0a 94       	dec	r0
    4594:	e2 f7       	brpl	.-8      	; 0x458e <_spiCallBack+0x16>
    4596:	80 95       	com	r24
    4598:	82 23       	and	r24, r18
    459a:	81 bb       	out	0x11, r24	; 17
    459c:	e0 91 03 14 	lds	r30, 0x1403	; 0x801403 <_displayDoneCallBack>
    45a0:	f0 91 04 14 	lds	r31, 0x1404	; 0x801404 <_displayDoneCallBack+0x1>
    45a4:	30 97       	sbiw	r30, 0x00	; 0
    45a6:	09 f0       	breq	.+2      	; 0x45aa <_spiCallBack+0x32>
    45a8:	19 95       	eicall
    45aa:	08 95       	ret

000045ac <display_7seg_displayErr>:
    45ac:	9f b7       	in	r25, 0x3f	; 63
    45ae:	f8 94       	cli
    45b0:	ef e2       	ldi	r30, 0x2F	; 47
    45b2:	f4 e1       	ldi	r31, 0x14	; 20
    45b4:	10 82       	st	Z, r1
    45b6:	8e e9       	ldi	r24, 0x9E	; 158
    45b8:	81 83       	std	Z+1, r24	; 0x01
    45ba:	8a e0       	ldi	r24, 0x0A	; 10
    45bc:	82 83       	std	Z+2, r24	; 0x02
    45be:	83 83       	std	Z+3, r24	; 0x03
    45c0:	9f bf       	out	0x3f, r25	; 63
    45c2:	08 95       	ret

000045c4 <display_7seg_display>:
    45c4:	bf 92       	push	r11
    45c6:	cf 92       	push	r12
    45c8:	df 92       	push	r13
    45ca:	ef 92       	push	r14
    45cc:	ff 92       	push	r15
    45ce:	0f 93       	push	r16
    45d0:	1f 93       	push	r17
    45d2:	cf 93       	push	r28
    45d4:	df 93       	push	r29
    45d6:	6b 01       	movw	r12, r22
    45d8:	7c 01       	movw	r14, r24
    45da:	b4 2e       	mov	r11, r20
    45dc:	10 92 06 14 	sts	0x1406, r1	; 0x801406 <_maxHexSegmentindex>
    45e0:	83 e0       	ldi	r24, 0x03	; 3
    45e2:	84 17       	cp	r24, r20
    45e4:	80 f1       	brcs	.+96     	; 0x4646 <display_7seg_display+0x82>
    45e6:	64 2f       	mov	r22, r20
    45e8:	70 e0       	ldi	r23, 0x00	; 0
    45ea:	80 e0       	ldi	r24, 0x00	; 0
    45ec:	90 e0       	ldi	r25, 0x00	; 0
    45ee:	d3 de       	rcall	.-602    	; 0x4396 <__floatunsisf>
    45f0:	9b 01       	movw	r18, r22
    45f2:	ac 01       	movw	r20, r24
    45f4:	60 e0       	ldi	r22, 0x00	; 0
    45f6:	70 e0       	ldi	r23, 0x00	; 0
    45f8:	80 e2       	ldi	r24, 0x20	; 32
    45fa:	91 e4       	ldi	r25, 0x41	; 65
    45fc:	0e 94 99 33 	call	0x6732	; 0x6732 <pow>
    4600:	a7 01       	movw	r20, r14
    4602:	96 01       	movw	r18, r12
    4604:	56 df       	rcall	.-340    	; 0x44b2 <__mulsf3>
    4606:	20 e0       	ldi	r18, 0x00	; 0
    4608:	30 e0       	ldi	r19, 0x00	; 0
    460a:	40 e0       	ldi	r20, 0x00	; 0
    460c:	5f e3       	ldi	r21, 0x3F	; 63
    460e:	0e 94 d9 32 	call	0x65b2	; 0x65b2 <__addsf3>
    4612:	0e 94 44 33 	call	0x6688	; 0x6688 <floor>
    4616:	8e de       	rcall	.-740    	; 0x4334 <__fixsfsi>
    4618:	ab 01       	movw	r20, r22
    461a:	77 23       	and	r23, r23
    461c:	64 f4       	brge	.+24     	; 0x4636 <display_7seg_display+0x72>
    461e:	44 27       	eor	r20, r20
    4620:	55 27       	eor	r21, r21
    4622:	46 1b       	sub	r20, r22
    4624:	57 0b       	sbc	r21, r23
    4626:	21 e0       	ldi	r18, 0x01	; 1
    4628:	48 3e       	cpi	r20, 0xE8	; 232
    462a:	83 e0       	ldi	r24, 0x03	; 3
    462c:	58 07       	cpc	r21, r24
    462e:	0c f4       	brge	.+2      	; 0x4632 <display_7seg_display+0x6e>
    4630:	20 e0       	ldi	r18, 0x00	; 0
    4632:	11 e0       	ldi	r17, 0x01	; 1
    4634:	0c c0       	rjmp	.+24     	; 0x464e <display_7seg_display+0x8a>
    4636:	21 e0       	ldi	r18, 0x01	; 1
    4638:	40 31       	cpi	r20, 0x10	; 16
    463a:	87 e2       	ldi	r24, 0x27	; 39
    463c:	58 07       	cpc	r21, r24
    463e:	0c f4       	brge	.+2      	; 0x4642 <display_7seg_display+0x7e>
    4640:	20 e0       	ldi	r18, 0x00	; 0
    4642:	10 e0       	ldi	r17, 0x00	; 0
    4644:	04 c0       	rjmp	.+8      	; 0x464e <display_7seg_display+0x8a>
    4646:	40 e0       	ldi	r20, 0x00	; 0
    4648:	50 e0       	ldi	r21, 0x00	; 0
    464a:	21 e0       	ldi	r18, 0x01	; 1
    464c:	10 e0       	ldi	r17, 0x00	; 0
    464e:	0f b7       	in	r16, 0x3f	; 63
    4650:	f8 94       	cli
    4652:	22 23       	and	r18, r18
    4654:	11 f0       	breq	.+4      	; 0x465a <display_7seg_display+0x96>
    4656:	aa df       	rcall	.-172    	; 0x45ac <display_7seg_displayErr>
    4658:	51 c0       	rjmp	.+162    	; 0x46fc <display_7seg_display+0x138>
    465a:	c3 e3       	ldi	r28, 0x33	; 51
    465c:	d4 e1       	ldi	r29, 0x14	; 20
    465e:	0f 2e       	mov	r0, r31
    4660:	ff e2       	ldi	r31, 0x2F	; 47
    4662:	cf 2e       	mov	r12, r31
    4664:	f4 e1       	ldi	r31, 0x14	; 20
    4666:	df 2e       	mov	r13, r31
    4668:	f0 2d       	mov	r31, r0
    466a:	0f 2e       	mov	r0, r31
    466c:	fa e0       	ldi	r31, 0x0A	; 10
    466e:	ef 2e       	mov	r14, r31
    4670:	f1 2c       	mov	r15, r1
    4672:	f0 2d       	mov	r31, r0
    4674:	ca 01       	movw	r24, r20
    4676:	b7 01       	movw	r22, r14
    4678:	0e 94 02 35 	call	0x6a04	; 0x6a04 <__divmodhi4>
    467c:	fc 01       	movw	r30, r24
    467e:	e1 52       	subi	r30, 0x21	; 33
    4680:	fa 4f       	sbci	r31, 0xFA	; 250
    4682:	80 81       	ld	r24, Z
    4684:	8a 93       	st	-Y, r24
    4686:	46 2f       	mov	r20, r22
    4688:	57 2f       	mov	r21, r23
    468a:	cc 15       	cp	r28, r12
    468c:	dd 05       	cpc	r29, r13
    468e:	91 f7       	brne	.-28     	; 0x4674 <display_7seg_display+0xb0>
    4690:	43 e0       	ldi	r20, 0x03	; 3
    4692:	50 e0       	ldi	r21, 0x00	; 0
    4694:	4b 19       	sub	r20, r11
    4696:	51 09       	sbc	r21, r1
    4698:	14 16       	cp	r1, r20
    469a:	15 06       	cpc	r1, r21
    469c:	f4 f4       	brge	.+60     	; 0x46da <display_7seg_display+0x116>
    469e:	80 91 2f 14 	lds	r24, 0x142F	; 0x80142f <_digitSegments>
    46a2:	8c 3f       	cpi	r24, 0xFC	; 252
    46a4:	49 f0       	breq	.+18     	; 0x46b8 <display_7seg_display+0xf4>
    46a6:	60 e0       	ldi	r22, 0x00	; 0
    46a8:	19 c0       	rjmp	.+50     	; 0x46dc <display_7seg_display+0x118>
    46aa:	fc 01       	movw	r30, r24
    46ac:	e1 5d       	subi	r30, 0xD1	; 209
    46ae:	fb 4e       	sbci	r31, 0xEB	; 235
    46b0:	30 81       	ld	r19, Z
    46b2:	3c 3f       	cpi	r19, 0xFC	; 252
    46b4:	21 f0       	breq	.+8      	; 0x46be <display_7seg_display+0xfa>
    46b6:	12 c0       	rjmp	.+36     	; 0x46dc <display_7seg_display+0x118>
    46b8:	80 e0       	ldi	r24, 0x00	; 0
    46ba:	90 e0       	ldi	r25, 0x00	; 0
    46bc:	20 e0       	ldi	r18, 0x00	; 0
    46be:	fc 01       	movw	r30, r24
    46c0:	e1 5d       	subi	r30, 0xD1	; 209
    46c2:	fb 4e       	sbci	r31, 0xEB	; 235
    46c4:	10 82       	st	Z, r1
    46c6:	62 2f       	mov	r22, r18
    46c8:	2f 5f       	subi	r18, 0xFF	; 255
    46ca:	82 2f       	mov	r24, r18
    46cc:	02 2e       	mov	r0, r18
    46ce:	00 0c       	add	r0, r0
    46d0:	99 0b       	sbc	r25, r25
    46d2:	84 17       	cp	r24, r20
    46d4:	95 07       	cpc	r25, r21
    46d6:	4c f3       	brlt	.-46     	; 0x46aa <display_7seg_display+0xe6>
    46d8:	01 c0       	rjmp	.+2      	; 0x46dc <display_7seg_display+0x118>
    46da:	60 e0       	ldi	r22, 0x00	; 0
    46dc:	11 23       	and	r17, r17
    46de:	31 f0       	breq	.+12     	; 0x46ec <display_7seg_display+0x128>
    46e0:	e6 2f       	mov	r30, r22
    46e2:	f0 e0       	ldi	r31, 0x00	; 0
    46e4:	e1 5d       	subi	r30, 0xD1	; 209
    46e6:	fb 4e       	sbci	r31, 0xEB	; 235
    46e8:	82 e0       	ldi	r24, 0x02	; 2
    46ea:	80 83       	st	Z, r24
    46ec:	bb 20       	and	r11, r11
    46ee:	31 f0       	breq	.+12     	; 0x46fc <display_7seg_display+0x138>
    46f0:	fa 01       	movw	r30, r20
    46f2:	e1 5d       	subi	r30, 0xD1	; 209
    46f4:	fb 4e       	sbci	r31, 0xEB	; 235
    46f6:	80 81       	ld	r24, Z
    46f8:	81 60       	ori	r24, 0x01	; 1
    46fa:	80 83       	st	Z, r24
    46fc:	0f bf       	out	0x3f, r16	; 63
    46fe:	df 91       	pop	r29
    4700:	cf 91       	pop	r28
    4702:	1f 91       	pop	r17
    4704:	0f 91       	pop	r16
    4706:	ff 90       	pop	r15
    4708:	ef 90       	pop	r14
    470a:	df 90       	pop	r13
    470c:	cf 90       	pop	r12
    470e:	bf 90       	pop	r11
    4710:	08 95       	ret

00004712 <display_7seg_powerUp>:
    4712:	85 b5       	in	r24, 0x25	; 37
    4714:	85 60       	ori	r24, 0x05	; 5
    4716:	85 bd       	out	0x25, r24	; 37
    4718:	08 95       	ret

0000471a <display_7seg_powerDown>:
    471a:	85 b5       	in	r24, 0x25	; 37
    471c:	88 7f       	andi	r24, 0xF8	; 248
    471e:	85 bd       	out	0x25, r24	; 37
    4720:	81 b3       	in	r24, 0x11	; 17
    4722:	8f 60       	ori	r24, 0x0F	; 15
    4724:	81 bb       	out	0x11, r24	; 17
    4726:	08 95       	ret

00004728 <display_7seg_initialise>:
    4728:	8f 92       	push	r8
    472a:	af 92       	push	r10
    472c:	cf 92       	push	r12
    472e:	ef 92       	push	r14
    4730:	0f 93       	push	r16
    4732:	1f 93       	push	r17
    4734:	cf 93       	push	r28
    4736:	df 93       	push	r29
    4738:	ec 01       	movw	r28, r24
    473a:	80 b3       	in	r24, 0x10	; 16
    473c:	8f 60       	ori	r24, 0x0F	; 15
    473e:	80 bb       	out	0x10, r24	; 16
    4740:	81 b3       	in	r24, 0x11	; 17
    4742:	8f 60       	ori	r24, 0x0F	; 15
    4744:	81 bb       	out	0x11, r24	; 17
    4746:	20 9a       	sbi	0x04, 0	; 4
    4748:	8c eb       	ldi	r24, 0xBC	; 188
    474a:	92 e2       	ldi	r25, 0x22	; 34
    474c:	9f 93       	push	r25
    474e:	8f 93       	push	r24
    4750:	81 2c       	mov	r8, r1
    4752:	a1 2c       	mov	r10, r1
    4754:	c1 2c       	mov	r12, r1
    4756:	e1 2c       	mov	r14, r1
    4758:	00 e0       	ldi	r16, 0x00	; 0
    475a:	10 e0       	ldi	r17, 0x00	; 0
    475c:	20 e2       	ldi	r18, 0x20	; 32
    475e:	40 e0       	ldi	r20, 0x00	; 0
    4760:	63 e0       	ldi	r22, 0x03	; 3
    4762:	80 e1       	ldi	r24, 0x10	; 16
    4764:	0e 94 1c 2e 	call	0x5c38	; 0x5c38 <spi_create>
    4768:	90 93 35 14 	sts	0x1435, r25	; 0x801435 <_spi+0x1>
    476c:	80 93 34 14 	sts	0x1434, r24	; 0x801434 <_spi>
    4770:	89 e1       	ldi	r24, 0x19	; 25
    4772:	87 bd       	out	0x27, r24	; 39
    4774:	84 b5       	in	r24, 0x24	; 36
    4776:	82 60       	ori	r24, 0x02	; 2
    4778:	84 bd       	out	0x24, r24	; 36
    477a:	ee e6       	ldi	r30, 0x6E	; 110
    477c:	f0 e0       	ldi	r31, 0x00	; 0
    477e:	80 81       	ld	r24, Z
    4780:	82 60       	ori	r24, 0x02	; 2
    4782:	80 83       	st	Z, r24
    4784:	ca df       	rcall	.-108    	; 0x471a <display_7seg_powerDown>
    4786:	d0 93 04 14 	sts	0x1404, r29	; 0x801404 <_displayDoneCallBack+0x1>
    478a:	c0 93 03 14 	sts	0x1403, r28	; 0x801403 <_displayDoneCallBack>
    478e:	0f 90       	pop	r0
    4790:	0f 90       	pop	r0
    4792:	df 91       	pop	r29
    4794:	cf 91       	pop	r28
    4796:	1f 91       	pop	r17
    4798:	0f 91       	pop	r16
    479a:	ef 90       	pop	r14
    479c:	cf 90       	pop	r12
    479e:	af 90       	pop	r10
    47a0:	8f 90       	pop	r8
    47a2:	08 95       	ret

000047a4 <__vector_21>:
    47a4:	1f 92       	push	r1
    47a6:	0f 92       	push	r0
    47a8:	0f b6       	in	r0, 0x3f	; 63
    47aa:	0f 92       	push	r0
    47ac:	11 24       	eor	r1, r1
    47ae:	0b b6       	in	r0, 0x3b	; 59
    47b0:	0f 92       	push	r0
    47b2:	2f 93       	push	r18
    47b4:	3f 93       	push	r19
    47b6:	4f 93       	push	r20
    47b8:	5f 93       	push	r21
    47ba:	6f 93       	push	r22
    47bc:	7f 93       	push	r23
    47be:	8f 93       	push	r24
    47c0:	9f 93       	push	r25
    47c2:	af 93       	push	r26
    47c4:	bf 93       	push	r27
    47c6:	ef 93       	push	r30
    47c8:	ff 93       	push	r31
    47ca:	80 91 06 14 	lds	r24, 0x1406	; 0x801406 <_maxHexSegmentindex>
    47ce:	88 23       	and	r24, r24
    47d0:	69 f1       	breq	.+90     	; 0x482c <__vector_21+0x88>
    47d2:	20 91 07 14 	lds	r18, 0x1407	; 0x801407 <_intCounter>
    47d6:	30 91 08 14 	lds	r19, 0x1408	; 0x801408 <_intCounter+0x1>
    47da:	25 3f       	cpi	r18, 0xF5	; 245
    47dc:	91 e0       	ldi	r25, 0x01	; 1
    47de:	39 07       	cpc	r19, r25
    47e0:	38 f4       	brcc	.+14     	; 0x47f0 <__vector_21+0x4c>
    47e2:	2f 5f       	subi	r18, 0xFF	; 255
    47e4:	3f 4f       	sbci	r19, 0xFF	; 255
    47e6:	30 93 08 14 	sts	0x1408, r19	; 0x801408 <_intCounter+0x1>
    47ea:	20 93 07 14 	sts	0x1407, r18	; 0x801407 <_intCounter>
    47ee:	1e c0       	rjmp	.+60     	; 0x482c <__vector_21+0x88>
    47f0:	10 92 08 14 	sts	0x1408, r1	; 0x801408 <_intCounter+0x1>
    47f4:	10 92 07 14 	sts	0x1407, r1	; 0x801407 <_intCounter>
    47f8:	e0 91 05 14 	lds	r30, 0x1405	; 0x801405 <_scrollIndex>
    47fc:	2e 2f       	mov	r18, r30
    47fe:	30 e0       	ldi	r19, 0x00	; 0
    4800:	90 e0       	ldi	r25, 0x00	; 0
    4802:	04 97       	sbiw	r24, 0x04	; 4
    4804:	28 17       	cp	r18, r24
    4806:	39 07       	cpc	r19, r25
    4808:	14 f4       	brge	.+4      	; 0x480e <__vector_21+0x6a>
    480a:	ef 5f       	subi	r30, 0xFF	; 255
    480c:	01 c0       	rjmp	.+2      	; 0x4810 <__vector_21+0x6c>
    480e:	e0 e0       	ldi	r30, 0x00	; 0
    4810:	e0 93 05 14 	sts	0x1405, r30	; 0x801405 <_scrollIndex>
    4814:	f0 e0       	ldi	r31, 0x00	; 0
    4816:	e7 5f       	subi	r30, 0xF7	; 247
    4818:	fb 4e       	sbci	r31, 0xEB	; 235
    481a:	af e2       	ldi	r26, 0x2F	; 47
    481c:	b4 e1       	ldi	r27, 0x14	; 20
    481e:	23 e3       	ldi	r18, 0x33	; 51
    4820:	34 e1       	ldi	r19, 0x14	; 20
    4822:	81 91       	ld	r24, Z+
    4824:	8d 93       	st	X+, r24
    4826:	a2 17       	cp	r26, r18
    4828:	b3 07       	cpc	r27, r19
    482a:	d9 f7       	brne	.-10     	; 0x4822 <__vector_21+0x7e>
    482c:	80 91 33 14 	lds	r24, 0x1433	; 0x801433 <_digitNo>
    4830:	90 e0       	ldi	r25, 0x00	; 0
    4832:	01 96       	adiw	r24, 0x01	; 1
    4834:	83 70       	andi	r24, 0x03	; 3
    4836:	90 78       	andi	r25, 0x80	; 128
    4838:	99 23       	and	r25, r25
    483a:	24 f4       	brge	.+8      	; 0x4844 <__vector_21+0xa0>
    483c:	01 97       	sbiw	r24, 0x01	; 1
    483e:	8c 6f       	ori	r24, 0xFC	; 252
    4840:	9f 6f       	ori	r25, 0xFF	; 255
    4842:	01 96       	adiw	r24, 0x01	; 1
    4844:	80 93 33 14 	sts	0x1433, r24	; 0x801433 <_digitNo>
    4848:	99 27       	eor	r25, r25
    484a:	fc 01       	movw	r30, r24
    484c:	e1 5d       	subi	r30, 0xD1	; 209
    484e:	fb 4e       	sbci	r31, 0xEB	; 235
    4850:	60 81       	ld	r22, Z
    4852:	60 95       	com	r22
    4854:	80 91 34 14 	lds	r24, 0x1434	; 0x801434 <_spi>
    4858:	90 91 35 14 	lds	r25, 0x1435	; 0x801435 <_spi+0x1>
    485c:	0e 94 ee 2e 	call	0x5ddc	; 0x5ddc <spi_sendByte>
    4860:	ff 91       	pop	r31
    4862:	ef 91       	pop	r30
    4864:	bf 91       	pop	r27
    4866:	af 91       	pop	r26
    4868:	9f 91       	pop	r25
    486a:	8f 91       	pop	r24
    486c:	7f 91       	pop	r23
    486e:	6f 91       	pop	r22
    4870:	5f 91       	pop	r21
    4872:	4f 91       	pop	r20
    4874:	3f 91       	pop	r19
    4876:	2f 91       	pop	r18
    4878:	0f 90       	pop	r0
    487a:	0b be       	out	0x3b, r0	; 59
    487c:	0f 90       	pop	r0
    487e:	0f be       	out	0x3f, r0	; 63
    4880:	0f 90       	pop	r0
    4882:	1f 90       	pop	r1
    4884:	18 95       	reti

00004886 <_hihTwiCallback>:
    4886:	65 30       	cpi	r22, 0x05	; 5
    4888:	f1 f4       	brne	.+60     	; 0x48c6 <_hihTwiCallback+0x40>
    488a:	fa 01       	movw	r30, r20
    488c:	80 81       	ld	r24, Z
    488e:	8f 73       	andi	r24, 0x3F	; 63
    4890:	90 e0       	ldi	r25, 0x00	; 0
    4892:	98 2f       	mov	r25, r24
    4894:	88 27       	eor	r24, r24
    4896:	21 81       	ldd	r18, Z+1	; 0x01
    4898:	82 2b       	or	r24, r18
    489a:	90 93 0a 02 	sts	0x020A, r25	; 0x80020a <_hum+0x1>
    489e:	80 93 09 02 	sts	0x0209, r24	; 0x800209 <_hum>
    48a2:	82 81       	ldd	r24, Z+2	; 0x02
    48a4:	f0 e4       	ldi	r31, 0x40	; 64
    48a6:	8f 9f       	mul	r24, r31
    48a8:	c0 01       	movw	r24, r0
    48aa:	11 24       	eor	r1, r1
    48ac:	fa 01       	movw	r30, r20
    48ae:	23 81       	ldd	r18, Z+3	; 0x03
    48b0:	26 95       	lsr	r18
    48b2:	26 95       	lsr	r18
    48b4:	82 2b       	or	r24, r18
    48b6:	90 93 08 02 	sts	0x0208, r25	; 0x800208 <_temp+0x1>
    48ba:	80 93 07 02 	sts	0x0207, r24	; 0x800207 <_temp>
    48be:	81 e0       	ldi	r24, 0x01	; 1
    48c0:	80 93 36 14 	sts	0x1436, r24	; 0x801436 <_measuringIsReady>
    48c4:	08 95       	ret
    48c6:	64 30       	cpi	r22, 0x04	; 4
    48c8:	51 f0       	breq	.+20     	; 0x48de <_hihTwiCallback+0x58>
    48ca:	80 e0       	ldi	r24, 0x00	; 0
    48cc:	90 e4       	ldi	r25, 0x40	; 64
    48ce:	90 93 08 02 	sts	0x0208, r25	; 0x800208 <_temp+0x1>
    48d2:	80 93 07 02 	sts	0x0207, r24	; 0x800207 <_temp>
    48d6:	90 93 0a 02 	sts	0x020A, r25	; 0x80020a <_hum+0x1>
    48da:	80 93 09 02 	sts	0x0209, r24	; 0x800209 <_hum>
    48de:	08 95       	ret

000048e0 <hih8120_initialise>:
    48e0:	0f 93       	push	r16
    48e2:	1f 93       	push	r17
    48e4:	03 e4       	ldi	r16, 0x43	; 67
    48e6:	14 e2       	ldi	r17, 0x24	; 36
    48e8:	20 e0       	ldi	r18, 0x00	; 0
    48ea:	34 e2       	ldi	r19, 0x24	; 36
    48ec:	44 ef       	ldi	r20, 0xF4	; 244
    48ee:	50 e0       	ldi	r21, 0x00	; 0
    48f0:	60 e0       	ldi	r22, 0x00	; 0
    48f2:	87 e2       	ldi	r24, 0x27	; 39
    48f4:	0e 94 2f 31 	call	0x625e	; 0x625e <twiCreate>
    48f8:	90 93 38 14 	sts	0x1438, r25	; 0x801438 <_hih8120Handler+0x1>
    48fc:	80 93 37 14 	sts	0x1437, r24	; 0x801437 <_hih8120Handler>
    4900:	21 e0       	ldi	r18, 0x01	; 1
    4902:	89 2b       	or	r24, r25
    4904:	09 f0       	breq	.+2      	; 0x4908 <hih8120_initialise+0x28>
    4906:	20 e0       	ldi	r18, 0x00	; 0
    4908:	82 2f       	mov	r24, r18
    490a:	1f 91       	pop	r17
    490c:	0f 91       	pop	r16
    490e:	08 95       	ret

00004910 <hih8120_wakeup>:
    4910:	80 91 37 14 	lds	r24, 0x1437	; 0x801437 <_hih8120Handler>
    4914:	90 91 38 14 	lds	r25, 0x1438	; 0x801438 <_hih8120Handler+0x1>
    4918:	00 97       	sbiw	r24, 0x00	; 0
    491a:	59 f0       	breq	.+22     	; 0x4932 <hih8120_wakeup+0x22>
    491c:	40 e0       	ldi	r20, 0x00	; 0
    491e:	60 e0       	ldi	r22, 0x00	; 0
    4920:	70 e0       	ldi	r23, 0x00	; 0
    4922:	0e 94 80 31 	call	0x6300	; 0x6300 <twiTransmit>
    4926:	84 30       	cpi	r24, 0x04	; 4
    4928:	31 f4       	brne	.+12     	; 0x4936 <hih8120_wakeup+0x26>
    492a:	10 92 36 14 	sts	0x1436, r1	; 0x801436 <_measuringIsReady>
    492e:	80 e0       	ldi	r24, 0x00	; 0
    4930:	08 95       	ret
    4932:	82 e0       	ldi	r24, 0x02	; 2
    4934:	08 95       	ret
    4936:	83 e0       	ldi	r24, 0x03	; 3
    4938:	08 95       	ret

0000493a <hih8120_measure>:
    493a:	80 91 37 14 	lds	r24, 0x1437	; 0x801437 <_hih8120Handler>
    493e:	90 91 38 14 	lds	r25, 0x1438	; 0x801438 <_hih8120Handler+0x1>
    4942:	00 97       	sbiw	r24, 0x00	; 0
    4944:	39 f0       	breq	.+14     	; 0x4954 <hih8120_measure+0x1a>
    4946:	64 e0       	ldi	r22, 0x04	; 4
    4948:	0e 94 cc 31 	call	0x6398	; 0x6398 <twiReceive>
    494c:	85 30       	cpi	r24, 0x05	; 5
    494e:	21 f0       	breq	.+8      	; 0x4958 <hih8120_measure+0x1e>
    4950:	83 e0       	ldi	r24, 0x03	; 3
    4952:	08 95       	ret
    4954:	82 e0       	ldi	r24, 0x02	; 2
    4956:	08 95       	ret
    4958:	80 e0       	ldi	r24, 0x00	; 0
    495a:	08 95       	ret

0000495c <hih8120_getHumidity>:
    495c:	60 91 09 02 	lds	r22, 0x0209	; 0x800209 <_hum>
    4960:	70 91 0a 02 	lds	r23, 0x020A	; 0x80020a <_hum+0x1>
    4964:	80 e0       	ldi	r24, 0x00	; 0
    4966:	90 e0       	ldi	r25, 0x00	; 0
    4968:	16 dd       	rcall	.-1492   	; 0x4396 <__floatunsisf>
    496a:	20 e0       	ldi	r18, 0x00	; 0
    496c:	30 e0       	ldi	r19, 0x00	; 0
    496e:	48 ec       	ldi	r20, 0xC8	; 200
    4970:	52 e4       	ldi	r21, 0x42	; 66
    4972:	9f dd       	rcall	.-1218   	; 0x44b2 <__mulsf3>
    4974:	20 e0       	ldi	r18, 0x00	; 0
    4976:	38 ef       	ldi	r19, 0xF8	; 248
    4978:	4f e7       	ldi	r20, 0x7F	; 127
    497a:	56 e4       	ldi	r21, 0x46	; 70
    497c:	73 cc       	rjmp	.-1818   	; 0x4264 <__divsf3>
    497e:	08 95       	ret

00004980 <hih8120_getTemperature>:
    4980:	60 91 07 02 	lds	r22, 0x0207	; 0x800207 <_temp>
    4984:	70 91 08 02 	lds	r23, 0x0208	; 0x800208 <_temp+0x1>
    4988:	80 e0       	ldi	r24, 0x00	; 0
    498a:	90 e0       	ldi	r25, 0x00	; 0
    498c:	04 dd       	rcall	.-1528   	; 0x4396 <__floatunsisf>
    498e:	20 e0       	ldi	r18, 0x00	; 0
    4990:	30 e0       	ldi	r19, 0x00	; 0
    4992:	45 e2       	ldi	r20, 0x25	; 37
    4994:	53 e4       	ldi	r21, 0x43	; 67
    4996:	8d dd       	rcall	.-1254   	; 0x44b2 <__mulsf3>
    4998:	20 e0       	ldi	r18, 0x00	; 0
    499a:	38 ef       	ldi	r19, 0xF8	; 248
    499c:	4f e7       	ldi	r20, 0x7F	; 127
    499e:	56 e4       	ldi	r21, 0x46	; 70
    49a0:	61 dc       	rcall	.-1854   	; 0x4264 <__divsf3>
    49a2:	20 e0       	ldi	r18, 0x00	; 0
    49a4:	30 e0       	ldi	r19, 0x00	; 0
    49a6:	40 e2       	ldi	r20, 0x20	; 32
    49a8:	52 e4       	ldi	r21, 0x42	; 66
    49aa:	0c 94 d8 32 	jmp	0x65b0	; 0x65b0 <__subsf3>
    49ae:	08 95       	ret

000049b0 <_serialCallBack>:
    49b0:	0f 93       	push	r16
    49b2:	1f 93       	push	r17
    49b4:	cf 93       	push	r28
    49b6:	df 93       	push	r29
    49b8:	1f 92       	push	r1
    49ba:	1f 92       	push	r1
    49bc:	cd b7       	in	r28, 0x3d	; 61
    49be:	de b7       	in	r29, 0x3e	; 62
    49c0:	8c 01       	movw	r16, r24
    49c2:	19 82       	std	Y+1, r1	; 0x01
    49c4:	2d c0       	rjmp	.+90     	; 0x4a20 <_serialCallBack+0x70>
    49c6:	e0 91 9d 14 	lds	r30, 0x149D	; 0x80149d <rec_buf_inp.2878>
    49ca:	ec 32       	cpi	r30, 0x2C	; 44
    49cc:	50 f4       	brcc	.+20     	; 0x49e2 <_serialCallBack+0x32>
    49ce:	81 e0       	ldi	r24, 0x01	; 1
    49d0:	8e 0f       	add	r24, r30
    49d2:	80 93 9d 14 	sts	0x149D, r24	; 0x80149d <rec_buf_inp.2878>
    49d6:	f0 e0       	ldi	r31, 0x00	; 0
    49d8:	e1 53       	subi	r30, 0x31	; 49
    49da:	fb 4e       	sbci	r31, 0xEB	; 235
    49dc:	8a 81       	ldd	r24, Y+2	; 0x02
    49de:	80 83       	st	Z, r24
    49e0:	02 c0       	rjmp	.+4      	; 0x49e6 <_serialCallBack+0x36>
    49e2:	10 92 9d 14 	sts	0x149D, r1	; 0x80149d <rec_buf_inp.2878>
    49e6:	8a 81       	ldd	r24, Y+2	; 0x02
    49e8:	8a 30       	cpi	r24, 0x0A	; 10
    49ea:	d1 f4       	brne	.+52     	; 0x4a20 <_serialCallBack+0x70>
    49ec:	40 91 9d 14 	lds	r20, 0x149D	; 0x80149d <rec_buf_inp.2878>
    49f0:	50 e0       	ldi	r21, 0x00	; 0
    49f2:	fa 01       	movw	r30, r20
    49f4:	e3 53       	subi	r30, 0x33	; 51
    49f6:	fb 4e       	sbci	r31, 0xEB	; 235
    49f8:	10 82       	st	Z, r1
    49fa:	41 50       	subi	r20, 0x01	; 1
    49fc:	51 09       	sbc	r21, r1
    49fe:	9e 01       	movw	r18, r28
    4a00:	2f 5f       	subi	r18, 0xFF	; 255
    4a02:	3f 4f       	sbci	r19, 0xFF	; 255
    4a04:	6f ec       	ldi	r22, 0xCF	; 207
    4a06:	74 e1       	ldi	r23, 0x14	; 20
    4a08:	80 91 a0 14 	lds	r24, 0x14A0	; 0x8014a0 <_serialReplyBufferHandle>
    4a0c:	90 91 a1 14 	lds	r25, 0x14A1	; 0x8014a1 <_serialReplyBufferHandle+0x1>
    4a10:	0e 94 21 11 	call	0x2242	; 0x2242 <xStreamBufferSendFromISR>
    4a14:	89 81       	ldd	r24, Y+1	; 0x01
    4a16:	81 11       	cpse	r24, r1
    4a18:	0e 94 9a 0a 	call	0x1534	; 0x1534 <vPortYield>
    4a1c:	10 92 9d 14 	sts	0x149D, r1	; 0x80149d <rec_buf_inp.2878>
    4a20:	be 01       	movw	r22, r28
    4a22:	6e 5f       	subi	r22, 0xFE	; 254
    4a24:	7f 4f       	sbci	r23, 0xFF	; 255
    4a26:	c8 01       	movw	r24, r16
    4a28:	0f d6       	rcall	.+3102   	; 0x5648 <serial_getByte>
    4a2a:	88 23       	and	r24, r24
    4a2c:	61 f2       	breq	.-104    	; 0x49c6 <_serialCallBack+0x16>
    4a2e:	0f 90       	pop	r0
    4a30:	0f 90       	pop	r0
    4a32:	df 91       	pop	r29
    4a34:	cf 91       	pop	r28
    4a36:	1f 91       	pop	r17
    4a38:	0f 91       	pop	r16
    4a3a:	08 95       	ret

00004a3c <_uploadMessage>:
    4a3c:	0f 93       	push	r16
    4a3e:	1f 93       	push	r17
    4a40:	cf 93       	push	r28
    4a42:	df 93       	push	r29
    4a44:	8c 01       	movw	r16, r24
    4a46:	eb 01       	movw	r28, r22
    4a48:	80 91 a0 14 	lds	r24, 0x14A0	; 0x8014a0 <_serialReplyBufferHandle>
    4a4c:	90 91 a1 14 	lds	r25, 0x14A1	; 0x8014a1 <_serialReplyBufferHandle+0x1>
    4a50:	0e 94 17 10 	call	0x202e	; 0x202e <xStreamBufferReset>
    4a54:	b8 01       	movw	r22, r16
    4a56:	89 e3       	ldi	r24, 0x39	; 57
    4a58:	94 e1       	ldi	r25, 0x14	; 20
    4a5a:	0e 94 eb 36 	call	0x6dd6	; 0x6dd6 <strcpy>
    4a5e:	20 97       	sbiw	r28, 0x00	; 0
    4a60:	79 f0       	breq	.+30     	; 0x4a80 <_uploadMessage+0x44>
    4a62:	e9 e3       	ldi	r30, 0x39	; 57
    4a64:	f4 e1       	ldi	r31, 0x14	; 20
    4a66:	01 90       	ld	r0, Z+
    4a68:	00 20       	and	r0, r0
    4a6a:	e9 f7       	brne	.-6      	; 0x4a66 <_uploadMessage+0x2a>
    4a6c:	31 97       	sbiw	r30, 0x01	; 1
    4a6e:	80 e2       	ldi	r24, 0x20	; 32
    4a70:	90 e0       	ldi	r25, 0x00	; 0
    4a72:	91 83       	std	Z+1, r25	; 0x01
    4a74:	80 83       	st	Z, r24
    4a76:	be 01       	movw	r22, r28
    4a78:	89 e3       	ldi	r24, 0x39	; 57
    4a7a:	94 e1       	ldi	r25, 0x14	; 20
    4a7c:	0e 94 e0 36 	call	0x6dc0	; 0x6dc0 <strcat>
    4a80:	e9 e3       	ldi	r30, 0x39	; 57
    4a82:	f4 e1       	ldi	r31, 0x14	; 20
    4a84:	df 01       	movw	r26, r30
    4a86:	0d 90       	ld	r0, X+
    4a88:	00 20       	and	r0, r0
    4a8a:	e9 f7       	brne	.-6      	; 0x4a86 <_uploadMessage+0x4a>
    4a8c:	11 97       	sbiw	r26, 0x01	; 1
    4a8e:	8d e0       	ldi	r24, 0x0D	; 13
    4a90:	9a e0       	ldi	r25, 0x0A	; 10
    4a92:	11 96       	adiw	r26, 0x01	; 1
    4a94:	9c 93       	st	X, r25
    4a96:	8e 93       	st	-X, r24
    4a98:	12 96       	adiw	r26, 0x02	; 2
    4a9a:	1c 92       	st	X, r1
    4a9c:	01 90       	ld	r0, Z+
    4a9e:	00 20       	and	r0, r0
    4aa0:	e9 f7       	brne	.-6      	; 0x4a9c <_uploadMessage+0x60>
    4aa2:	31 97       	sbiw	r30, 0x01	; 1
    4aa4:	e9 53       	subi	r30, 0x39	; 57
    4aa6:	f4 41       	sbci	r31, 0x14	; 20
    4aa8:	ae 2f       	mov	r26, r30
    4aaa:	89 e3       	ldi	r24, 0x39	; 57
    4aac:	94 e1       	ldi	r25, 0x14	; 20
    4aae:	ac 01       	movw	r20, r24
    4ab0:	6a 2f       	mov	r22, r26
    4ab2:	80 91 a2 14 	lds	r24, 0x14A2	; 0x8014a2 <_rn2483_serial>
    4ab6:	90 91 a3 14 	lds	r25, 0x14A3	; 0x8014a3 <_rn2483_serial+0x1>
    4aba:	71 d5       	rcall	.+2786   	; 0x559e <serial_sendBytes>
    4abc:	81 11       	cpse	r24, r1
    4abe:	11 c0       	rjmp	.+34     	; 0x4ae2 <_uploadMessage+0xa6>
    4ac0:	08 e2       	ldi	r16, 0x28	; 40
    4ac2:	15 e0       	ldi	r17, 0x05	; 5
    4ac4:	20 e0       	ldi	r18, 0x00	; 0
    4ac6:	30 e0       	ldi	r19, 0x00	; 0
    4ac8:	4d e2       	ldi	r20, 0x2D	; 45
    4aca:	50 e0       	ldi	r21, 0x00	; 0
    4acc:	69 e2       	ldi	r22, 0x29	; 41
    4ace:	75 e1       	ldi	r23, 0x15	; 21
    4ad0:	80 91 a0 14 	lds	r24, 0x14A0	; 0x8014a0 <_serialReplyBufferHandle>
    4ad4:	90 91 a1 14 	lds	r25, 0x14A1	; 0x8014a1 <_serialReplyBufferHandle+0x1>
    4ad8:	0e 94 65 11 	call	0x22ca	; 0x22ca <xStreamBufferReceive>
    4adc:	89 e2       	ldi	r24, 0x29	; 41
    4ade:	95 e1       	ldi	r25, 0x15	; 21
    4ae0:	02 c0       	rjmp	.+4      	; 0x4ae6 <_uploadMessage+0xaa>
    4ae2:	80 e0       	ldi	r24, 0x00	; 0
    4ae4:	90 e0       	ldi	r25, 0x00	; 0
    4ae6:	df 91       	pop	r29
    4ae8:	cf 91       	pop	r28
    4aea:	1f 91       	pop	r17
    4aec:	0f 91       	pop	r16
    4aee:	08 95       	ret

00004af0 <_reply2ReturnCode>:
    4af0:	2f 92       	push	r2
    4af2:	3f 92       	push	r3
    4af4:	4f 92       	push	r4
    4af6:	5f 92       	push	r5
    4af8:	6f 92       	push	r6
    4afa:	7f 92       	push	r7
    4afc:	8f 92       	push	r8
    4afe:	9f 92       	push	r9
    4b00:	af 92       	push	r10
    4b02:	bf 92       	push	r11
    4b04:	cf 92       	push	r12
    4b06:	df 92       	push	r13
    4b08:	ef 92       	push	r14
    4b0a:	ff 92       	push	r15
    4b0c:	0f 93       	push	r16
    4b0e:	1f 93       	push	r17
    4b10:	cf 93       	push	r28
    4b12:	df 93       	push	r29
    4b14:	5c 01       	movw	r10, r24
    4b16:	fc 01       	movw	r30, r24
    4b18:	01 90       	ld	r0, Z+
    4b1a:	00 20       	and	r0, r0
    4b1c:	e9 f7       	brne	.-6      	; 0x4b18 <_reply2ReturnCode+0x28>
    4b1e:	31 97       	sbiw	r30, 0x01	; 1
    4b20:	6f 01       	movw	r12, r30
    4b22:	c8 1a       	sub	r12, r24
    4b24:	d9 0a       	sbc	r13, r25
    4b26:	5c 2c       	mov	r5, r12
    4b28:	0f 2e       	mov	r0, r31
    4b2a:	f7 e7       	ldi	r31, 0x77	; 119
    4b2c:	8f 2e       	mov	r8, r31
    4b2e:	f8 e0       	ldi	r31, 0x08	; 8
    4b30:	9f 2e       	mov	r9, r31
    4b32:	f0 2d       	mov	r31, r0
    4b34:	e1 2c       	mov	r14, r1
    4b36:	f1 2c       	mov	r15, r1
    4b38:	4c 2c       	mov	r4, r12
    4b3a:	37 01       	movw	r6, r14
    4b3c:	f4 01       	movw	r30, r8
    4b3e:	01 81       	ldd	r16, Z+1	; 0x01
    4b40:	12 81       	ldd	r17, Z+2	; 0x02
    4b42:	e8 01       	movw	r28, r16
    4b44:	09 90       	ld	r0, Y+
    4b46:	00 20       	and	r0, r0
    4b48:	e9 f7       	brne	.-6      	; 0x4b44 <_reply2ReturnCode+0x54>
    4b4a:	21 97       	sbiw	r28, 0x01	; 1
    4b4c:	c0 1b       	sub	r28, r16
    4b4e:	d1 0b       	sbc	r29, r17
    4b50:	3c 2e       	mov	r3, r28
    4b52:	f9 e0       	ldi	r31, 0x09	; 9
    4b54:	cf 16       	cp	r12, r31
    4b56:	d1 04       	cpc	r13, r1
    4b58:	58 f0       	brcs	.+22     	; 0x4b70 <_reply2ReturnCode+0x80>
    4b5a:	f4 01       	movw	r30, r8
    4b5c:	20 80       	ld	r2, Z
    4b5e:	fe e0       	ldi	r31, 0x0E	; 14
    4b60:	2f 12       	cpse	r2, r31
    4b62:	06 c0       	rjmp	.+12     	; 0x4b70 <_reply2ReturnCode+0x80>
    4b64:	b8 01       	movw	r22, r16
    4b66:	c5 01       	movw	r24, r10
    4b68:	0e 94 bb 36 	call	0x6d76	; 0x6d76 <strcasestr>
    4b6c:	89 2b       	or	r24, r25
    4b6e:	09 f5       	brne	.+66     	; 0x4bb2 <_reply2ReturnCode+0xc2>
    4b70:	44 2d       	mov	r20, r4
    4b72:	35 14       	cp	r3, r5
    4b74:	08 f4       	brcc	.+2      	; 0x4b78 <_reply2ReturnCode+0x88>
    4b76:	4c 2f       	mov	r20, r28
    4b78:	50 e0       	ldi	r21, 0x00	; 0
    4b7a:	b8 01       	movw	r22, r16
    4b7c:	c5 01       	movw	r24, r10
    4b7e:	0e 94 f2 36 	call	0x6de4	; 0x6de4 <strncasecmp>
    4b82:	89 2b       	or	r24, r25
    4b84:	49 f4       	brne	.+18     	; 0x4b98 <_reply2ReturnCode+0xa8>
    4b86:	f3 01       	movw	r30, r6
    4b88:	ee 0f       	add	r30, r30
    4b8a:	ff 1f       	adc	r31, r31
    4b8c:	e6 0d       	add	r30, r6
    4b8e:	f7 1d       	adc	r31, r7
    4b90:	e9 58       	subi	r30, 0x89	; 137
    4b92:	f7 4f       	sbci	r31, 0xF7	; 247
    4b94:	20 80       	ld	r2, Z
    4b96:	0d c0       	rjmp	.+26     	; 0x4bb2 <_reply2ReturnCode+0xc2>
    4b98:	8f ef       	ldi	r24, 0xFF	; 255
    4b9a:	e8 1a       	sub	r14, r24
    4b9c:	f8 0a       	sbc	r15, r24
    4b9e:	e3 e0       	ldi	r30, 0x03	; 3
    4ba0:	8e 0e       	add	r8, r30
    4ba2:	91 1c       	adc	r9, r1
    4ba4:	f1 e1       	ldi	r31, 0x11	; 17
    4ba6:	ef 16       	cp	r14, r31
    4ba8:	f1 04       	cpc	r15, r1
    4baa:	39 f6       	brne	.-114    	; 0x4b3a <_reply2ReturnCode+0x4a>
    4bac:	68 94       	set
    4bae:	22 24       	eor	r2, r2
    4bb0:	24 f8       	bld	r2, 4
    4bb2:	82 2d       	mov	r24, r2
    4bb4:	df 91       	pop	r29
    4bb6:	cf 91       	pop	r28
    4bb8:	1f 91       	pop	r17
    4bba:	0f 91       	pop	r16
    4bbc:	ff 90       	pop	r15
    4bbe:	ef 90       	pop	r14
    4bc0:	df 90       	pop	r13
    4bc2:	cf 90       	pop	r12
    4bc4:	bf 90       	pop	r11
    4bc6:	af 90       	pop	r10
    4bc8:	9f 90       	pop	r9
    4bca:	8f 90       	pop	r8
    4bcc:	7f 90       	pop	r7
    4bce:	6f 90       	pop	r6
    4bd0:	5f 90       	pop	r5
    4bd2:	4f 90       	pop	r4
    4bd4:	3f 90       	pop	r3
    4bd6:	2f 90       	pop	r2
    4bd8:	08 95       	ret

00004bda <_uploadMessageRc>:
    4bda:	30 df       	rcall	.-416    	; 0x4a3c <_uploadMessage>
    4bdc:	89 cf       	rjmp	.-238    	; 0x4af0 <_reply2ReturnCode>
    4bde:	08 95       	ret

00004be0 <lora_driver_initialise>:
    4be0:	8f 92       	push	r8
    4be2:	9f 92       	push	r9
    4be4:	af 92       	push	r10
    4be6:	cf 92       	push	r12
    4be8:	ef 92       	push	r14
    4bea:	0f 93       	push	r16
    4bec:	1f 93       	push	r17
    4bee:	cf 93       	push	r28
    4bf0:	c8 2f       	mov	r28, r24
    4bf2:	8b 01       	movw	r16, r22
    4bf4:	41 e0       	ldi	r20, 0x01	; 1
    4bf6:	60 e0       	ldi	r22, 0x00	; 0
    4bf8:	70 e0       	ldi	r23, 0x00	; 0
    4bfa:	88 ec       	ldi	r24, 0xC8	; 200
    4bfc:	90 e0       	ldi	r25, 0x00	; 0
    4bfe:	0e 94 e2 0f 	call	0x1fc4	; 0x1fc4 <xStreamBufferGenericCreate>
    4c02:	90 93 a1 14 	sts	0x14A1, r25	; 0x8014a1 <_serialReplyBufferHandle+0x1>
    4c06:	80 93 a0 14 	sts	0x14A0, r24	; 0x8014a0 <_serialReplyBufferHandle>
    4c0a:	10 93 9f 14 	sts	0x149F, r17	; 0x80149f <_downlinkMessageBuffer+0x1>
    4c0e:	00 93 9e 14 	sts	0x149E, r16	; 0x80149e <_downlinkMessageBuffer>
    4c12:	0f 2e       	mov	r0, r31
    4c14:	f8 ed       	ldi	r31, 0xD8	; 216
    4c16:	8f 2e       	mov	r8, r31
    4c18:	f4 e2       	ldi	r31, 0x24	; 36
    4c1a:	9f 2e       	mov	r9, r31
    4c1c:	f0 2d       	mov	r31, r0
    4c1e:	68 94       	set
    4c20:	aa 24       	eor	r10, r10
    4c22:	a6 f8       	bld	r10, 6
    4c24:	68 94       	set
    4c26:	cc 24       	eor	r12, r12
    4c28:	c6 f8       	bld	r12, 6
    4c2a:	e1 2c       	mov	r14, r1
    4c2c:	00 e0       	ldi	r16, 0x00	; 0
    4c2e:	23 e0       	ldi	r18, 0x03	; 3
    4c30:	40 e0       	ldi	r20, 0x00	; 0
    4c32:	51 ee       	ldi	r21, 0xE1	; 225
    4c34:	60 e0       	ldi	r22, 0x00	; 0
    4c36:	70 e0       	ldi	r23, 0x00	; 0
    4c38:	8c 2f       	mov	r24, r28
    4c3a:	de d3       	rcall	.+1980   	; 0x53f8 <serial_create>
    4c3c:	90 93 a3 14 	sts	0x14A3, r25	; 0x8014a3 <_rn2483_serial+0x1>
    4c40:	80 93 a2 14 	sts	0x14A2, r24	; 0x8014a2 <_rn2483_serial>
    4c44:	e7 e0       	ldi	r30, 0x07	; 7
    4c46:	f1 e0       	ldi	r31, 0x01	; 1
    4c48:	80 81       	ld	r24, Z
    4c4a:	80 61       	ori	r24, 0x10	; 16
    4c4c:	80 83       	st	Z, r24
    4c4e:	cf 91       	pop	r28
    4c50:	1f 91       	pop	r17
    4c52:	0f 91       	pop	r16
    4c54:	ef 90       	pop	r14
    4c56:	cf 90       	pop	r12
    4c58:	af 90       	pop	r10
    4c5a:	9f 90       	pop	r9
    4c5c:	8f 90       	pop	r8
    4c5e:	08 95       	ret

00004c60 <lora_driver_resetRn2483>:
    4c60:	88 23       	and	r24, r24
    4c62:	31 f0       	breq	.+12     	; 0x4c70 <lora_driver_resetRn2483+0x10>
    4c64:	e8 e0       	ldi	r30, 0x08	; 8
    4c66:	f1 e0       	ldi	r31, 0x01	; 1
    4c68:	80 81       	ld	r24, Z
    4c6a:	8f 7e       	andi	r24, 0xEF	; 239
    4c6c:	80 83       	st	Z, r24
    4c6e:	08 95       	ret
    4c70:	e8 e0       	ldi	r30, 0x08	; 8
    4c72:	f1 e0       	ldi	r31, 0x01	; 1
    4c74:	80 81       	ld	r24, Z
    4c76:	80 61       	ori	r24, 0x10	; 16
    4c78:	80 83       	st	Z, r24
    4c7a:	08 95       	ret

00004c7c <lora_driver_rn2483FactoryReset>:
    4c7c:	60 e0       	ldi	r22, 0x00	; 0
    4c7e:	70 e0       	ldi	r23, 0x00	; 0
    4c80:	8e e0       	ldi	r24, 0x0E	; 14
    4c82:	96 e0       	ldi	r25, 0x06	; 6
    4c84:	db de       	rcall	.-586    	; 0x4a3c <_uploadMessage>
    4c86:	e9 e2       	ldi	r30, 0x29	; 41
    4c88:	f5 e1       	ldi	r31, 0x15	; 21
    4c8a:	01 90       	ld	r0, Z+
    4c8c:	00 20       	and	r0, r0
    4c8e:	e9 f7       	brne	.-6      	; 0x4c8a <lora_driver_rn2483FactoryReset+0xe>
    4c90:	31 97       	sbiw	r30, 0x01	; 1
    4c92:	e9 52       	subi	r30, 0x29	; 41
    4c94:	f5 41       	sbci	r31, 0x15	; 21
    4c96:	81 e0       	ldi	r24, 0x01	; 1
    4c98:	75 97       	sbiw	r30, 0x15	; 21
    4c9a:	08 f0       	brcs	.+2      	; 0x4c9e <lora_driver_rn2483FactoryReset+0x22>
    4c9c:	80 e0       	ldi	r24, 0x00	; 0
    4c9e:	08 95       	ret

00004ca0 <lora_driver_getRn2483Hweui>:
    4ca0:	cf 93       	push	r28
    4ca2:	df 93       	push	r29
    4ca4:	ec 01       	movw	r28, r24
    4ca6:	60 e0       	ldi	r22, 0x00	; 0
    4ca8:	70 e0       	ldi	r23, 0x00	; 0
    4caa:	8f e1       	ldi	r24, 0x1F	; 31
    4cac:	96 e0       	ldi	r25, 0x06	; 6
    4cae:	c6 de       	rcall	.-628    	; 0x4a3c <_uploadMessage>
    4cb0:	e9 e2       	ldi	r30, 0x29	; 41
    4cb2:	f5 e1       	ldi	r31, 0x15	; 21
    4cb4:	01 90       	ld	r0, Z+
    4cb6:	00 20       	and	r0, r0
    4cb8:	e9 f7       	brne	.-6      	; 0x4cb4 <lora_driver_getRn2483Hweui+0x14>
    4cba:	ea 53       	subi	r30, 0x3A	; 58
    4cbc:	f5 41       	sbci	r31, 0x15	; 21
    4cbe:	39 f4       	brne	.+14     	; 0x4cce <lora_driver_getRn2483Hweui+0x2e>
    4cc0:	69 e2       	ldi	r22, 0x29	; 41
    4cc2:	75 e1       	ldi	r23, 0x15	; 21
    4cc4:	ce 01       	movw	r24, r28
    4cc6:	0e 94 eb 36 	call	0x6dd6	; 0x6dd6 <strcpy>
    4cca:	80 e0       	ldi	r24, 0x00	; 0
    4ccc:	02 c0       	rjmp	.+4      	; 0x4cd2 <lora_driver_getRn2483Hweui+0x32>
    4cce:	18 82       	st	Y, r1
    4cd0:	81 e0       	ldi	r24, 0x01	; 1
    4cd2:	df 91       	pop	r29
    4cd4:	cf 91       	pop	r28
    4cd6:	08 95       	ret

00004cd8 <lora_driver_setDeviceIdentifier>:
    4cd8:	fc 01       	movw	r30, r24
    4cda:	01 90       	ld	r0, Z+
    4cdc:	00 20       	and	r0, r0
    4cde:	e9 f7       	brne	.-6      	; 0x4cda <lora_driver_setDeviceIdentifier+0x2>
    4ce0:	9f 01       	movw	r18, r30
    4ce2:	21 51       	subi	r18, 0x11	; 17
    4ce4:	31 09       	sbc	r19, r1
    4ce6:	28 17       	cp	r18, r24
    4ce8:	39 07       	cpc	r19, r25
    4cea:	29 f4       	brne	.+10     	; 0x4cf6 <lora_driver_setDeviceIdentifier+0x1e>
    4cec:	bc 01       	movw	r22, r24
    4cee:	8d e4       	ldi	r24, 0x4D	; 77
    4cf0:	96 e0       	ldi	r25, 0x06	; 6
    4cf2:	73 cf       	rjmp	.-282    	; 0x4bda <_uploadMessageRc>
    4cf4:	08 95       	ret
    4cf6:	89 e0       	ldi	r24, 0x09	; 9
    4cf8:	08 95       	ret

00004cfa <lora_driver_setApplicationIdentifier>:
    4cfa:	fc 01       	movw	r30, r24
    4cfc:	01 90       	ld	r0, Z+
    4cfe:	00 20       	and	r0, r0
    4d00:	e9 f7       	brne	.-6      	; 0x4cfc <lora_driver_setApplicationIdentifier+0x2>
    4d02:	9f 01       	movw	r18, r30
    4d04:	21 51       	subi	r18, 0x11	; 17
    4d06:	31 09       	sbc	r19, r1
    4d08:	28 17       	cp	r18, r24
    4d0a:	39 07       	cpc	r19, r25
    4d0c:	29 f4       	brne	.+10     	; 0x4d18 <lora_driver_setApplicationIdentifier+0x1e>
    4d0e:	bc 01       	movw	r22, r24
    4d10:	8c e5       	ldi	r24, 0x5C	; 92
    4d12:	96 e0       	ldi	r25, 0x06	; 6
    4d14:	62 cf       	rjmp	.-316    	; 0x4bda <_uploadMessageRc>
    4d16:	08 95       	ret
    4d18:	89 e0       	ldi	r24, 0x09	; 9
    4d1a:	08 95       	ret

00004d1c <lora_driver_setApplicationKey>:
    4d1c:	fc 01       	movw	r30, r24
    4d1e:	01 90       	ld	r0, Z+
    4d20:	00 20       	and	r0, r0
    4d22:	e9 f7       	brne	.-6      	; 0x4d1e <lora_driver_setApplicationKey+0x2>
    4d24:	9f 01       	movw	r18, r30
    4d26:	21 52       	subi	r18, 0x21	; 33
    4d28:	31 09       	sbc	r19, r1
    4d2a:	28 17       	cp	r18, r24
    4d2c:	39 07       	cpc	r19, r25
    4d2e:	29 f4       	brne	.+10     	; 0x4d3a <lora_driver_setApplicationKey+0x1e>
    4d30:	bc 01       	movw	r22, r24
    4d32:	8b e6       	ldi	r24, 0x6B	; 107
    4d34:	96 e0       	ldi	r25, 0x06	; 6
    4d36:	51 cf       	rjmp	.-350    	; 0x4bda <_uploadMessageRc>
    4d38:	08 95       	ret
    4d3a:	89 e0       	ldi	r24, 0x09	; 9
    4d3c:	08 95       	ret

00004d3e <lora_driver_saveMac>:
    4d3e:	60 e0       	ldi	r22, 0x00	; 0
    4d40:	70 e0       	ldi	r23, 0x00	; 0
    4d42:	8a ea       	ldi	r24, 0xAA	; 170
    4d44:	96 e0       	ldi	r25, 0x06	; 6
    4d46:	49 cf       	rjmp	.-366    	; 0x4bda <_uploadMessageRc>
    4d48:	08 95       	ret

00004d4a <lora_driver_join>:
    4d4a:	0f 93       	push	r16
    4d4c:	1f 93       	push	r17
    4d4e:	e8 2f       	mov	r30, r24
    4d50:	f0 e0       	ldi	r31, 0x00	; 0
    4d52:	ee 0f       	add	r30, r30
    4d54:	ff 1f       	adc	r31, r31
    4d56:	ed 58       	subi	r30, 0x8D	; 141
    4d58:	f7 4f       	sbci	r31, 0xF7	; 247
    4d5a:	60 81       	ld	r22, Z
    4d5c:	71 81       	ldd	r23, Z+1	; 0x01
    4d5e:	83 eb       	ldi	r24, 0xB3	; 179
    4d60:	96 e0       	ldi	r25, 0x06	; 6
    4d62:	3b df       	rcall	.-394    	; 0x4bda <_uploadMessageRc>
    4d64:	81 11       	cpse	r24, r1
    4d66:	14 c0       	rjmp	.+40     	; 0x4d90 <lora_driver_join+0x46>
    4d68:	08 e2       	ldi	r16, 0x28	; 40
    4d6a:	15 e0       	ldi	r17, 0x05	; 5
    4d6c:	20 e0       	ldi	r18, 0x00	; 0
    4d6e:	30 e0       	ldi	r19, 0x00	; 0
    4d70:	4d e2       	ldi	r20, 0x2D	; 45
    4d72:	50 e0       	ldi	r21, 0x00	; 0
    4d74:	69 e2       	ldi	r22, 0x29	; 41
    4d76:	75 e1       	ldi	r23, 0x15	; 21
    4d78:	80 91 a0 14 	lds	r24, 0x14A0	; 0x8014a0 <_serialReplyBufferHandle>
    4d7c:	90 91 a1 14 	lds	r25, 0x14A1	; 0x8014a1 <_serialReplyBufferHandle+0x1>
    4d80:	0e 94 65 11 	call	0x22ca	; 0x22ca <xStreamBufferReceive>
    4d84:	88 23       	and	r24, r24
    4d86:	21 f0       	breq	.+8      	; 0x4d90 <lora_driver_join+0x46>
    4d88:	89 e2       	ldi	r24, 0x29	; 41
    4d8a:	95 e1       	ldi	r25, 0x15	; 21
    4d8c:	b1 de       	rcall	.-670    	; 0x4af0 <_reply2ReturnCode>
    4d8e:	03 c0       	rjmp	.+6      	; 0x4d96 <lora_driver_join+0x4c>
    4d90:	89 e2       	ldi	r24, 0x29	; 41
    4d92:	95 e1       	ldi	r25, 0x15	; 21
    4d94:	ad de       	rcall	.-678    	; 0x4af0 <_reply2ReturnCode>
    4d96:	1f 91       	pop	r17
    4d98:	0f 91       	pop	r16
    4d9a:	08 95       	ret

00004d9c <lora_driver_sendUploadMessage>:
    4d9c:	0f 93       	push	r16
    4d9e:	1f 93       	push	r17
    4da0:	cf 93       	push	r28
    4da2:	df 93       	push	r29
    4da4:	1f 92       	push	r1
    4da6:	cd b7       	in	r28, 0x3d	; 61
    4da8:	de b7       	in	r29, 0x3e	; 62
    4daa:	db 01       	movw	r26, r22
    4dac:	11 96       	adiw	r26, 0x01	; 1
    4dae:	9c 91       	ld	r25, X
    4db0:	11 97       	sbiw	r26, 0x01	; 1
    4db2:	95 31       	cpi	r25, 0x15	; 21
    4db4:	08 f0       	brcs	.+2      	; 0x4db8 <lora_driver_sendUploadMessage+0x1c>
    4db6:	b4 c0       	rjmp	.+360    	; 0x4f20 <lora_driver_sendUploadMessage+0x184>
    4db8:	99 23       	and	r25, r25
    4dba:	81 f1       	breq	.+96     	; 0x4e1c <lora_driver_sendUploadMessage+0x80>
    4dbc:	60 e0       	ldi	r22, 0x00	; 0
    4dbe:	70 e0       	ldi	r23, 0x00	; 0
    4dc0:	27 2f       	mov	r18, r23
    4dc2:	30 e0       	ldi	r19, 0x00	; 0
    4dc4:	46 2f       	mov	r20, r22
    4dc6:	50 e0       	ldi	r21, 0x00	; 0
    4dc8:	fd 01       	movw	r30, r26
    4dca:	e4 0f       	add	r30, r20
    4dcc:	f5 1f       	adc	r31, r21
    4dce:	92 81       	ldd	r25, Z+2	; 0x02
    4dd0:	92 95       	swap	r25
    4dd2:	9f 70       	andi	r25, 0x0F	; 15
    4dd4:	9a 30       	cpi	r25, 0x0A	; 10
    4dd6:	10 f0       	brcs	.+4      	; 0x4ddc <lora_driver_sendUploadMessage+0x40>
    4dd8:	99 5c       	subi	r25, 0xC9	; 201
    4dda:	01 c0       	rjmp	.+2      	; 0x4dde <lora_driver_sendUploadMessage+0x42>
    4ddc:	90 5d       	subi	r25, 0xD0	; 208
    4dde:	f9 01       	movw	r30, r18
    4de0:	e6 54       	subi	r30, 0x46	; 70
    4de2:	fb 4e       	sbci	r31, 0xEB	; 235
    4de4:	90 83       	st	Z, r25
    4de6:	2f 5f       	subi	r18, 0xFF	; 255
    4de8:	3f 4f       	sbci	r19, 0xFF	; 255
    4dea:	fd 01       	movw	r30, r26
    4dec:	e4 0f       	add	r30, r20
    4dee:	f5 1f       	adc	r31, r21
    4df0:	92 81       	ldd	r25, Z+2	; 0x02
    4df2:	9f 70       	andi	r25, 0x0F	; 15
    4df4:	49 2f       	mov	r20, r25
    4df6:	50 e0       	ldi	r21, 0x00	; 0
    4df8:	4a 30       	cpi	r20, 0x0A	; 10
    4dfa:	51 05       	cpc	r21, r1
    4dfc:	14 f0       	brlt	.+4      	; 0x4e02 <lora_driver_sendUploadMessage+0x66>
    4dfe:	99 5c       	subi	r25, 0xC9	; 201
    4e00:	01 c0       	rjmp	.+2      	; 0x4e04 <lora_driver_sendUploadMessage+0x68>
    4e02:	90 5d       	subi	r25, 0xD0	; 208
    4e04:	f9 01       	movw	r30, r18
    4e06:	e6 54       	subi	r30, 0x46	; 70
    4e08:	fb 4e       	sbci	r31, 0xEB	; 235
    4e0a:	90 83       	st	Z, r25
    4e0c:	7e 5f       	subi	r23, 0xFE	; 254
    4e0e:	6f 5f       	subi	r22, 0xFF	; 255
    4e10:	11 96       	adiw	r26, 0x01	; 1
    4e12:	9c 91       	ld	r25, X
    4e14:	11 97       	sbiw	r26, 0x01	; 1
    4e16:	69 17       	cp	r22, r25
    4e18:	98 f2       	brcs	.-90     	; 0x4dc0 <lora_driver_sendUploadMessage+0x24>
    4e1a:	01 c0       	rjmp	.+2      	; 0x4e1e <lora_driver_sendUploadMessage+0x82>
    4e1c:	70 e0       	ldi	r23, 0x00	; 0
    4e1e:	e7 2f       	mov	r30, r23
    4e20:	f0 e0       	ldi	r31, 0x00	; 0
    4e22:	e6 54       	subi	r30, 0x46	; 70
    4e24:	fb 4e       	sbci	r31, 0xEB	; 235
    4e26:	10 82       	st	Z, r1
    4e28:	4c 91       	ld	r20, X
    4e2a:	81 11       	cpse	r24, r1
    4e2c:	03 c0       	rjmp	.+6      	; 0x4e34 <lora_driver_sendUploadMessage+0x98>
    4e2e:	8c eb       	ldi	r24, 0xBC	; 188
    4e30:	96 e0       	ldi	r25, 0x06	; 6
    4e32:	02 c0       	rjmp	.+4      	; 0x4e38 <lora_driver_sendUploadMessage+0x9c>
    4e34:	8e eb       	ldi	r24, 0xBE	; 190
    4e36:	96 e0       	ldi	r25, 0x06	; 6
    4e38:	2a eb       	ldi	r18, 0xBA	; 186
    4e3a:	34 e1       	ldi	r19, 0x14	; 20
    4e3c:	3f 93       	push	r19
    4e3e:	2f 93       	push	r18
    4e40:	1f 92       	push	r1
    4e42:	4f 93       	push	r20
    4e44:	9f 93       	push	r25
    4e46:	8f 93       	push	r24
    4e48:	82 ec       	ldi	r24, 0xC2	; 194
    4e4a:	96 e0       	ldi	r25, 0x06	; 6
    4e4c:	9f 93       	push	r25
    4e4e:	8f 93       	push	r24
    4e50:	8c ef       	ldi	r24, 0xFC	; 252
    4e52:	94 e1       	ldi	r25, 0x14	; 20
    4e54:	9f 93       	push	r25
    4e56:	8f 93       	push	r24
    4e58:	0e 94 4d 37 	call	0x6e9a	; 0x6e9a <sprintf>
    4e5c:	60 e0       	ldi	r22, 0x00	; 0
    4e5e:	70 e0       	ldi	r23, 0x00	; 0
    4e60:	8c ef       	ldi	r24, 0xFC	; 252
    4e62:	94 e1       	ldi	r25, 0x14	; 20
    4e64:	ba de       	rcall	.-652    	; 0x4bda <_uploadMessageRc>
    4e66:	0f b6       	in	r0, 0x3f	; 63
    4e68:	f8 94       	cli
    4e6a:	de bf       	out	0x3e, r29	; 62
    4e6c:	0f be       	out	0x3f, r0	; 63
    4e6e:	cd bf       	out	0x3d, r28	; 61
    4e70:	81 11       	cpse	r24, r1
    4e72:	59 c0       	rjmp	.+178    	; 0x4f26 <lora_driver_sendUploadMessage+0x18a>
    4e74:	08 e2       	ldi	r16, 0x28	; 40
    4e76:	15 e0       	ldi	r17, 0x05	; 5
    4e78:	20 e0       	ldi	r18, 0x00	; 0
    4e7a:	30 e0       	ldi	r19, 0x00	; 0
    4e7c:	4d e2       	ldi	r20, 0x2D	; 45
    4e7e:	50 e0       	ldi	r21, 0x00	; 0
    4e80:	69 e2       	ldi	r22, 0x29	; 41
    4e82:	75 e1       	ldi	r23, 0x15	; 21
    4e84:	80 91 a0 14 	lds	r24, 0x14A0	; 0x8014a0 <_serialReplyBufferHandle>
    4e88:	90 91 a1 14 	lds	r25, 0x14A1	; 0x8014a1 <_serialReplyBufferHandle+0x1>
    4e8c:	0e 94 65 11 	call	0x22ca	; 0x22ca <xStreamBufferReceive>
    4e90:	88 23       	and	r24, r24
    4e92:	09 f4       	brne	.+2      	; 0x4e96 <lora_driver_sendUploadMessage+0xfa>
    4e94:	47 c0       	rjmp	.+142    	; 0x4f24 <lora_driver_sendUploadMessage+0x188>
    4e96:	89 e2       	ldi	r24, 0x29	; 41
    4e98:	95 e1       	ldi	r25, 0x15	; 21
    4e9a:	2a de       	rcall	.-940    	; 0x4af0 <_reply2ReturnCode>
    4e9c:	8e 30       	cpi	r24, 0x0E	; 14
    4e9e:	09 f0       	breq	.+2      	; 0x4ea2 <lora_driver_sendUploadMessage+0x106>
    4ea0:	42 c0       	rjmp	.+132    	; 0x4f26 <lora_driver_sendUploadMessage+0x18a>
    4ea2:	87 e0       	ldi	r24, 0x07	; 7
    4ea4:	89 83       	std	Y+1, r24	; 0x01
    4ea6:	80 91 9e 14 	lds	r24, 0x149E	; 0x80149e <_downlinkMessageBuffer>
    4eaa:	90 91 9f 14 	lds	r25, 0x149F	; 0x80149f <_downlinkMessageBuffer+0x1>
    4eae:	89 2b       	or	r24, r25
    4eb0:	a9 f1       	breq	.+106    	; 0x4f1c <lora_driver_sendUploadMessage+0x180>
    4eb2:	be 01       	movw	r22, r28
    4eb4:	6f 5f       	subi	r22, 0xFF	; 255
    4eb6:	7f 4f       	sbci	r23, 0xFF	; 255
    4eb8:	89 e2       	ldi	r24, 0x29	; 41
    4eba:	95 e1       	ldi	r25, 0x15	; 21
    4ebc:	68 d1       	rcall	.+720    	; 0x518e <decode_port_no>
    4ebe:	80 93 a4 14 	sts	0x14A4, r24	; 0x8014a4 <_downlinkPayload>
    4ec2:	e9 81       	ldd	r30, Y+1	; 0x01
    4ec4:	f0 e0       	ldi	r31, 0x00	; 0
    4ec6:	e7 5d       	subi	r30, 0xD7	; 215
    4ec8:	fa 4e       	sbci	r31, 0xEA	; 234
    4eca:	df 01       	movw	r26, r30
    4ecc:	0d 90       	ld	r0, X+
    4ece:	00 20       	and	r0, r0
    4ed0:	e9 f7       	brne	.-6      	; 0x4ecc <lora_driver_sendUploadMessage+0x130>
    4ed2:	11 97       	sbiw	r26, 0x01	; 1
    4ed4:	ae 1b       	sub	r26, r30
    4ed6:	bf 0b       	sbc	r27, r31
    4ed8:	aa 23       	and	r26, r26
    4eda:	91 f0       	breq	.+36     	; 0x4f00 <lora_driver_sendUploadMessage+0x164>
    4edc:	bb 27       	eor	r27, r27
    4ede:	cd 01       	movw	r24, r26
    4ee0:	01 97       	sbiw	r24, 0x01	; 1
    4ee2:	9c 01       	movw	r18, r24
    4ee4:	12 f4       	brpl	.+4      	; 0x4eea <lora_driver_sendUploadMessage+0x14e>
    4ee6:	2f 5f       	subi	r18, 0xFF	; 255
    4ee8:	3f 4f       	sbci	r19, 0xFF	; 255
    4eea:	35 95       	asr	r19
    4eec:	27 95       	ror	r18
    4eee:	20 93 a5 14 	sts	0x14A5, r18	; 0x8014a5 <_downlinkPayload+0x1>
    4ef2:	af 01       	movw	r20, r30
    4ef4:	4f 5f       	subi	r20, 0xFF	; 255
    4ef6:	5f 4f       	sbci	r21, 0xFF	; 255
    4ef8:	64 e1       	ldi	r22, 0x14	; 20
    4efa:	86 ea       	ldi	r24, 0xA6	; 166
    4efc:	94 e1       	ldi	r25, 0x14	; 20
    4efe:	73 d1       	rcall	.+742    	; 0x51e6 <decode_hexadecimal_string_bytes>
    4f00:	01 e0       	ldi	r16, 0x01	; 1
    4f02:	10 e0       	ldi	r17, 0x00	; 0
    4f04:	20 e0       	ldi	r18, 0x00	; 0
    4f06:	30 e0       	ldi	r19, 0x00	; 0
    4f08:	46 e1       	ldi	r20, 0x16	; 22
    4f0a:	50 e0       	ldi	r21, 0x00	; 0
    4f0c:	64 ea       	ldi	r22, 0xA4	; 164
    4f0e:	74 e1       	ldi	r23, 0x14	; 20
    4f10:	80 91 9e 14 	lds	r24, 0x149E	; 0x80149e <_downlinkMessageBuffer>
    4f14:	90 91 9f 14 	lds	r25, 0x149F	; 0x80149f <_downlinkMessageBuffer+0x1>
    4f18:	0e 94 63 10 	call	0x20c6	; 0x20c6 <xStreamBufferSend>
    4f1c:	8e e0       	ldi	r24, 0x0E	; 14
    4f1e:	03 c0       	rjmp	.+6      	; 0x4f26 <lora_driver_sendUploadMessage+0x18a>
    4f20:	84 e1       	ldi	r24, 0x14	; 20
    4f22:	01 c0       	rjmp	.+2      	; 0x4f26 <lora_driver_sendUploadMessage+0x18a>
    4f24:	80 e0       	ldi	r24, 0x00	; 0
    4f26:	0f 90       	pop	r0
    4f28:	df 91       	pop	r29
    4f2a:	cf 91       	pop	r28
    4f2c:	1f 91       	pop	r17
    4f2e:	0f 91       	pop	r16
    4f30:	08 95       	ret

00004f32 <lora_driver_setAdaptiveDataRate>:
    4f32:	81 30       	cpi	r24, 0x01	; 1
    4f34:	19 f0       	breq	.+6      	; 0x4f3c <lora_driver_setAdaptiveDataRate+0xa>
    4f36:	62 ed       	ldi	r22, 0xD2	; 210
    4f38:	76 e0       	ldi	r23, 0x06	; 6
    4f3a:	02 c0       	rjmp	.+4      	; 0x4f40 <lora_driver_setAdaptiveDataRate+0xe>
    4f3c:	6b ea       	ldi	r22, 0xAB	; 171
    4f3e:	77 e0       	ldi	r23, 0x07	; 7
    4f40:	86 ed       	ldi	r24, 0xD6	; 214
    4f42:	96 e0       	ldi	r25, 0x06	; 6
    4f44:	4a ce       	rjmp	.-876    	; 0x4bda <_uploadMessageRc>
    4f46:	08 95       	ret

00004f48 <lora_driver_setReceiveDelay>:
    4f48:	9f 93       	push	r25
    4f4a:	8f 93       	push	r24
    4f4c:	87 e0       	ldi	r24, 0x07	; 7
    4f4e:	97 e0       	ldi	r25, 0x07	; 7
    4f50:	9f 93       	push	r25
    4f52:	8f 93       	push	r24
    4f54:	8c ef       	ldi	r24, 0xFC	; 252
    4f56:	94 e1       	ldi	r25, 0x14	; 20
    4f58:	9f 93       	push	r25
    4f5a:	8f 93       	push	r24
    4f5c:	0e 94 4d 37 	call	0x6e9a	; 0x6e9a <sprintf>
    4f60:	60 e0       	ldi	r22, 0x00	; 0
    4f62:	70 e0       	ldi	r23, 0x00	; 0
    4f64:	8c ef       	ldi	r24, 0xFC	; 252
    4f66:	94 e1       	ldi	r25, 0x14	; 20
    4f68:	38 de       	rcall	.-912    	; 0x4bda <_uploadMessageRc>
    4f6a:	0f 90       	pop	r0
    4f6c:	0f 90       	pop	r0
    4f6e:	0f 90       	pop	r0
    4f70:	0f 90       	pop	r0
    4f72:	0f 90       	pop	r0
    4f74:	0f 90       	pop	r0
    4f76:	08 95       	ret

00004f78 <lora_driver_configureToEu868>:
    4f78:	2f 92       	push	r2
    4f7a:	3f 92       	push	r3
    4f7c:	4f 92       	push	r4
    4f7e:	5f 92       	push	r5
    4f80:	6f 92       	push	r6
    4f82:	7f 92       	push	r7
    4f84:	8f 92       	push	r8
    4f86:	9f 92       	push	r9
    4f88:	af 92       	push	r10
    4f8a:	bf 92       	push	r11
    4f8c:	cf 92       	push	r12
    4f8e:	df 92       	push	r13
    4f90:	ef 92       	push	r14
    4f92:	ff 92       	push	r15
    4f94:	0f 93       	push	r16
    4f96:	1f 93       	push	r17
    4f98:	cf 93       	push	r28
    4f9a:	df 93       	push	r29
    4f9c:	cd b7       	in	r28, 0x3d	; 61
    4f9e:	de b7       	in	r29, 0x3e	; 62
    4fa0:	a0 97       	sbiw	r28, 0x20	; 32
    4fa2:	0f b6       	in	r0, 0x3f	; 63
    4fa4:	f8 94       	cli
    4fa6:	de bf       	out	0x3e, r29	; 62
    4fa8:	0f be       	out	0x3f, r0	; 63
    4faa:	cd bf       	out	0x3d, r28	; 61
    4fac:	64 e3       	ldi	r22, 0x34	; 52
    4fae:	77 e0       	ldi	r23, 0x07	; 7
    4fb0:	80 e4       	ldi	r24, 0x40	; 64
    4fb2:	97 e0       	ldi	r25, 0x07	; 7
    4fb4:	43 dd       	rcall	.-1402   	; 0x4a3c <_uploadMessage>
    4fb6:	9c dd       	rcall	.-1224   	; 0x4af0 <_reply2ReturnCode>
    4fb8:	81 11       	cpse	r24, r1
    4fba:	a3 c0       	rjmp	.+326    	; 0x5102 <lora_driver_configureToEu868+0x18a>
    4fbc:	80 e2       	ldi	r24, 0x20	; 32
    4fbe:	e2 e2       	ldi	r30, 0x22	; 34
    4fc0:	f2 e0       	ldi	r31, 0x02	; 2
    4fc2:	de 01       	movw	r26, r28
    4fc4:	11 96       	adiw	r26, 0x01	; 1
    4fc6:	01 90       	ld	r0, Z+
    4fc8:	0d 92       	st	X+, r0
    4fca:	8a 95       	dec	r24
    4fcc:	e1 f7       	brne	.-8      	; 0x4fc6 <lora_driver_configureToEu868+0x4e>
    4fce:	9e 01       	movw	r18, r28
    4fd0:	2f 5f       	subi	r18, 0xFF	; 255
    4fd2:	3f 4f       	sbci	r19, 0xFF	; 255
    4fd4:	69 01       	movw	r12, r18
    4fd6:	e1 2c       	mov	r14, r1
    4fd8:	f1 2c       	mov	r15, r1
    4fda:	0f 2e       	mov	r0, r31
    4fdc:	fc e4       	ldi	r31, 0x4C	; 76
    4fde:	af 2e       	mov	r10, r31
    4fe0:	f7 e0       	ldi	r31, 0x07	; 7
    4fe2:	bf 2e       	mov	r11, r31
    4fe4:	f0 2d       	mov	r31, r0
    4fe6:	0c ef       	ldi	r16, 0xFC	; 252
    4fe8:	14 e1       	ldi	r17, 0x14	; 20
    4fea:	0f 2e       	mov	r0, r31
    4fec:	f5 e6       	ldi	r31, 0x65	; 101
    4fee:	4f 2e       	mov	r4, r31
    4ff0:	f7 e0       	ldi	r31, 0x07	; 7
    4ff2:	5f 2e       	mov	r5, r31
    4ff4:	f0 2d       	mov	r31, r0
    4ff6:	0f 2e       	mov	r0, r31
    4ff8:	fc e7       	ldi	r31, 0x7C	; 124
    4ffa:	8f 2e       	mov	r8, r31
    4ffc:	f7 e0       	ldi	r31, 0x07	; 7
    4ffe:	9f 2e       	mov	r9, r31
    5000:	f0 2d       	mov	r31, r0
    5002:	0f 2e       	mov	r0, r31
    5004:	f6 e9       	ldi	r31, 0x96	; 150
    5006:	6f 2e       	mov	r6, r31
    5008:	f7 e0       	ldi	r31, 0x07	; 7
    500a:	7f 2e       	mov	r7, r31
    500c:	f0 2d       	mov	r31, r0
    500e:	3e 2c       	mov	r3, r14
    5010:	2f 2c       	mov	r2, r15
    5012:	ff 92       	push	r15
    5014:	ef 92       	push	r14
    5016:	bf 92       	push	r11
    5018:	af 92       	push	r10
    501a:	1f 93       	push	r17
    501c:	0f 93       	push	r16
    501e:	0e 94 4d 37 	call	0x6e9a	; 0x6e9a <sprintf>
    5022:	60 e0       	ldi	r22, 0x00	; 0
    5024:	70 e0       	ldi	r23, 0x00	; 0
    5026:	c8 01       	movw	r24, r16
    5028:	09 dd       	rcall	.-1518   	; 0x4a3c <_uploadMessage>
    502a:	62 dd       	rcall	.-1340   	; 0x4af0 <_reply2ReturnCode>
    502c:	0f 90       	pop	r0
    502e:	0f 90       	pop	r0
    5030:	0f 90       	pop	r0
    5032:	0f 90       	pop	r0
    5034:	0f 90       	pop	r0
    5036:	0f 90       	pop	r0
    5038:	81 11       	cpse	r24, r1
    503a:	63 c0       	rjmp	.+198    	; 0x5102 <lora_driver_configureToEu868+0x18a>
    503c:	32 e0       	ldi	r19, 0x02	; 2
    503e:	3e 15       	cp	r19, r14
    5040:	e8 f4       	brcc	.+58     	; 0x507c <lora_driver_configureToEu868+0x104>
    5042:	f6 01       	movw	r30, r12
    5044:	83 81       	ldd	r24, Z+3	; 0x03
    5046:	8f 93       	push	r24
    5048:	82 81       	ldd	r24, Z+2	; 0x02
    504a:	8f 93       	push	r24
    504c:	81 81       	ldd	r24, Z+1	; 0x01
    504e:	8f 93       	push	r24
    5050:	80 81       	ld	r24, Z
    5052:	8f 93       	push	r24
    5054:	ff 92       	push	r15
    5056:	ef 92       	push	r14
    5058:	5f 92       	push	r5
    505a:	4f 92       	push	r4
    505c:	1f 93       	push	r17
    505e:	0f 93       	push	r16
    5060:	0e 94 4d 37 	call	0x6e9a	; 0x6e9a <sprintf>
    5064:	60 e0       	ldi	r22, 0x00	; 0
    5066:	70 e0       	ldi	r23, 0x00	; 0
    5068:	c8 01       	movw	r24, r16
    506a:	e8 dc       	rcall	.-1584   	; 0x4a3c <_uploadMessage>
    506c:	41 dd       	rcall	.-1406   	; 0x4af0 <_reply2ReturnCode>
    506e:	0f b6       	in	r0, 0x3f	; 63
    5070:	f8 94       	cli
    5072:	de bf       	out	0x3e, r29	; 62
    5074:	0f be       	out	0x3f, r0	; 63
    5076:	cd bf       	out	0x3d, r28	; 61
    5078:	81 11       	cpse	r24, r1
    507a:	43 c0       	rjmp	.+134    	; 0x5102 <lora_driver_configureToEu868+0x18a>
    507c:	2f 92       	push	r2
    507e:	3f 92       	push	r3
    5080:	9f 92       	push	r9
    5082:	8f 92       	push	r8
    5084:	1f 93       	push	r17
    5086:	0f 93       	push	r16
    5088:	0e 94 4d 37 	call	0x6e9a	; 0x6e9a <sprintf>
    508c:	60 e0       	ldi	r22, 0x00	; 0
    508e:	70 e0       	ldi	r23, 0x00	; 0
    5090:	c8 01       	movw	r24, r16
    5092:	d4 dc       	rcall	.-1624   	; 0x4a3c <_uploadMessage>
    5094:	2d dd       	rcall	.-1446   	; 0x4af0 <_reply2ReturnCode>
    5096:	0f 90       	pop	r0
    5098:	0f 90       	pop	r0
    509a:	0f 90       	pop	r0
    509c:	0f 90       	pop	r0
    509e:	0f 90       	pop	r0
    50a0:	0f 90       	pop	r0
    50a2:	81 11       	cpse	r24, r1
    50a4:	2e c0       	rjmp	.+92     	; 0x5102 <lora_driver_configureToEu868+0x18a>
    50a6:	2f 92       	push	r2
    50a8:	3f 92       	push	r3
    50aa:	7f 92       	push	r7
    50ac:	6f 92       	push	r6
    50ae:	1f 93       	push	r17
    50b0:	0f 93       	push	r16
    50b2:	0e 94 4d 37 	call	0x6e9a	; 0x6e9a <sprintf>
    50b6:	60 e0       	ldi	r22, 0x00	; 0
    50b8:	70 e0       	ldi	r23, 0x00	; 0
    50ba:	c8 01       	movw	r24, r16
    50bc:	bf dc       	rcall	.-1666   	; 0x4a3c <_uploadMessage>
    50be:	18 dd       	rcall	.-1488   	; 0x4af0 <_reply2ReturnCode>
    50c0:	0f 90       	pop	r0
    50c2:	0f 90       	pop	r0
    50c4:	0f 90       	pop	r0
    50c6:	0f 90       	pop	r0
    50c8:	0f 90       	pop	r0
    50ca:	0f 90       	pop	r0
    50cc:	81 11       	cpse	r24, r1
    50ce:	19 c0       	rjmp	.+50     	; 0x5102 <lora_driver_configureToEu868+0x18a>
    50d0:	3f ef       	ldi	r19, 0xFF	; 255
    50d2:	e3 1a       	sub	r14, r19
    50d4:	f3 0a       	sbc	r15, r19
    50d6:	84 e0       	ldi	r24, 0x04	; 4
    50d8:	c8 0e       	add	r12, r24
    50da:	d1 1c       	adc	r13, r1
    50dc:	98 e0       	ldi	r25, 0x08	; 8
    50de:	e9 16       	cp	r14, r25
    50e0:	f1 04       	cpc	r15, r1
    50e2:	09 f0       	breq	.+2      	; 0x50e6 <lora_driver_configureToEu868+0x16e>
    50e4:	94 cf       	rjmp	.-216    	; 0x500e <lora_driver_configureToEu868+0x96>
    50e6:	60 e0       	ldi	r22, 0x00	; 0
    50e8:	70 e0       	ldi	r23, 0x00	; 0
    50ea:	8e ea       	ldi	r24, 0xAE	; 174
    50ec:	97 e0       	ldi	r25, 0x07	; 7
    50ee:	a6 dc       	rcall	.-1716   	; 0x4a3c <_uploadMessage>
    50f0:	ff dc       	rcall	.-1538   	; 0x4af0 <_reply2ReturnCode>
    50f2:	81 11       	cpse	r24, r1
    50f4:	06 c0       	rjmp	.+12     	; 0x5102 <lora_driver_configureToEu868+0x18a>
    50f6:	60 e0       	ldi	r22, 0x00	; 0
    50f8:	70 e0       	ldi	r23, 0x00	; 0
    50fa:	8f eb       	ldi	r24, 0xBF	; 191
    50fc:	97 e0       	ldi	r25, 0x07	; 7
    50fe:	9e dc       	rcall	.-1732   	; 0x4a3c <_uploadMessage>
    5100:	f7 dc       	rcall	.-1554   	; 0x4af0 <_reply2ReturnCode>
    5102:	a0 96       	adiw	r28, 0x20	; 32
    5104:	0f b6       	in	r0, 0x3f	; 63
    5106:	f8 94       	cli
    5108:	de bf       	out	0x3e, r29	; 62
    510a:	0f be       	out	0x3f, r0	; 63
    510c:	cd bf       	out	0x3d, r28	; 61
    510e:	df 91       	pop	r29
    5110:	cf 91       	pop	r28
    5112:	1f 91       	pop	r17
    5114:	0f 91       	pop	r16
    5116:	ff 90       	pop	r15
    5118:	ef 90       	pop	r14
    511a:	df 90       	pop	r13
    511c:	cf 90       	pop	r12
    511e:	bf 90       	pop	r11
    5120:	af 90       	pop	r10
    5122:	9f 90       	pop	r9
    5124:	8f 90       	pop	r8
    5126:	7f 90       	pop	r7
    5128:	6f 90       	pop	r6
    512a:	5f 90       	pop	r5
    512c:	4f 90       	pop	r4
    512e:	3f 90       	pop	r3
    5130:	2f 90       	pop	r2
    5132:	08 95       	ret

00005134 <lora_driver_setOtaaIdentity>:
    5134:	ef 92       	push	r14
    5136:	ff 92       	push	r15
    5138:	0f 93       	push	r16
    513a:	1f 93       	push	r17
    513c:	cf 93       	push	r28
    513e:	df 93       	push	r29
    5140:	ec 01       	movw	r28, r24
    5142:	8b 01       	movw	r16, r22
    5144:	7a 01       	movw	r14, r20
    5146:	81 e0       	ldi	r24, 0x01	; 1
    5148:	f4 de       	rcall	.-536    	; 0x4f32 <lora_driver_setAdaptiveDataRate>
    514a:	81 11       	cpse	r24, r1
    514c:	0d c0       	rjmp	.+26     	; 0x5168 <lora_driver_setOtaaIdentity+0x34>
    514e:	ce 01       	movw	r24, r28
    5150:	d4 dd       	rcall	.-1112   	; 0x4cfa <lora_driver_setApplicationIdentifier>
    5152:	81 11       	cpse	r24, r1
    5154:	09 c0       	rjmp	.+18     	; 0x5168 <lora_driver_setOtaaIdentity+0x34>
    5156:	c8 01       	movw	r24, r16
    5158:	e1 dd       	rcall	.-1086   	; 0x4d1c <lora_driver_setApplicationKey>
    515a:	81 11       	cpse	r24, r1
    515c:	05 c0       	rjmp	.+10     	; 0x5168 <lora_driver_setOtaaIdentity+0x34>
    515e:	c7 01       	movw	r24, r14
    5160:	bb dd       	rcall	.-1162   	; 0x4cd8 <lora_driver_setDeviceIdentifier>
    5162:	81 11       	cpse	r24, r1
    5164:	01 c0       	rjmp	.+2      	; 0x5168 <lora_driver_setOtaaIdentity+0x34>
    5166:	eb dd       	rcall	.-1066   	; 0x4d3e <lora_driver_saveMac>
    5168:	df 91       	pop	r29
    516a:	cf 91       	pop	r28
    516c:	1f 91       	pop	r17
    516e:	0f 91       	pop	r16
    5170:	ff 90       	pop	r15
    5172:	ef 90       	pop	r14
    5174:	08 95       	ret

00005176 <lora_driver_mapReturnCodeToText>:
    5176:	90 e0       	ldi	r25, 0x00	; 0
    5178:	fc 01       	movw	r30, r24
    517a:	ee 0f       	add	r30, r30
    517c:	ff 1f       	adc	r31, r31
    517e:	8e 0f       	add	r24, r30
    5180:	9f 1f       	adc	r25, r31
    5182:	fc 01       	movw	r30, r24
    5184:	e9 58       	subi	r30, 0x89	; 137
    5186:	f7 4f       	sbci	r31, 0xF7	; 247
    5188:	81 81       	ldd	r24, Z+1	; 0x01
    518a:	92 81       	ldd	r25, Z+2	; 0x02
    518c:	08 95       	ret

0000518e <decode_port_no>:
    518e:	dc 01       	movw	r26, r24
    5190:	00 97       	sbiw	r24, 0x00	; 0
    5192:	29 f1       	breq	.+74     	; 0x51de <decode_port_no+0x50>
    5194:	fb 01       	movw	r30, r22
    5196:	20 81       	ld	r18, Z
    5198:	fc 01       	movw	r30, r24
    519a:	01 90       	ld	r0, Z+
    519c:	00 20       	and	r0, r0
    519e:	e9 f7       	brne	.-6      	; 0x519a <decode_port_no+0xc>
    51a0:	31 97       	sbiw	r30, 0x01	; 1
    51a2:	e8 1b       	sub	r30, r24
    51a4:	f9 0b       	sbc	r31, r25
    51a6:	82 2f       	mov	r24, r18
    51a8:	90 e0       	ldi	r25, 0x00	; 0
    51aa:	e8 17       	cp	r30, r24
    51ac:	f9 07       	cpc	r31, r25
    51ae:	c8 f0       	brcs	.+50     	; 0x51e2 <decode_port_no+0x54>
    51b0:	80 e0       	ldi	r24, 0x00	; 0
    51b2:	08 c0       	rjmp	.+16     	; 0x51c4 <decode_port_no+0x36>
    51b4:	88 0f       	add	r24, r24
    51b6:	38 2f       	mov	r19, r24
    51b8:	33 0f       	add	r19, r19
    51ba:	33 0f       	add	r19, r19
    51bc:	83 0f       	add	r24, r19
    51be:	80 53       	subi	r24, 0x30	; 48
    51c0:	89 0f       	add	r24, r25
    51c2:	2f 5f       	subi	r18, 0xFF	; 255
    51c4:	fd 01       	movw	r30, r26
    51c6:	e2 0f       	add	r30, r18
    51c8:	f1 1d       	adc	r31, r1
    51ca:	90 81       	ld	r25, Z
    51cc:	30 ed       	ldi	r19, 0xD0	; 208
    51ce:	39 0f       	add	r19, r25
    51d0:	3a 30       	cpi	r19, 0x0A	; 10
    51d2:	10 f4       	brcc	.+4      	; 0x51d8 <decode_port_no+0x4a>
    51d4:	91 11       	cpse	r25, r1
    51d6:	ee cf       	rjmp	.-36     	; 0x51b4 <decode_port_no+0x26>
    51d8:	fb 01       	movw	r30, r22
    51da:	20 83       	st	Z, r18
    51dc:	08 95       	ret
    51de:	80 e0       	ldi	r24, 0x00	; 0
    51e0:	08 95       	ret
    51e2:	80 e0       	ldi	r24, 0x00	; 0
    51e4:	08 95       	ret

000051e6 <decode_hexadecimal_string_bytes>:
    51e6:	0f 93       	push	r16
    51e8:	1f 93       	push	r17
    51ea:	cf 93       	push	r28
    51ec:	df 93       	push	r29
    51ee:	dc 01       	movw	r26, r24
    51f0:	ea 01       	movw	r28, r20
    51f2:	20 97       	sbiw	r28, 0x00	; 0
    51f4:	e1 f1       	breq	.+120    	; 0x526e <decode_hexadecimal_string_bytes+0x88>
    51f6:	fa 01       	movw	r30, r20
    51f8:	01 90       	ld	r0, Z+
    51fa:	00 20       	and	r0, r0
    51fc:	e9 f7       	brne	.-6      	; 0x51f8 <decode_hexadecimal_string_bytes+0x12>
    51fe:	31 97       	sbiw	r30, 0x01	; 1
    5200:	e4 1b       	sub	r30, r20
    5202:	f5 0b       	sbc	r31, r21
    5204:	32 97       	sbiw	r30, 0x02	; 2
    5206:	10 f5       	brcc	.+68     	; 0x524c <decode_hexadecimal_string_bytes+0x66>
    5208:	32 c0       	rjmp	.+100    	; 0x526e <decode_hexadecimal_string_bytes+0x88>
    520a:	8d 01       	movw	r16, r26
    520c:	04 0f       	add	r16, r20
    520e:	15 1f       	adc	r17, r21
    5210:	30 e0       	ldi	r19, 0x00	; 0
    5212:	ae 01       	movw	r20, r28
    5214:	42 0f       	add	r20, r18
    5216:	53 1f       	adc	r21, r19
    5218:	fa 01       	movw	r30, r20
    521a:	90 81       	ld	r25, Z
    521c:	91 34       	cpi	r25, 0x41	; 65
    521e:	28 f0       	brcs	.+10     	; 0x522a <decode_hexadecimal_string_bytes+0x44>
    5220:	97 53       	subi	r25, 0x37	; 55
    5222:	59 2f       	mov	r21, r25
    5224:	52 95       	swap	r21
    5226:	50 7f       	andi	r21, 0xF0	; 240
    5228:	03 c0       	rjmp	.+6      	; 0x5230 <decode_hexadecimal_string_bytes+0x4a>
    522a:	59 2f       	mov	r21, r25
    522c:	52 95       	swap	r21
    522e:	50 7f       	andi	r21, 0xF0	; 240
    5230:	2c 0f       	add	r18, r28
    5232:	3d 1f       	adc	r19, r29
    5234:	f9 01       	movw	r30, r18
    5236:	91 81       	ldd	r25, Z+1	; 0x01
    5238:	91 34       	cpi	r25, 0x41	; 65
    523a:	10 f0       	brcs	.+4      	; 0x5240 <decode_hexadecimal_string_bytes+0x5a>
    523c:	97 53       	subi	r25, 0x37	; 55
    523e:	01 c0       	rjmp	.+2      	; 0x5242 <decode_hexadecimal_string_bytes+0x5c>
    5240:	90 53       	subi	r25, 0x30	; 48
    5242:	95 0f       	add	r25, r21
    5244:	f8 01       	movw	r30, r16
    5246:	90 83       	st	Z, r25
    5248:	8f 5f       	subi	r24, 0xFF	; 255
    524a:	01 c0       	rjmp	.+2      	; 0x524e <decode_hexadecimal_string_bytes+0x68>
    524c:	80 e0       	ldi	r24, 0x00	; 0
    524e:	28 2f       	mov	r18, r24
    5250:	22 0f       	add	r18, r18
    5252:	48 2f       	mov	r20, r24
    5254:	50 e0       	ldi	r21, 0x00	; 0
    5256:	fe 01       	movw	r30, r28
    5258:	01 90       	ld	r0, Z+
    525a:	00 20       	and	r0, r0
    525c:	e9 f7       	brne	.-6      	; 0x5258 <decode_hexadecimal_string_bytes+0x72>
    525e:	31 97       	sbiw	r30, 0x01	; 1
    5260:	ec 1b       	sub	r30, r28
    5262:	fd 0b       	sbc	r31, r29
    5264:	4e 17       	cp	r20, r30
    5266:	5f 07       	cpc	r21, r31
    5268:	10 f4       	brcc	.+4      	; 0x526e <decode_hexadecimal_string_bytes+0x88>
    526a:	86 13       	cpse	r24, r22
    526c:	ce cf       	rjmp	.-100    	; 0x520a <decode_hexadecimal_string_bytes+0x24>
    526e:	df 91       	pop	r29
    5270:	cf 91       	pop	r28
    5272:	1f 91       	pop	r17
    5274:	0f 91       	pop	r16
    5276:	08 95       	ret

00005278 <_serialCallBack>:
    5278:	80 91 59 15 	lds	r24, 0x1559	; 0x801559 <crc_sum.1945>
    527c:	86 0f       	add	r24, r22
    527e:	80 93 59 15 	sts	0x1559, r24	; 0x801559 <crc_sum.1945>
    5282:	90 91 5c 15 	lds	r25, 0x155C	; 0x80155c <_mh_state>
    5286:	91 30       	cpi	r25, 0x01	; 1
    5288:	79 f0       	breq	.+30     	; 0x52a8 <_serialCallBack+0x30>
    528a:	28 f0       	brcs	.+10     	; 0x5296 <_serialCallBack+0x1e>
    528c:	92 30       	cpi	r25, 0x02	; 2
    528e:	a9 f0       	breq	.+42     	; 0x52ba <_serialCallBack+0x42>
    5290:	93 30       	cpi	r25, 0x03	; 3
    5292:	19 f1       	breq	.+70     	; 0x52da <_serialCallBack+0x62>
    5294:	08 95       	ret
    5296:	6f 3f       	cpi	r22, 0xFF	; 255
    5298:	09 f0       	breq	.+2      	; 0x529c <_serialCallBack+0x24>
    529a:	48 c0       	rjmp	.+144    	; 0x532c <_serialCallBack+0xb4>
    529c:	10 92 59 15 	sts	0x1559, r1	; 0x801559 <crc_sum.1945>
    52a0:	81 e0       	ldi	r24, 0x01	; 1
    52a2:	80 93 5c 15 	sts	0x155C, r24	; 0x80155c <_mh_state>
    52a6:	08 95       	ret
    52a8:	66 38       	cpi	r22, 0x86	; 134
    52aa:	09 f0       	breq	.+2      	; 0x52ae <_serialCallBack+0x36>
    52ac:	3f c0       	rjmp	.+126    	; 0x532c <_serialCallBack+0xb4>
    52ae:	10 92 58 15 	sts	0x1558, r1	; 0x801558 <inDex.1943>
    52b2:	82 e0       	ldi	r24, 0x02	; 2
    52b4:	80 93 5c 15 	sts	0x155C, r24	; 0x80155c <_mh_state>
    52b8:	08 95       	ret
    52ba:	e0 91 58 15 	lds	r30, 0x1558	; 0x801558 <inDex.1943>
    52be:	81 e0       	ldi	r24, 0x01	; 1
    52c0:	8e 0f       	add	r24, r30
    52c2:	80 93 58 15 	sts	0x1558, r24	; 0x801558 <inDex.1943>
    52c6:	f0 e0       	ldi	r31, 0x00	; 0
    52c8:	ea 5a       	subi	r30, 0xAA	; 170
    52ca:	fa 4e       	sbci	r31, 0xEA	; 234
    52cc:	60 83       	st	Z, r22
    52ce:	82 30       	cpi	r24, 0x02	; 2
    52d0:	69 f5       	brne	.+90     	; 0x532c <_serialCallBack+0xb4>
    52d2:	83 e0       	ldi	r24, 0x03	; 3
    52d4:	80 93 5c 15 	sts	0x155C, r24	; 0x80155c <_mh_state>
    52d8:	08 95       	ret
    52da:	90 91 58 15 	lds	r25, 0x1558	; 0x801558 <inDex.1943>
    52de:	21 e0       	ldi	r18, 0x01	; 1
    52e0:	29 0f       	add	r18, r25
    52e2:	20 93 58 15 	sts	0x1558, r18	; 0x801558 <inDex.1943>
    52e6:	96 30       	cpi	r25, 0x06	; 6
    52e8:	09 f5       	brne	.+66     	; 0x532c <_serialCallBack+0xb4>
    52ea:	81 11       	cpse	r24, r1
    52ec:	0e c0       	rjmp	.+28     	; 0x530a <_serialCallBack+0x92>
    52ee:	e6 e5       	ldi	r30, 0x56	; 86
    52f0:	f5 e1       	ldi	r31, 0x15	; 21
    52f2:	80 81       	ld	r24, Z
    52f4:	90 e0       	ldi	r25, 0x00	; 0
    52f6:	98 2f       	mov	r25, r24
    52f8:	88 27       	eor	r24, r24
    52fa:	21 81       	ldd	r18, Z+1	; 0x01
    52fc:	82 0f       	add	r24, r18
    52fe:	91 1d       	adc	r25, r1
    5300:	90 93 5e 15 	sts	0x155E, r25	; 0x80155e <_ppm+0x1>
    5304:	80 93 5d 15 	sts	0x155D, r24	; 0x80155d <_ppm>
    5308:	04 c0       	rjmp	.+8      	; 0x5312 <_serialCallBack+0x9a>
    530a:	10 92 5e 15 	sts	0x155E, r1	; 0x80155e <_ppm+0x1>
    530e:	10 92 5d 15 	sts	0x155D, r1	; 0x80155d <_ppm>
    5312:	10 92 5c 15 	sts	0x155C, r1	; 0x80155c <_mh_state>
    5316:	e0 91 5a 15 	lds	r30, 0x155A	; 0x80155a <_appCallBack>
    531a:	f0 91 5b 15 	lds	r31, 0x155B	; 0x80155b <_appCallBack+0x1>
    531e:	30 97       	sbiw	r30, 0x00	; 0
    5320:	29 f0       	breq	.+10     	; 0x532c <_serialCallBack+0xb4>
    5322:	80 91 5d 15 	lds	r24, 0x155D	; 0x80155d <_ppm>
    5326:	90 91 5e 15 	lds	r25, 0x155E	; 0x80155e <_ppm+0x1>
    532a:	19 95       	eicall
    532c:	08 95       	ret

0000532e <mh_z19_initialise>:
    532e:	8f 92       	push	r8
    5330:	9f 92       	push	r9
    5332:	af 92       	push	r10
    5334:	cf 92       	push	r12
    5336:	ef 92       	push	r14
    5338:	0f 93       	push	r16
    533a:	0f 2e       	mov	r0, r31
    533c:	fc e3       	ldi	r31, 0x3C	; 60
    533e:	8f 2e       	mov	r8, r31
    5340:	f9 e2       	ldi	r31, 0x29	; 41
    5342:	9f 2e       	mov	r9, r31
    5344:	f0 2d       	mov	r31, r0
    5346:	68 94       	set
    5348:	aa 24       	eor	r10, r10
    534a:	a4 f8       	bld	r10, 4
    534c:	68 94       	set
    534e:	cc 24       	eor	r12, r12
    5350:	c4 f8       	bld	r12, 4
    5352:	e1 2c       	mov	r14, r1
    5354:	00 e0       	ldi	r16, 0x00	; 0
    5356:	23 e0       	ldi	r18, 0x03	; 3
    5358:	40 e8       	ldi	r20, 0x80	; 128
    535a:	55 e2       	ldi	r21, 0x25	; 37
    535c:	60 e0       	ldi	r22, 0x00	; 0
    535e:	70 e0       	ldi	r23, 0x00	; 0
    5360:	4b d0       	rcall	.+150    	; 0x53f8 <serial_create>
    5362:	90 93 60 15 	sts	0x1560, r25	; 0x801560 <_serial+0x1>
    5366:	80 93 5f 15 	sts	0x155F, r24	; 0x80155f <_serial>
    536a:	0f 91       	pop	r16
    536c:	ef 90       	pop	r14
    536e:	cf 90       	pop	r12
    5370:	af 90       	pop	r10
    5372:	9f 90       	pop	r9
    5374:	8f 90       	pop	r8
    5376:	08 95       	ret

00005378 <mh_z19_takeMeassuring>:
    5378:	cf 93       	push	r28
    537a:	df 93       	push	r29
    537c:	cd b7       	in	r28, 0x3d	; 61
    537e:	de b7       	in	r29, 0x3e	; 62
    5380:	29 97       	sbiw	r28, 0x09	; 9
    5382:	0f b6       	in	r0, 0x3f	; 63
    5384:	f8 94       	cli
    5386:	de bf       	out	0x3e, r29	; 62
    5388:	0f be       	out	0x3f, r0	; 63
    538a:	cd bf       	out	0x3d, r28	; 61
    538c:	89 e0       	ldi	r24, 0x09	; 9
    538e:	e2 e4       	ldi	r30, 0x42	; 66
    5390:	f2 e0       	ldi	r31, 0x02	; 2
    5392:	9e 01       	movw	r18, r28
    5394:	2f 5f       	subi	r18, 0xFF	; 255
    5396:	3f 4f       	sbci	r19, 0xFF	; 255
    5398:	d9 01       	movw	r26, r18
    539a:	01 90       	ld	r0, Z+
    539c:	0d 92       	st	X+, r0
    539e:	8a 95       	dec	r24
    53a0:	e1 f7       	brne	.-8      	; 0x539a <mh_z19_takeMeassuring+0x22>
    53a2:	10 92 5e 15 	sts	0x155E, r1	; 0x80155e <_ppm+0x1>
    53a6:	10 92 5d 15 	sts	0x155D, r1	; 0x80155d <_ppm>
    53aa:	80 91 5f 15 	lds	r24, 0x155F	; 0x80155f <_serial>
    53ae:	90 91 60 15 	lds	r25, 0x1560	; 0x801560 <_serial+0x1>
    53b2:	00 97       	sbiw	r24, 0x00	; 0
    53b4:	31 f0       	breq	.+12     	; 0x53c2 <mh_z19_takeMeassuring+0x4a>
    53b6:	42 2f       	mov	r20, r18
    53b8:	53 2f       	mov	r21, r19
    53ba:	69 e0       	ldi	r22, 0x09	; 9
    53bc:	f0 d0       	rcall	.+480    	; 0x559e <serial_sendBytes>
    53be:	80 e0       	ldi	r24, 0x00	; 0
    53c0:	01 c0       	rjmp	.+2      	; 0x53c4 <mh_z19_takeMeassuring+0x4c>
    53c2:	82 e0       	ldi	r24, 0x02	; 2
    53c4:	29 96       	adiw	r28, 0x09	; 9
    53c6:	0f b6       	in	r0, 0x3f	; 63
    53c8:	f8 94       	cli
    53ca:	de bf       	out	0x3e, r29	; 62
    53cc:	0f be       	out	0x3f, r0	; 63
    53ce:	cd bf       	out	0x3d, r28	; 61
    53d0:	df 91       	pop	r29
    53d2:	cf 91       	pop	r28
    53d4:	08 95       	ret

000053d6 <mh_z19_getCo2Ppm>:
    53d6:	20 91 5d 15 	lds	r18, 0x155D	; 0x80155d <_ppm>
    53da:	30 91 5e 15 	lds	r19, 0x155E	; 0x80155e <_ppm+0x1>
    53de:	21 15       	cp	r18, r1
    53e0:	31 05       	cpc	r19, r1
    53e2:	29 f4       	brne	.+10     	; 0x53ee <mh_z19_getCo2Ppm+0x18>
    53e4:	fc 01       	movw	r30, r24
    53e6:	11 82       	std	Z+1, r1	; 0x01
    53e8:	10 82       	st	Z, r1
    53ea:	81 e0       	ldi	r24, 0x01	; 1
    53ec:	08 95       	ret
    53ee:	fc 01       	movw	r30, r24
    53f0:	31 83       	std	Z+1, r19	; 0x01
    53f2:	20 83       	st	Z, r18
    53f4:	80 e0       	ldi	r24, 0x00	; 0
    53f6:	08 95       	ret

000053f8 <serial_create>:
    53f8:	2f 92       	push	r2
    53fa:	3f 92       	push	r3
    53fc:	4f 92       	push	r4
    53fe:	5f 92       	push	r5
    5400:	6f 92       	push	r6
    5402:	7f 92       	push	r7
    5404:	8f 92       	push	r8
    5406:	9f 92       	push	r9
    5408:	af 92       	push	r10
    540a:	cf 92       	push	r12
    540c:	ef 92       	push	r14
    540e:	ff 92       	push	r15
    5410:	0f 93       	push	r16
    5412:	1f 93       	push	r17
    5414:	cf 93       	push	r28
    5416:	df 93       	push	r29
    5418:	cd b7       	in	r28, 0x3d	; 61
    541a:	de b7       	in	r29, 0x3e	; 62
    541c:	f8 2e       	mov	r15, r24
    541e:	2a 01       	movw	r4, r20
    5420:	3b 01       	movw	r6, r22
    5422:	88 e0       	ldi	r24, 0x08	; 8
    5424:	90 e0       	ldi	r25, 0x00	; 0
    5426:	0e 94 86 35 	call	0x6b0c	; 0x6b0c <malloc>
    542a:	8c 01       	movw	r16, r24
    542c:	8f 2d       	mov	r24, r15
    542e:	90 e0       	ldi	r25, 0x00	; 0
    5430:	fc 01       	movw	r30, r24
    5432:	ee 0f       	add	r30, r30
    5434:	ff 1f       	adc	r31, r31
    5436:	ef 59       	subi	r30, 0x9F	; 159
    5438:	fa 4e       	sbci	r31, 0xEA	; 234
    543a:	11 83       	std	Z+1, r17	; 0x01
    543c:	00 83       	st	Z, r16
    543e:	01 15       	cp	r16, r1
    5440:	11 05       	cpc	r17, r1
    5442:	09 f4       	brne	.+2      	; 0x5446 <serial_create+0x4e>
    5444:	6f c0       	rjmp	.+222    	; 0x5524 <serial_create+0x12c>
    5446:	88 0f       	add	r24, r24
    5448:	99 1f       	adc	r25, r25
    544a:	fc 01       	movw	r30, r24
    544c:	e5 5f       	subi	r30, 0xF5	; 245
    544e:	fd 4f       	sbci	r31, 0xFD	; 253
    5450:	80 81       	ld	r24, Z
    5452:	91 81       	ldd	r25, Z+1	; 0x01
    5454:	d8 01       	movw	r26, r16
    5456:	8d 93       	st	X+, r24
    5458:	9c 93       	st	X, r25
    545a:	6c 2d       	mov	r22, r12
    545c:	70 e0       	ldi	r23, 0x00	; 0
    545e:	84 e0       	ldi	r24, 0x04	; 4
    5460:	90 e0       	ldi	r25, 0x00	; 0
    5462:	0e 94 6c 35 	call	0x6ad8	; 0x6ad8 <calloc>
    5466:	1c 01       	movw	r2, r24
    5468:	61 e0       	ldi	r22, 0x01	; 1
    546a:	70 e0       	ldi	r23, 0x00	; 0
    546c:	86 e0       	ldi	r24, 0x06	; 6
    546e:	90 e0       	ldi	r25, 0x00	; 0
    5470:	0e 94 6c 35 	call	0x6ad8	; 0x6ad8 <calloc>
    5474:	7c 01       	movw	r14, r24
    5476:	4c 2d       	mov	r20, r12
    5478:	b1 01       	movw	r22, r2
    547a:	0e 94 bc 32 	call	0x6578	; 0x6578 <fifo_init>
    547e:	f8 01       	movw	r30, r16
    5480:	f5 82       	std	Z+5, r15	; 0x05
    5482:	e4 82       	std	Z+4, r14	; 0x04
    5484:	6a 2d       	mov	r22, r10
    5486:	70 e0       	ldi	r23, 0x00	; 0
    5488:	84 e0       	ldi	r24, 0x04	; 4
    548a:	90 e0       	ldi	r25, 0x00	; 0
    548c:	0e 94 6c 35 	call	0x6ad8	; 0x6ad8 <calloc>
    5490:	1c 01       	movw	r2, r24
    5492:	61 e0       	ldi	r22, 0x01	; 1
    5494:	70 e0       	ldi	r23, 0x00	; 0
    5496:	86 e0       	ldi	r24, 0x06	; 6
    5498:	90 e0       	ldi	r25, 0x00	; 0
    549a:	0e 94 6c 35 	call	0x6ad8	; 0x6ad8 <calloc>
    549e:	7c 01       	movw	r14, r24
    54a0:	4a 2d       	mov	r20, r10
    54a2:	b1 01       	movw	r22, r2
    54a4:	0e 94 bc 32 	call	0x6578	; 0x6578 <fifo_init>
    54a8:	d8 01       	movw	r26, r16
    54aa:	13 96       	adiw	r26, 0x03	; 3
    54ac:	fc 92       	st	X, r15
    54ae:	ee 92       	st	-X, r14
    54b0:	12 97       	sbiw	r26, 0x02	; 2
    54b2:	17 96       	adiw	r26, 0x07	; 7
    54b4:	9c 92       	st	X, r9
    54b6:	8e 92       	st	-X, r8
    54b8:	16 97       	sbiw	r26, 0x06	; 6
    54ba:	ff b6       	in	r15, 0x3f	; 63
    54bc:	f8 94       	cli
    54be:	ed 91       	ld	r30, X+
    54c0:	fc 91       	ld	r31, X
    54c2:	11 97       	sbiw	r26, 0x01	; 1
    54c4:	36 97       	sbiw	r30, 0x06	; 6
    54c6:	80 81       	ld	r24, Z
    54c8:	82 60       	ori	r24, 0x02	; 2
    54ca:	80 83       	st	Z, r24
    54cc:	8d 90       	ld	r8, X+
    54ce:	9c 90       	ld	r9, X
    54d0:	c3 01       	movw	r24, r6
    54d2:	b2 01       	movw	r22, r4
    54d4:	0e 94 cb 21 	call	0x4396	; 0x4396 <__floatunsisf>
    54d8:	20 e0       	ldi	r18, 0x00	; 0
    54da:	30 e0       	ldi	r19, 0x00	; 0
    54dc:	40 e0       	ldi	r20, 0x00	; 0
    54de:	51 e4       	ldi	r21, 0x41	; 65
    54e0:	0e 94 59 22 	call	0x44b2	; 0x44b2 <__mulsf3>
    54e4:	9b 01       	movw	r18, r22
    54e6:	ac 01       	movw	r20, r24
    54e8:	60 e0       	ldi	r22, 0x00	; 0
    54ea:	74 e2       	ldi	r23, 0x24	; 36
    54ec:	84 e7       	ldi	r24, 0x74	; 116
    54ee:	9b e4       	ldi	r25, 0x4B	; 75
    54f0:	0e 94 32 21 	call	0x4264	; 0x4264 <__divsf3>
    54f4:	20 e0       	ldi	r18, 0x00	; 0
    54f6:	30 e0       	ldi	r19, 0x00	; 0
    54f8:	40 e8       	ldi	r20, 0x80	; 128
    54fa:	5f e3       	ldi	r21, 0x3F	; 63
    54fc:	0e 94 d8 32 	call	0x65b0	; 0x65b0 <__subsf3>
    5500:	0e 94 9f 21 	call	0x433e	; 0x433e <__fixunssfsi>
    5504:	f4 01       	movw	r30, r8
    5506:	32 97       	sbiw	r30, 0x02	; 2
    5508:	60 83       	st	Z, r22
    550a:	d8 01       	movw	r26, r16
    550c:	ed 91       	ld	r30, X+
    550e:	fc 91       	ld	r31, X
    5510:	11 97       	sbiw	r26, 0x01	; 1
    5512:	35 97       	sbiw	r30, 0x05	; 5
    5514:	88 e9       	ldi	r24, 0x98	; 152
    5516:	80 83       	st	Z, r24
    5518:	ed 91       	ld	r30, X+
    551a:	fc 91       	ld	r31, X
    551c:	34 97       	sbiw	r30, 0x04	; 4
    551e:	86 e0       	ldi	r24, 0x06	; 6
    5520:	80 83       	st	Z, r24
    5522:	ff be       	out	0x3f, r15	; 63
    5524:	c8 01       	movw	r24, r16
    5526:	df 91       	pop	r29
    5528:	cf 91       	pop	r28
    552a:	1f 91       	pop	r17
    552c:	0f 91       	pop	r16
    552e:	ff 90       	pop	r15
    5530:	ef 90       	pop	r14
    5532:	cf 90       	pop	r12
    5534:	af 90       	pop	r10
    5536:	9f 90       	pop	r9
    5538:	8f 90       	pop	r8
    553a:	7f 90       	pop	r7
    553c:	6f 90       	pop	r6
    553e:	5f 90       	pop	r5
    5540:	4f 90       	pop	r4
    5542:	3f 90       	pop	r3
    5544:	2f 90       	pop	r2
    5546:	08 95       	ret

00005548 <serial_sendByte>:
    5548:	cf 93       	push	r28
    554a:	df 93       	push	r29
    554c:	dc 01       	movw	r26, r24
    554e:	89 2b       	or	r24, r25
    5550:	01 f1       	breq	.+64     	; 0x5592 <serial_sendByte+0x4a>
    5552:	12 96       	adiw	r26, 0x02	; 2
    5554:	ed 91       	ld	r30, X+
    5556:	fc 91       	ld	r31, X
    5558:	13 97       	sbiw	r26, 0x03	; 3
    555a:	93 81       	ldd	r25, Z+3	; 0x03
    555c:	82 81       	ldd	r24, Z+2	; 0x02
    555e:	25 81       	ldd	r18, Z+5	; 0x05
    5560:	98 1b       	sub	r25, r24
    5562:	92 23       	and	r25, r18
    5564:	84 81       	ldd	r24, Z+4	; 0x04
    5566:	98 17       	cp	r25, r24
    5568:	b1 f0       	breq	.+44     	; 0x5596 <serial_sendByte+0x4e>
    556a:	83 81       	ldd	r24, Z+3	; 0x03
    556c:	26 95       	lsr	r18
    556e:	28 23       	and	r18, r24
    5570:	c0 81       	ld	r28, Z
    5572:	d1 81       	ldd	r29, Z+1	; 0x01
    5574:	c2 0f       	add	r28, r18
    5576:	d1 1d       	adc	r29, r1
    5578:	68 83       	st	Y, r22
    557a:	8f 5f       	subi	r24, 0xFF	; 255
    557c:	95 81       	ldd	r25, Z+5	; 0x05
    557e:	89 23       	and	r24, r25
    5580:	83 83       	std	Z+3, r24	; 0x03
    5582:	ed 91       	ld	r30, X+
    5584:	fc 91       	ld	r31, X
    5586:	35 97       	sbiw	r30, 0x05	; 5
    5588:	80 81       	ld	r24, Z
    558a:	80 62       	ori	r24, 0x20	; 32
    558c:	80 83       	st	Z, r24
    558e:	80 e0       	ldi	r24, 0x00	; 0
    5590:	03 c0       	rjmp	.+6      	; 0x5598 <serial_sendByte+0x50>
    5592:	81 e0       	ldi	r24, 0x01	; 1
    5594:	01 c0       	rjmp	.+2      	; 0x5598 <serial_sendByte+0x50>
    5596:	82 e0       	ldi	r24, 0x02	; 2
    5598:	df 91       	pop	r29
    559a:	cf 91       	pop	r28
    559c:	08 95       	ret

0000559e <serial_sendBytes>:
    559e:	ef 92       	push	r14
    55a0:	ff 92       	push	r15
    55a2:	0f 93       	push	r16
    55a4:	1f 93       	push	r17
    55a6:	cf 93       	push	r28
    55a8:	df 93       	push	r29
    55aa:	7c 01       	movw	r14, r24
    55ac:	00 97       	sbiw	r24, 0x00	; 0
    55ae:	09 f4       	brne	.+2      	; 0x55b2 <serial_sendBytes+0x14>
    55b0:	41 c0       	rjmp	.+130    	; 0x5634 <serial_sendBytes+0x96>
    55b2:	dc 01       	movw	r26, r24
    55b4:	12 96       	adiw	r26, 0x02	; 2
    55b6:	ed 91       	ld	r30, X+
    55b8:	fc 91       	ld	r31, X
    55ba:	13 97       	sbiw	r26, 0x03	; 3
    55bc:	93 81       	ldd	r25, Z+3	; 0x03
    55be:	82 81       	ldd	r24, Z+2	; 0x02
    55c0:	98 1b       	sub	r25, r24
    55c2:	85 81       	ldd	r24, Z+5	; 0x05
    55c4:	98 23       	and	r25, r24
    55c6:	84 81       	ldd	r24, Z+4	; 0x04
    55c8:	89 1b       	sub	r24, r25
    55ca:	86 17       	cp	r24, r22
    55cc:	a8 f1       	brcs	.+106    	; 0x5638 <serial_sendBytes+0x9a>
    55ce:	66 23       	and	r22, r22
    55d0:	41 f1       	breq	.+80     	; 0x5622 <serial_sendBytes+0x84>
    55d2:	84 2f       	mov	r24, r20
    55d4:	95 2f       	mov	r25, r21
    55d6:	dc 01       	movw	r26, r24
    55d8:	61 50       	subi	r22, 0x01	; 1
    55da:	46 2f       	mov	r20, r22
    55dc:	50 e0       	ldi	r21, 0x00	; 0
    55de:	4f 5f       	subi	r20, 0xFF	; 255
    55e0:	5f 4f       	sbci	r21, 0xFF	; 255
    55e2:	48 0f       	add	r20, r24
    55e4:	59 1f       	adc	r21, r25
    55e6:	e7 01       	movw	r28, r14
    55e8:	ea 81       	ldd	r30, Y+2	; 0x02
    55ea:	fb 81       	ldd	r31, Y+3	; 0x03
    55ec:	93 81       	ldd	r25, Z+3	; 0x03
    55ee:	82 81       	ldd	r24, Z+2	; 0x02
    55f0:	25 81       	ldd	r18, Z+5	; 0x05
    55f2:	98 1b       	sub	r25, r24
    55f4:	92 23       	and	r25, r18
    55f6:	84 81       	ldd	r24, Z+4	; 0x04
    55f8:	98 17       	cp	r25, r24
    55fa:	79 f0       	breq	.+30     	; 0x561a <serial_sendBytes+0x7c>
    55fc:	8c 91       	ld	r24, X
    55fe:	93 81       	ldd	r25, Z+3	; 0x03
    5600:	26 95       	lsr	r18
    5602:	29 23       	and	r18, r25
    5604:	60 81       	ld	r22, Z
    5606:	71 81       	ldd	r23, Z+1	; 0x01
    5608:	8b 01       	movw	r16, r22
    560a:	02 0f       	add	r16, r18
    560c:	11 1d       	adc	r17, r1
    560e:	e8 01       	movw	r28, r16
    5610:	88 83       	st	Y, r24
    5612:	9f 5f       	subi	r25, 0xFF	; 255
    5614:	85 81       	ldd	r24, Z+5	; 0x05
    5616:	98 23       	and	r25, r24
    5618:	93 83       	std	Z+3, r25	; 0x03
    561a:	11 96       	adiw	r26, 0x01	; 1
    561c:	a4 17       	cp	r26, r20
    561e:	b5 07       	cpc	r27, r21
    5620:	11 f7       	brne	.-60     	; 0x55e6 <serial_sendBytes+0x48>
    5622:	d7 01       	movw	r26, r14
    5624:	ed 91       	ld	r30, X+
    5626:	fc 91       	ld	r31, X
    5628:	35 97       	sbiw	r30, 0x05	; 5
    562a:	80 81       	ld	r24, Z
    562c:	80 62       	ori	r24, 0x20	; 32
    562e:	80 83       	st	Z, r24
    5630:	80 e0       	ldi	r24, 0x00	; 0
    5632:	03 c0       	rjmp	.+6      	; 0x563a <serial_sendBytes+0x9c>
    5634:	81 e0       	ldi	r24, 0x01	; 1
    5636:	01 c0       	rjmp	.+2      	; 0x563a <serial_sendBytes+0x9c>
    5638:	82 e0       	ldi	r24, 0x02	; 2
    563a:	df 91       	pop	r29
    563c:	cf 91       	pop	r28
    563e:	1f 91       	pop	r17
    5640:	0f 91       	pop	r16
    5642:	ff 90       	pop	r15
    5644:	ef 90       	pop	r14
    5646:	08 95       	ret

00005648 <serial_getByte>:
    5648:	00 97       	sbiw	r24, 0x00	; 0
    564a:	d1 f0       	breq	.+52     	; 0x5680 <serial_getByte+0x38>
    564c:	dc 01       	movw	r26, r24
    564e:	14 96       	adiw	r26, 0x04	; 4
    5650:	ed 91       	ld	r30, X+
    5652:	fc 91       	ld	r31, X
    5654:	15 97       	sbiw	r26, 0x05	; 5
    5656:	93 81       	ldd	r25, Z+3	; 0x03
    5658:	82 81       	ldd	r24, Z+2	; 0x02
    565a:	98 17       	cp	r25, r24
    565c:	99 f0       	breq	.+38     	; 0x5684 <serial_getByte+0x3c>
    565e:	92 81       	ldd	r25, Z+2	; 0x02
    5660:	85 81       	ldd	r24, Z+5	; 0x05
    5662:	86 95       	lsr	r24
    5664:	89 23       	and	r24, r25
    5666:	a0 81       	ld	r26, Z
    5668:	b1 81       	ldd	r27, Z+1	; 0x01
    566a:	a8 0f       	add	r26, r24
    566c:	b1 1d       	adc	r27, r1
    566e:	8c 91       	ld	r24, X
    5670:	db 01       	movw	r26, r22
    5672:	8c 93       	st	X, r24
    5674:	9f 5f       	subi	r25, 0xFF	; 255
    5676:	85 81       	ldd	r24, Z+5	; 0x05
    5678:	98 23       	and	r25, r24
    567a:	92 83       	std	Z+2, r25	; 0x02
    567c:	80 e0       	ldi	r24, 0x00	; 0
    567e:	08 95       	ret
    5680:	81 e0       	ldi	r24, 0x01	; 1
    5682:	08 95       	ret
    5684:	83 e0       	ldi	r24, 0x03	; 3
    5686:	08 95       	ret

00005688 <__vector_25>:
    5688:	1f 92       	push	r1
    568a:	0f 92       	push	r0
    568c:	0f b6       	in	r0, 0x3f	; 63
    568e:	0f 92       	push	r0
    5690:	11 24       	eor	r1, r1
    5692:	0b b6       	in	r0, 0x3b	; 59
    5694:	0f 92       	push	r0
    5696:	2f 93       	push	r18
    5698:	3f 93       	push	r19
    569a:	4f 93       	push	r20
    569c:	5f 93       	push	r21
    569e:	6f 93       	push	r22
    56a0:	7f 93       	push	r23
    56a2:	8f 93       	push	r24
    56a4:	9f 93       	push	r25
    56a6:	af 93       	push	r26
    56a8:	bf 93       	push	r27
    56aa:	cf 93       	push	r28
    56ac:	df 93       	push	r29
    56ae:	ef 93       	push	r30
    56b0:	ff 93       	push	r31
    56b2:	a0 91 61 15 	lds	r26, 0x1561	; 0x801561 <_ser_handle>
    56b6:	b0 91 62 15 	lds	r27, 0x1562	; 0x801562 <_ser_handle+0x1>
    56ba:	10 97       	sbiw	r26, 0x00	; 0
    56bc:	11 f1       	breq	.+68     	; 0x5702 <__vector_25+0x7a>
    56be:	60 91 c6 00 	lds	r22, 0x00C6	; 0x8000c6 <__TEXT_REGION_LENGTH__+0x7000c6>
    56c2:	14 96       	adiw	r26, 0x04	; 4
    56c4:	ed 91       	ld	r30, X+
    56c6:	fc 91       	ld	r31, X
    56c8:	15 97       	sbiw	r26, 0x05	; 5
    56ca:	93 81       	ldd	r25, Z+3	; 0x03
    56cc:	82 81       	ldd	r24, Z+2	; 0x02
    56ce:	25 81       	ldd	r18, Z+5	; 0x05
    56d0:	98 1b       	sub	r25, r24
    56d2:	92 23       	and	r25, r18
    56d4:	84 81       	ldd	r24, Z+4	; 0x04
    56d6:	98 17       	cp	r25, r24
    56d8:	61 f0       	breq	.+24     	; 0x56f2 <__vector_25+0x6a>
    56da:	83 81       	ldd	r24, Z+3	; 0x03
    56dc:	26 95       	lsr	r18
    56de:	28 23       	and	r18, r24
    56e0:	c0 81       	ld	r28, Z
    56e2:	d1 81       	ldd	r29, Z+1	; 0x01
    56e4:	c2 0f       	add	r28, r18
    56e6:	d1 1d       	adc	r29, r1
    56e8:	68 83       	st	Y, r22
    56ea:	8f 5f       	subi	r24, 0xFF	; 255
    56ec:	95 81       	ldd	r25, Z+5	; 0x05
    56ee:	89 23       	and	r24, r25
    56f0:	83 83       	std	Z+3, r24	; 0x03
    56f2:	16 96       	adiw	r26, 0x06	; 6
    56f4:	ed 91       	ld	r30, X+
    56f6:	fc 91       	ld	r31, X
    56f8:	17 97       	sbiw	r26, 0x07	; 7
    56fa:	30 97       	sbiw	r30, 0x00	; 0
    56fc:	11 f0       	breq	.+4      	; 0x5702 <__vector_25+0x7a>
    56fe:	cd 01       	movw	r24, r26
    5700:	19 95       	eicall
    5702:	ff 91       	pop	r31
    5704:	ef 91       	pop	r30
    5706:	df 91       	pop	r29
    5708:	cf 91       	pop	r28
    570a:	bf 91       	pop	r27
    570c:	af 91       	pop	r26
    570e:	9f 91       	pop	r25
    5710:	8f 91       	pop	r24
    5712:	7f 91       	pop	r23
    5714:	6f 91       	pop	r22
    5716:	5f 91       	pop	r21
    5718:	4f 91       	pop	r20
    571a:	3f 91       	pop	r19
    571c:	2f 91       	pop	r18
    571e:	0f 90       	pop	r0
    5720:	0b be       	out	0x3b, r0	; 59
    5722:	0f 90       	pop	r0
    5724:	0f be       	out	0x3f, r0	; 63
    5726:	0f 90       	pop	r0
    5728:	1f 90       	pop	r1
    572a:	18 95       	reti

0000572c <__vector_26>:
    572c:	1f 92       	push	r1
    572e:	0f 92       	push	r0
    5730:	0f b6       	in	r0, 0x3f	; 63
    5732:	0f 92       	push	r0
    5734:	11 24       	eor	r1, r1
    5736:	0b b6       	in	r0, 0x3b	; 59
    5738:	0f 92       	push	r0
    573a:	2f 93       	push	r18
    573c:	8f 93       	push	r24
    573e:	9f 93       	push	r25
    5740:	af 93       	push	r26
    5742:	bf 93       	push	r27
    5744:	ef 93       	push	r30
    5746:	ff 93       	push	r31
    5748:	e0 91 61 15 	lds	r30, 0x1561	; 0x801561 <_ser_handle>
    574c:	f0 91 62 15 	lds	r31, 0x1562	; 0x801562 <_ser_handle+0x1>
    5750:	30 97       	sbiw	r30, 0x00	; 0
    5752:	b9 f0       	breq	.+46     	; 0x5782 <__vector_26+0x56>
    5754:	02 80       	ldd	r0, Z+2	; 0x02
    5756:	f3 81       	ldd	r31, Z+3	; 0x03
    5758:	e0 2d       	mov	r30, r0
    575a:	93 81       	ldd	r25, Z+3	; 0x03
    575c:	82 81       	ldd	r24, Z+2	; 0x02
    575e:	98 17       	cp	r25, r24
    5760:	b1 f0       	breq	.+44     	; 0x578e <__vector_26+0x62>
    5762:	92 81       	ldd	r25, Z+2	; 0x02
    5764:	85 81       	ldd	r24, Z+5	; 0x05
    5766:	28 2f       	mov	r18, r24
    5768:	26 95       	lsr	r18
    576a:	29 23       	and	r18, r25
    576c:	a0 81       	ld	r26, Z
    576e:	b1 81       	ldd	r27, Z+1	; 0x01
    5770:	a2 0f       	add	r26, r18
    5772:	b1 1d       	adc	r27, r1
    5774:	2c 91       	ld	r18, X
    5776:	9f 5f       	subi	r25, 0xFF	; 255
    5778:	89 23       	and	r24, r25
    577a:	82 83       	std	Z+2, r24	; 0x02
    577c:	20 93 c6 00 	sts	0x00C6, r18	; 0x8000c6 <__TEXT_REGION_LENGTH__+0x7000c6>
    5780:	0b c0       	rjmp	.+22     	; 0x5798 <__vector_26+0x6c>
    5782:	e1 ec       	ldi	r30, 0xC1	; 193
    5784:	f0 e0       	ldi	r31, 0x00	; 0
    5786:	80 81       	ld	r24, Z
    5788:	8f 7d       	andi	r24, 0xDF	; 223
    578a:	80 83       	st	Z, r24
    578c:	05 c0       	rjmp	.+10     	; 0x5798 <__vector_26+0x6c>
    578e:	e1 ec       	ldi	r30, 0xC1	; 193
    5790:	f0 e0       	ldi	r31, 0x00	; 0
    5792:	80 81       	ld	r24, Z
    5794:	8f 7d       	andi	r24, 0xDF	; 223
    5796:	80 83       	st	Z, r24
    5798:	ff 91       	pop	r31
    579a:	ef 91       	pop	r30
    579c:	bf 91       	pop	r27
    579e:	af 91       	pop	r26
    57a0:	9f 91       	pop	r25
    57a2:	8f 91       	pop	r24
    57a4:	2f 91       	pop	r18
    57a6:	0f 90       	pop	r0
    57a8:	0b be       	out	0x3b, r0	; 59
    57aa:	0f 90       	pop	r0
    57ac:	0f be       	out	0x3f, r0	; 63
    57ae:	0f 90       	pop	r0
    57b0:	1f 90       	pop	r1
    57b2:	18 95       	reti

000057b4 <__vector_36>:
    57b4:	1f 92       	push	r1
    57b6:	0f 92       	push	r0
    57b8:	0f b6       	in	r0, 0x3f	; 63
    57ba:	0f 92       	push	r0
    57bc:	11 24       	eor	r1, r1
    57be:	0b b6       	in	r0, 0x3b	; 59
    57c0:	0f 92       	push	r0
    57c2:	2f 93       	push	r18
    57c4:	3f 93       	push	r19
    57c6:	4f 93       	push	r20
    57c8:	5f 93       	push	r21
    57ca:	6f 93       	push	r22
    57cc:	7f 93       	push	r23
    57ce:	8f 93       	push	r24
    57d0:	9f 93       	push	r25
    57d2:	af 93       	push	r26
    57d4:	bf 93       	push	r27
    57d6:	cf 93       	push	r28
    57d8:	df 93       	push	r29
    57da:	ef 93       	push	r30
    57dc:	ff 93       	push	r31
    57de:	a0 91 63 15 	lds	r26, 0x1563	; 0x801563 <_ser_handle+0x2>
    57e2:	b0 91 64 15 	lds	r27, 0x1564	; 0x801564 <_ser_handle+0x3>
    57e6:	10 97       	sbiw	r26, 0x00	; 0
    57e8:	11 f1       	breq	.+68     	; 0x582e <__vector_36+0x7a>
    57ea:	60 91 ce 00 	lds	r22, 0x00CE	; 0x8000ce <__TEXT_REGION_LENGTH__+0x7000ce>
    57ee:	14 96       	adiw	r26, 0x04	; 4
    57f0:	ed 91       	ld	r30, X+
    57f2:	fc 91       	ld	r31, X
    57f4:	15 97       	sbiw	r26, 0x05	; 5
    57f6:	93 81       	ldd	r25, Z+3	; 0x03
    57f8:	82 81       	ldd	r24, Z+2	; 0x02
    57fa:	25 81       	ldd	r18, Z+5	; 0x05
    57fc:	98 1b       	sub	r25, r24
    57fe:	92 23       	and	r25, r18
    5800:	84 81       	ldd	r24, Z+4	; 0x04
    5802:	98 17       	cp	r25, r24
    5804:	61 f0       	breq	.+24     	; 0x581e <__vector_36+0x6a>
    5806:	83 81       	ldd	r24, Z+3	; 0x03
    5808:	26 95       	lsr	r18
    580a:	28 23       	and	r18, r24
    580c:	c0 81       	ld	r28, Z
    580e:	d1 81       	ldd	r29, Z+1	; 0x01
    5810:	c2 0f       	add	r28, r18
    5812:	d1 1d       	adc	r29, r1
    5814:	68 83       	st	Y, r22
    5816:	8f 5f       	subi	r24, 0xFF	; 255
    5818:	95 81       	ldd	r25, Z+5	; 0x05
    581a:	89 23       	and	r24, r25
    581c:	83 83       	std	Z+3, r24	; 0x03
    581e:	16 96       	adiw	r26, 0x06	; 6
    5820:	ed 91       	ld	r30, X+
    5822:	fc 91       	ld	r31, X
    5824:	17 97       	sbiw	r26, 0x07	; 7
    5826:	30 97       	sbiw	r30, 0x00	; 0
    5828:	11 f0       	breq	.+4      	; 0x582e <__vector_36+0x7a>
    582a:	cd 01       	movw	r24, r26
    582c:	19 95       	eicall
    582e:	ff 91       	pop	r31
    5830:	ef 91       	pop	r30
    5832:	df 91       	pop	r29
    5834:	cf 91       	pop	r28
    5836:	bf 91       	pop	r27
    5838:	af 91       	pop	r26
    583a:	9f 91       	pop	r25
    583c:	8f 91       	pop	r24
    583e:	7f 91       	pop	r23
    5840:	6f 91       	pop	r22
    5842:	5f 91       	pop	r21
    5844:	4f 91       	pop	r20
    5846:	3f 91       	pop	r19
    5848:	2f 91       	pop	r18
    584a:	0f 90       	pop	r0
    584c:	0b be       	out	0x3b, r0	; 59
    584e:	0f 90       	pop	r0
    5850:	0f be       	out	0x3f, r0	; 63
    5852:	0f 90       	pop	r0
    5854:	1f 90       	pop	r1
    5856:	18 95       	reti

00005858 <__vector_37>:
    5858:	1f 92       	push	r1
    585a:	0f 92       	push	r0
    585c:	0f b6       	in	r0, 0x3f	; 63
    585e:	0f 92       	push	r0
    5860:	11 24       	eor	r1, r1
    5862:	0b b6       	in	r0, 0x3b	; 59
    5864:	0f 92       	push	r0
    5866:	2f 93       	push	r18
    5868:	8f 93       	push	r24
    586a:	9f 93       	push	r25
    586c:	af 93       	push	r26
    586e:	bf 93       	push	r27
    5870:	ef 93       	push	r30
    5872:	ff 93       	push	r31
    5874:	e0 91 63 15 	lds	r30, 0x1563	; 0x801563 <_ser_handle+0x2>
    5878:	f0 91 64 15 	lds	r31, 0x1564	; 0x801564 <_ser_handle+0x3>
    587c:	30 97       	sbiw	r30, 0x00	; 0
    587e:	b9 f0       	breq	.+46     	; 0x58ae <__vector_37+0x56>
    5880:	02 80       	ldd	r0, Z+2	; 0x02
    5882:	f3 81       	ldd	r31, Z+3	; 0x03
    5884:	e0 2d       	mov	r30, r0
    5886:	93 81       	ldd	r25, Z+3	; 0x03
    5888:	82 81       	ldd	r24, Z+2	; 0x02
    588a:	98 17       	cp	r25, r24
    588c:	b1 f0       	breq	.+44     	; 0x58ba <__vector_37+0x62>
    588e:	92 81       	ldd	r25, Z+2	; 0x02
    5890:	85 81       	ldd	r24, Z+5	; 0x05
    5892:	28 2f       	mov	r18, r24
    5894:	26 95       	lsr	r18
    5896:	29 23       	and	r18, r25
    5898:	a0 81       	ld	r26, Z
    589a:	b1 81       	ldd	r27, Z+1	; 0x01
    589c:	a2 0f       	add	r26, r18
    589e:	b1 1d       	adc	r27, r1
    58a0:	2c 91       	ld	r18, X
    58a2:	9f 5f       	subi	r25, 0xFF	; 255
    58a4:	89 23       	and	r24, r25
    58a6:	82 83       	std	Z+2, r24	; 0x02
    58a8:	20 93 ce 00 	sts	0x00CE, r18	; 0x8000ce <__TEXT_REGION_LENGTH__+0x7000ce>
    58ac:	0b c0       	rjmp	.+22     	; 0x58c4 <__vector_37+0x6c>
    58ae:	e9 ec       	ldi	r30, 0xC9	; 201
    58b0:	f0 e0       	ldi	r31, 0x00	; 0
    58b2:	80 81       	ld	r24, Z
    58b4:	8f 7d       	andi	r24, 0xDF	; 223
    58b6:	80 83       	st	Z, r24
    58b8:	05 c0       	rjmp	.+10     	; 0x58c4 <__vector_37+0x6c>
    58ba:	e9 ec       	ldi	r30, 0xC9	; 201
    58bc:	f0 e0       	ldi	r31, 0x00	; 0
    58be:	80 81       	ld	r24, Z
    58c0:	8f 7d       	andi	r24, 0xDF	; 223
    58c2:	80 83       	st	Z, r24
    58c4:	ff 91       	pop	r31
    58c6:	ef 91       	pop	r30
    58c8:	bf 91       	pop	r27
    58ca:	af 91       	pop	r26
    58cc:	9f 91       	pop	r25
    58ce:	8f 91       	pop	r24
    58d0:	2f 91       	pop	r18
    58d2:	0f 90       	pop	r0
    58d4:	0b be       	out	0x3b, r0	; 59
    58d6:	0f 90       	pop	r0
    58d8:	0f be       	out	0x3f, r0	; 63
    58da:	0f 90       	pop	r0
    58dc:	1f 90       	pop	r1
    58de:	18 95       	reti

000058e0 <__vector_51>:
    58e0:	1f 92       	push	r1
    58e2:	0f 92       	push	r0
    58e4:	0f b6       	in	r0, 0x3f	; 63
    58e6:	0f 92       	push	r0
    58e8:	11 24       	eor	r1, r1
    58ea:	0b b6       	in	r0, 0x3b	; 59
    58ec:	0f 92       	push	r0
    58ee:	2f 93       	push	r18
    58f0:	3f 93       	push	r19
    58f2:	4f 93       	push	r20
    58f4:	5f 93       	push	r21
    58f6:	6f 93       	push	r22
    58f8:	7f 93       	push	r23
    58fa:	8f 93       	push	r24
    58fc:	9f 93       	push	r25
    58fe:	af 93       	push	r26
    5900:	bf 93       	push	r27
    5902:	cf 93       	push	r28
    5904:	df 93       	push	r29
    5906:	ef 93       	push	r30
    5908:	ff 93       	push	r31
    590a:	a0 91 65 15 	lds	r26, 0x1565	; 0x801565 <_ser_handle+0x4>
    590e:	b0 91 66 15 	lds	r27, 0x1566	; 0x801566 <_ser_handle+0x5>
    5912:	10 97       	sbiw	r26, 0x00	; 0
    5914:	11 f1       	breq	.+68     	; 0x595a <__vector_51+0x7a>
    5916:	60 91 d6 00 	lds	r22, 0x00D6	; 0x8000d6 <__TEXT_REGION_LENGTH__+0x7000d6>
    591a:	14 96       	adiw	r26, 0x04	; 4
    591c:	ed 91       	ld	r30, X+
    591e:	fc 91       	ld	r31, X
    5920:	15 97       	sbiw	r26, 0x05	; 5
    5922:	93 81       	ldd	r25, Z+3	; 0x03
    5924:	82 81       	ldd	r24, Z+2	; 0x02
    5926:	25 81       	ldd	r18, Z+5	; 0x05
    5928:	98 1b       	sub	r25, r24
    592a:	92 23       	and	r25, r18
    592c:	84 81       	ldd	r24, Z+4	; 0x04
    592e:	98 17       	cp	r25, r24
    5930:	61 f0       	breq	.+24     	; 0x594a <__vector_51+0x6a>
    5932:	83 81       	ldd	r24, Z+3	; 0x03
    5934:	26 95       	lsr	r18
    5936:	28 23       	and	r18, r24
    5938:	c0 81       	ld	r28, Z
    593a:	d1 81       	ldd	r29, Z+1	; 0x01
    593c:	c2 0f       	add	r28, r18
    593e:	d1 1d       	adc	r29, r1
    5940:	68 83       	st	Y, r22
    5942:	8f 5f       	subi	r24, 0xFF	; 255
    5944:	95 81       	ldd	r25, Z+5	; 0x05
    5946:	89 23       	and	r24, r25
    5948:	83 83       	std	Z+3, r24	; 0x03
    594a:	16 96       	adiw	r26, 0x06	; 6
    594c:	ed 91       	ld	r30, X+
    594e:	fc 91       	ld	r31, X
    5950:	17 97       	sbiw	r26, 0x07	; 7
    5952:	30 97       	sbiw	r30, 0x00	; 0
    5954:	11 f0       	breq	.+4      	; 0x595a <__vector_51+0x7a>
    5956:	cd 01       	movw	r24, r26
    5958:	19 95       	eicall
    595a:	ff 91       	pop	r31
    595c:	ef 91       	pop	r30
    595e:	df 91       	pop	r29
    5960:	cf 91       	pop	r28
    5962:	bf 91       	pop	r27
    5964:	af 91       	pop	r26
    5966:	9f 91       	pop	r25
    5968:	8f 91       	pop	r24
    596a:	7f 91       	pop	r23
    596c:	6f 91       	pop	r22
    596e:	5f 91       	pop	r21
    5970:	4f 91       	pop	r20
    5972:	3f 91       	pop	r19
    5974:	2f 91       	pop	r18
    5976:	0f 90       	pop	r0
    5978:	0b be       	out	0x3b, r0	; 59
    597a:	0f 90       	pop	r0
    597c:	0f be       	out	0x3f, r0	; 63
    597e:	0f 90       	pop	r0
    5980:	1f 90       	pop	r1
    5982:	18 95       	reti

00005984 <__vector_52>:
    5984:	1f 92       	push	r1
    5986:	0f 92       	push	r0
    5988:	0f b6       	in	r0, 0x3f	; 63
    598a:	0f 92       	push	r0
    598c:	11 24       	eor	r1, r1
    598e:	0b b6       	in	r0, 0x3b	; 59
    5990:	0f 92       	push	r0
    5992:	2f 93       	push	r18
    5994:	8f 93       	push	r24
    5996:	9f 93       	push	r25
    5998:	af 93       	push	r26
    599a:	bf 93       	push	r27
    599c:	ef 93       	push	r30
    599e:	ff 93       	push	r31
    59a0:	e0 91 65 15 	lds	r30, 0x1565	; 0x801565 <_ser_handle+0x4>
    59a4:	f0 91 66 15 	lds	r31, 0x1566	; 0x801566 <_ser_handle+0x5>
    59a8:	30 97       	sbiw	r30, 0x00	; 0
    59aa:	b9 f0       	breq	.+46     	; 0x59da <__vector_52+0x56>
    59ac:	02 80       	ldd	r0, Z+2	; 0x02
    59ae:	f3 81       	ldd	r31, Z+3	; 0x03
    59b0:	e0 2d       	mov	r30, r0
    59b2:	93 81       	ldd	r25, Z+3	; 0x03
    59b4:	82 81       	ldd	r24, Z+2	; 0x02
    59b6:	98 17       	cp	r25, r24
    59b8:	b1 f0       	breq	.+44     	; 0x59e6 <__vector_52+0x62>
    59ba:	92 81       	ldd	r25, Z+2	; 0x02
    59bc:	85 81       	ldd	r24, Z+5	; 0x05
    59be:	28 2f       	mov	r18, r24
    59c0:	26 95       	lsr	r18
    59c2:	29 23       	and	r18, r25
    59c4:	a0 81       	ld	r26, Z
    59c6:	b1 81       	ldd	r27, Z+1	; 0x01
    59c8:	a2 0f       	add	r26, r18
    59ca:	b1 1d       	adc	r27, r1
    59cc:	2c 91       	ld	r18, X
    59ce:	9f 5f       	subi	r25, 0xFF	; 255
    59d0:	89 23       	and	r24, r25
    59d2:	82 83       	std	Z+2, r24	; 0x02
    59d4:	20 93 d6 00 	sts	0x00D6, r18	; 0x8000d6 <__TEXT_REGION_LENGTH__+0x7000d6>
    59d8:	0b c0       	rjmp	.+22     	; 0x59f0 <__vector_52+0x6c>
    59da:	e1 ed       	ldi	r30, 0xD1	; 209
    59dc:	f0 e0       	ldi	r31, 0x00	; 0
    59de:	80 81       	ld	r24, Z
    59e0:	8f 7d       	andi	r24, 0xDF	; 223
    59e2:	80 83       	st	Z, r24
    59e4:	05 c0       	rjmp	.+10     	; 0x59f0 <__vector_52+0x6c>
    59e6:	e1 ed       	ldi	r30, 0xD1	; 209
    59e8:	f0 e0       	ldi	r31, 0x00	; 0
    59ea:	80 81       	ld	r24, Z
    59ec:	8f 7d       	andi	r24, 0xDF	; 223
    59ee:	80 83       	st	Z, r24
    59f0:	ff 91       	pop	r31
    59f2:	ef 91       	pop	r30
    59f4:	bf 91       	pop	r27
    59f6:	af 91       	pop	r26
    59f8:	9f 91       	pop	r25
    59fa:	8f 91       	pop	r24
    59fc:	2f 91       	pop	r18
    59fe:	0f 90       	pop	r0
    5a00:	0b be       	out	0x3b, r0	; 59
    5a02:	0f 90       	pop	r0
    5a04:	0f be       	out	0x3f, r0	; 63
    5a06:	0f 90       	pop	r0
    5a08:	1f 90       	pop	r1
    5a0a:	18 95       	reti

00005a0c <__vector_54>:
    5a0c:	1f 92       	push	r1
    5a0e:	0f 92       	push	r0
    5a10:	0f b6       	in	r0, 0x3f	; 63
    5a12:	0f 92       	push	r0
    5a14:	11 24       	eor	r1, r1
    5a16:	0b b6       	in	r0, 0x3b	; 59
    5a18:	0f 92       	push	r0
    5a1a:	2f 93       	push	r18
    5a1c:	3f 93       	push	r19
    5a1e:	4f 93       	push	r20
    5a20:	5f 93       	push	r21
    5a22:	6f 93       	push	r22
    5a24:	7f 93       	push	r23
    5a26:	8f 93       	push	r24
    5a28:	9f 93       	push	r25
    5a2a:	af 93       	push	r26
    5a2c:	bf 93       	push	r27
    5a2e:	cf 93       	push	r28
    5a30:	df 93       	push	r29
    5a32:	ef 93       	push	r30
    5a34:	ff 93       	push	r31
    5a36:	a0 91 67 15 	lds	r26, 0x1567	; 0x801567 <_ser_handle+0x6>
    5a3a:	b0 91 68 15 	lds	r27, 0x1568	; 0x801568 <_ser_handle+0x7>
    5a3e:	10 97       	sbiw	r26, 0x00	; 0
    5a40:	11 f1       	breq	.+68     	; 0x5a86 <__vector_54+0x7a>
    5a42:	60 91 36 01 	lds	r22, 0x0136	; 0x800136 <__TEXT_REGION_LENGTH__+0x700136>
    5a46:	14 96       	adiw	r26, 0x04	; 4
    5a48:	ed 91       	ld	r30, X+
    5a4a:	fc 91       	ld	r31, X
    5a4c:	15 97       	sbiw	r26, 0x05	; 5
    5a4e:	93 81       	ldd	r25, Z+3	; 0x03
    5a50:	82 81       	ldd	r24, Z+2	; 0x02
    5a52:	25 81       	ldd	r18, Z+5	; 0x05
    5a54:	98 1b       	sub	r25, r24
    5a56:	92 23       	and	r25, r18
    5a58:	84 81       	ldd	r24, Z+4	; 0x04
    5a5a:	98 17       	cp	r25, r24
    5a5c:	61 f0       	breq	.+24     	; 0x5a76 <__vector_54+0x6a>
    5a5e:	83 81       	ldd	r24, Z+3	; 0x03
    5a60:	26 95       	lsr	r18
    5a62:	28 23       	and	r18, r24
    5a64:	c0 81       	ld	r28, Z
    5a66:	d1 81       	ldd	r29, Z+1	; 0x01
    5a68:	c2 0f       	add	r28, r18
    5a6a:	d1 1d       	adc	r29, r1
    5a6c:	68 83       	st	Y, r22
    5a6e:	8f 5f       	subi	r24, 0xFF	; 255
    5a70:	95 81       	ldd	r25, Z+5	; 0x05
    5a72:	89 23       	and	r24, r25
    5a74:	83 83       	std	Z+3, r24	; 0x03
    5a76:	16 96       	adiw	r26, 0x06	; 6
    5a78:	ed 91       	ld	r30, X+
    5a7a:	fc 91       	ld	r31, X
    5a7c:	17 97       	sbiw	r26, 0x07	; 7
    5a7e:	30 97       	sbiw	r30, 0x00	; 0
    5a80:	11 f0       	breq	.+4      	; 0x5a86 <__vector_54+0x7a>
    5a82:	cd 01       	movw	r24, r26
    5a84:	19 95       	eicall
    5a86:	ff 91       	pop	r31
    5a88:	ef 91       	pop	r30
    5a8a:	df 91       	pop	r29
    5a8c:	cf 91       	pop	r28
    5a8e:	bf 91       	pop	r27
    5a90:	af 91       	pop	r26
    5a92:	9f 91       	pop	r25
    5a94:	8f 91       	pop	r24
    5a96:	7f 91       	pop	r23
    5a98:	6f 91       	pop	r22
    5a9a:	5f 91       	pop	r21
    5a9c:	4f 91       	pop	r20
    5a9e:	3f 91       	pop	r19
    5aa0:	2f 91       	pop	r18
    5aa2:	0f 90       	pop	r0
    5aa4:	0b be       	out	0x3b, r0	; 59
    5aa6:	0f 90       	pop	r0
    5aa8:	0f be       	out	0x3f, r0	; 63
    5aaa:	0f 90       	pop	r0
    5aac:	1f 90       	pop	r1
    5aae:	18 95       	reti

00005ab0 <__vector_55>:
    5ab0:	1f 92       	push	r1
    5ab2:	0f 92       	push	r0
    5ab4:	0f b6       	in	r0, 0x3f	; 63
    5ab6:	0f 92       	push	r0
    5ab8:	11 24       	eor	r1, r1
    5aba:	0b b6       	in	r0, 0x3b	; 59
    5abc:	0f 92       	push	r0
    5abe:	2f 93       	push	r18
    5ac0:	8f 93       	push	r24
    5ac2:	9f 93       	push	r25
    5ac4:	af 93       	push	r26
    5ac6:	bf 93       	push	r27
    5ac8:	ef 93       	push	r30
    5aca:	ff 93       	push	r31
    5acc:	e0 91 67 15 	lds	r30, 0x1567	; 0x801567 <_ser_handle+0x6>
    5ad0:	f0 91 68 15 	lds	r31, 0x1568	; 0x801568 <_ser_handle+0x7>
    5ad4:	30 97       	sbiw	r30, 0x00	; 0
    5ad6:	b9 f0       	breq	.+46     	; 0x5b06 <__vector_55+0x56>
    5ad8:	02 80       	ldd	r0, Z+2	; 0x02
    5ada:	f3 81       	ldd	r31, Z+3	; 0x03
    5adc:	e0 2d       	mov	r30, r0
    5ade:	93 81       	ldd	r25, Z+3	; 0x03
    5ae0:	82 81       	ldd	r24, Z+2	; 0x02
    5ae2:	98 17       	cp	r25, r24
    5ae4:	b1 f0       	breq	.+44     	; 0x5b12 <__vector_55+0x62>
    5ae6:	92 81       	ldd	r25, Z+2	; 0x02
    5ae8:	85 81       	ldd	r24, Z+5	; 0x05
    5aea:	28 2f       	mov	r18, r24
    5aec:	26 95       	lsr	r18
    5aee:	29 23       	and	r18, r25
    5af0:	a0 81       	ld	r26, Z
    5af2:	b1 81       	ldd	r27, Z+1	; 0x01
    5af4:	a2 0f       	add	r26, r18
    5af6:	b1 1d       	adc	r27, r1
    5af8:	2c 91       	ld	r18, X
    5afa:	9f 5f       	subi	r25, 0xFF	; 255
    5afc:	89 23       	and	r24, r25
    5afe:	82 83       	std	Z+2, r24	; 0x02
    5b00:	20 93 36 01 	sts	0x0136, r18	; 0x800136 <__TEXT_REGION_LENGTH__+0x700136>
    5b04:	0b c0       	rjmp	.+22     	; 0x5b1c <__vector_55+0x6c>
    5b06:	e1 e3       	ldi	r30, 0x31	; 49
    5b08:	f1 e0       	ldi	r31, 0x01	; 1
    5b0a:	80 81       	ld	r24, Z
    5b0c:	8f 7d       	andi	r24, 0xDF	; 223
    5b0e:	80 83       	st	Z, r24
    5b10:	05 c0       	rjmp	.+10     	; 0x5b1c <__vector_55+0x6c>
    5b12:	e1 e3       	ldi	r30, 0x31	; 49
    5b14:	f1 e0       	ldi	r31, 0x01	; 1
    5b16:	80 81       	ld	r24, Z
    5b18:	8f 7d       	andi	r24, 0xDF	; 223
    5b1a:	80 83       	st	Z, r24
    5b1c:	ff 91       	pop	r31
    5b1e:	ef 91       	pop	r30
    5b20:	bf 91       	pop	r27
    5b22:	af 91       	pop	r26
    5b24:	9f 91       	pop	r25
    5b26:	8f 91       	pop	r24
    5b28:	2f 91       	pop	r18
    5b2a:	0f 90       	pop	r0
    5b2c:	0b be       	out	0x3b, r0	; 59
    5b2e:	0f 90       	pop	r0
    5b30:	0f be       	out	0x3f, r0	; 63
    5b32:	0f 90       	pop	r0
    5b34:	1f 90       	pop	r1
    5b36:	18 95       	reti

00005b38 <usart_getchar>:
    5b38:	cf 93       	push	r28
    5b3a:	df 93       	push	r29
    5b3c:	1f 92       	push	r1
    5b3e:	cd b7       	in	r28, 0x3d	; 61
    5b40:	de b7       	in	r29, 0x3e	; 62
    5b42:	be 01       	movw	r22, r28
    5b44:	6f 5f       	subi	r22, 0xFF	; 255
    5b46:	7f 4f       	sbci	r23, 0xFF	; 255
    5b48:	80 91 69 15 	lds	r24, 0x1569	; 0x801569 <_com_serial_instance>
    5b4c:	90 91 6a 15 	lds	r25, 0x156A	; 0x80156a <_com_serial_instance+0x1>
    5b50:	7b dd       	rcall	.-1290   	; 0x5648 <serial_getByte>
    5b52:	81 11       	cpse	r24, r1
    5b54:	f6 cf       	rjmp	.-20     	; 0x5b42 <usart_getchar+0xa>
    5b56:	89 81       	ldd	r24, Y+1	; 0x01
    5b58:	90 e0       	ldi	r25, 0x00	; 0
    5b5a:	0f 90       	pop	r0
    5b5c:	df 91       	pop	r29
    5b5e:	cf 91       	pop	r28
    5b60:	08 95       	ret

00005b62 <usart_putchar>:
    5b62:	68 2f       	mov	r22, r24
    5b64:	80 91 69 15 	lds	r24, 0x1569	; 0x801569 <_com_serial_instance>
    5b68:	90 91 6a 15 	lds	r25, 0x156A	; 0x80156a <_com_serial_instance+0x1>
    5b6c:	ed dc       	rcall	.-1574   	; 0x5548 <serial_sendByte>
    5b6e:	80 e0       	ldi	r24, 0x00	; 0
    5b70:	90 e0       	ldi	r25, 0x00	; 0
    5b72:	08 95       	ret

00005b74 <stdio_initialise>:
    5b74:	8f 92       	push	r8
    5b76:	9f 92       	push	r9
    5b78:	af 92       	push	r10
    5b7a:	cf 92       	push	r12
    5b7c:	ef 92       	push	r14
    5b7e:	0f 93       	push	r16
    5b80:	81 2c       	mov	r8, r1
    5b82:	91 2c       	mov	r9, r1
    5b84:	68 94       	set
    5b86:	aa 24       	eor	r10, r10
    5b88:	a7 f8       	bld	r10, 7
    5b8a:	68 94       	set
    5b8c:	cc 24       	eor	r12, r12
    5b8e:	c7 f8       	bld	r12, 7
    5b90:	e1 2c       	mov	r14, r1
    5b92:	00 e0       	ldi	r16, 0x00	; 0
    5b94:	23 e0       	ldi	r18, 0x03	; 3
    5b96:	40 e0       	ldi	r20, 0x00	; 0
    5b98:	51 ee       	ldi	r21, 0xE1	; 225
    5b9a:	60 e0       	ldi	r22, 0x00	; 0
    5b9c:	70 e0       	ldi	r23, 0x00	; 0
    5b9e:	2c dc       	rcall	.-1960   	; 0x53f8 <serial_create>
    5ba0:	90 93 6a 15 	sts	0x156A, r25	; 0x80156a <_com_serial_instance+0x1>
    5ba4:	80 93 69 15 	sts	0x1569, r24	; 0x801569 <_com_serial_instance>
    5ba8:	ef ea       	ldi	r30, 0xAF	; 175
    5baa:	f5 e1       	ldi	r31, 0x15	; 21
    5bac:	83 e1       	ldi	r24, 0x13	; 19
    5bae:	92 e0       	ldi	r25, 0x02	; 2
    5bb0:	91 83       	std	Z+1, r25	; 0x01
    5bb2:	80 83       	st	Z, r24
    5bb4:	93 83       	std	Z+3, r25	; 0x03
    5bb6:	82 83       	std	Z+2, r24	; 0x02
    5bb8:	0f 91       	pop	r16
    5bba:	ef 90       	pop	r14
    5bbc:	cf 90       	pop	r12
    5bbe:	af 90       	pop	r10
    5bc0:	9f 90       	pop	r9
    5bc2:	8f 90       	pop	r8
    5bc4:	08 95       	ret

00005bc6 <_select_instance>:
    5bc6:	e0 91 6c 15 	lds	r30, 0x156C	; 0x80156c <_this>
    5bca:	f0 91 6d 15 	lds	r31, 0x156D	; 0x80156d <_this+0x1>
    5bce:	30 97       	sbiw	r30, 0x00	; 0
    5bd0:	f9 f0       	breq	.+62     	; 0x5c10 <_select_instance+0x4a>
    5bd2:	a0 81       	ld	r26, Z
    5bd4:	b1 81       	ldd	r27, Z+1	; 0x01
    5bd6:	10 97       	sbiw	r26, 0x00	; 0
    5bd8:	d9 f0       	breq	.+54     	; 0x5c10 <_select_instance+0x4a>
    5bda:	23 81       	ldd	r18, Z+3	; 0x03
    5bdc:	21 30       	cpi	r18, 0x01	; 1
    5bde:	69 f4       	brne	.+26     	; 0x5bfa <_select_instance+0x34>
    5be0:	4c 91       	ld	r20, X
    5be2:	21 e0       	ldi	r18, 0x01	; 1
    5be4:	30 e0       	ldi	r19, 0x00	; 0
    5be6:	02 80       	ldd	r0, Z+2	; 0x02
    5be8:	02 c0       	rjmp	.+4      	; 0x5bee <_select_instance+0x28>
    5bea:	22 0f       	add	r18, r18
    5bec:	33 1f       	adc	r19, r19
    5bee:	0a 94       	dec	r0
    5bf0:	e2 f7       	brpl	.-8      	; 0x5bea <_select_instance+0x24>
    5bf2:	20 95       	com	r18
    5bf4:	24 23       	and	r18, r20
    5bf6:	2c 93       	st	X, r18
    5bf8:	0b c0       	rjmp	.+22     	; 0x5c10 <_select_instance+0x4a>
    5bfa:	4c 91       	ld	r20, X
    5bfc:	21 e0       	ldi	r18, 0x01	; 1
    5bfe:	30 e0       	ldi	r19, 0x00	; 0
    5c00:	02 80       	ldd	r0, Z+2	; 0x02
    5c02:	02 c0       	rjmp	.+4      	; 0x5c08 <_select_instance+0x42>
    5c04:	22 0f       	add	r18, r18
    5c06:	33 1f       	adc	r19, r19
    5c08:	0a 94       	dec	r0
    5c0a:	e2 f7       	brpl	.-8      	; 0x5c04 <_select_instance+0x3e>
    5c0c:	24 2b       	or	r18, r20
    5c0e:	2c 93       	st	X, r18
    5c10:	90 93 6d 15 	sts	0x156D, r25	; 0x80156d <_this+0x1>
    5c14:	80 93 6c 15 	sts	0x156C, r24	; 0x80156c <_this>
    5c18:	00 97       	sbiw	r24, 0x00	; 0
    5c1a:	69 f0       	breq	.+26     	; 0x5c36 <_select_instance+0x70>
    5c1c:	10 92 6e 15 	sts	0x156E, r1	; 0x80156e <_spi_active>
    5c20:	2c b5       	in	r18, 0x2c	; 44
    5c22:	2f 73       	andi	r18, 0x3F	; 63
    5c24:	2c bd       	out	0x2c, r18	; 44
    5c26:	fc 01       	movw	r30, r24
    5c28:	24 81       	ldd	r18, Z+4	; 0x04
    5c2a:	2c bd       	out	0x2c, r18	; 44
    5c2c:	85 81       	ldd	r24, Z+5	; 0x05
    5c2e:	8d bd       	out	0x2d, r24	; 45
    5c30:	8c b5       	in	r24, 0x2c	; 44
    5c32:	80 64       	ori	r24, 0x40	; 64
    5c34:	8c bd       	out	0x2c, r24	; 44
    5c36:	08 95       	ret

00005c38 <spi_create>:
    5c38:	4f 92       	push	r4
    5c3a:	5f 92       	push	r5
    5c3c:	6f 92       	push	r6
    5c3e:	7f 92       	push	r7
    5c40:	8f 92       	push	r8
    5c42:	9f 92       	push	r9
    5c44:	af 92       	push	r10
    5c46:	bf 92       	push	r11
    5c48:	cf 92       	push	r12
    5c4a:	df 92       	push	r13
    5c4c:	ef 92       	push	r14
    5c4e:	ff 92       	push	r15
    5c50:	0f 93       	push	r16
    5c52:	1f 93       	push	r17
    5c54:	cf 93       	push	r28
    5c56:	df 93       	push	r29
    5c58:	cd b7       	in	r28, 0x3d	; 61
    5c5a:	de b7       	in	r29, 0x3e	; 62
    5c5c:	98 2e       	mov	r9, r24
    5c5e:	b6 2e       	mov	r11, r22
    5c60:	d4 2e       	mov	r13, r20
    5c62:	f2 2e       	mov	r15, r18
    5c64:	80 91 6b 15 	lds	r24, 0x156B	; 0x80156b <_initialised>
    5c68:	81 11       	cpse	r24, r1
    5c6a:	06 c0       	rjmp	.+12     	; 0x5c78 <spi_create+0x40>
    5c6c:	84 b1       	in	r24, 0x04	; 4
    5c6e:	87 60       	ori	r24, 0x07	; 7
    5c70:	84 b9       	out	0x04, r24	; 4
    5c72:	81 e0       	ldi	r24, 0x01	; 1
    5c74:	80 93 6b 15 	sts	0x156B, r24	; 0x80156b <_initialised>
    5c78:	8c e0       	ldi	r24, 0x0C	; 12
    5c7a:	90 e0       	ldi	r25, 0x00	; 0
    5c7c:	47 d7       	rcall	.+3726   	; 0x6b0c <malloc>
    5c7e:	3c 01       	movw	r6, r24
    5c80:	dc 01       	movw	r26, r24
    5c82:	11 96       	adiw	r26, 0x01	; 1
    5c84:	1c 93       	st	X, r17
    5c86:	0e 93       	st	-X, r16
    5c88:	12 96       	adiw	r26, 0x02	; 2
    5c8a:	ec 92       	st	X, r14
    5c8c:	12 97       	sbiw	r26, 0x02	; 2
    5c8e:	13 96       	adiw	r26, 0x03	; 3
    5c90:	cc 92       	st	X, r12
    5c92:	13 97       	sbiw	r26, 0x03	; 3
    5c94:	8d 2d       	mov	r24, r13
    5c96:	88 0f       	add	r24, r24
    5c98:	88 0f       	add	r24, r24
    5c9a:	f8 2a       	or	r15, r24
    5c9c:	eb 2d       	mov	r30, r11
    5c9e:	f0 e0       	ldi	r31, 0x00	; 0
    5ca0:	e6 55       	subi	r30, 0x56	; 86
    5ca2:	f7 4f       	sbci	r31, 0xF7	; 247
    5ca4:	80 81       	ld	r24, Z
    5ca6:	98 2a       	or	r9, r24
    5ca8:	8f 2d       	mov	r24, r15
    5caa:	89 29       	or	r24, r9
    5cac:	14 96       	adiw	r26, 0x04	; 4
    5cae:	8c 93       	st	X, r24
    5cb0:	b3 e0       	ldi	r27, 0x03	; 3
    5cb2:	bb 15       	cp	r27, r11
    5cb4:	18 f4       	brcc	.+6      	; 0x5cbc <spi_create+0x84>
    5cb6:	81 e0       	ldi	r24, 0x01	; 1
    5cb8:	f3 01       	movw	r30, r6
    5cba:	85 83       	std	Z+5, r24	; 0x05
    5cbc:	a1 10       	cpse	r10, r1
    5cbe:	06 c0       	rjmp	.+12     	; 0x5ccc <spi_create+0x94>
    5cc0:	d3 01       	movw	r26, r6
    5cc2:	19 96       	adiw	r26, 0x09	; 9
    5cc4:	1c 92       	st	X, r1
    5cc6:	1e 92       	st	-X, r1
    5cc8:	18 97       	sbiw	r26, 0x08	; 8
    5cca:	12 c0       	rjmp	.+36     	; 0x5cf0 <spi_create+0xb8>
    5ccc:	6a 2d       	mov	r22, r10
    5cce:	70 e0       	ldi	r23, 0x00	; 0
    5cd0:	84 e0       	ldi	r24, 0x04	; 4
    5cd2:	90 e0       	ldi	r25, 0x00	; 0
    5cd4:	01 d7       	rcall	.+3586   	; 0x6ad8 <calloc>
    5cd6:	2c 01       	movw	r4, r24
    5cd8:	61 e0       	ldi	r22, 0x01	; 1
    5cda:	70 e0       	ldi	r23, 0x00	; 0
    5cdc:	86 e0       	ldi	r24, 0x06	; 6
    5cde:	90 e0       	ldi	r25, 0x00	; 0
    5ce0:	fb d6       	rcall	.+3574   	; 0x6ad8 <calloc>
    5ce2:	6c 01       	movw	r12, r24
    5ce4:	4a 2d       	mov	r20, r10
    5ce6:	b2 01       	movw	r22, r4
    5ce8:	47 d4       	rcall	.+2190   	; 0x6578 <fifo_init>
    5cea:	f3 01       	movw	r30, r6
    5cec:	d1 86       	std	Z+9, r13	; 0x09
    5cee:	c0 86       	std	Z+8, r12	; 0x08
    5cf0:	81 10       	cpse	r8, r1
    5cf2:	06 c0       	rjmp	.+12     	; 0x5d00 <spi_create+0xc8>
    5cf4:	d3 01       	movw	r26, r6
    5cf6:	17 96       	adiw	r26, 0x07	; 7
    5cf8:	1c 92       	st	X, r1
    5cfa:	1e 92       	st	-X, r1
    5cfc:	16 97       	sbiw	r26, 0x06	; 6
    5cfe:	12 c0       	rjmp	.+36     	; 0x5d24 <spi_create+0xec>
    5d00:	68 2d       	mov	r22, r8
    5d02:	70 e0       	ldi	r23, 0x00	; 0
    5d04:	84 e0       	ldi	r24, 0x04	; 4
    5d06:	90 e0       	ldi	r25, 0x00	; 0
    5d08:	e7 d6       	rcall	.+3534   	; 0x6ad8 <calloc>
    5d0a:	5c 01       	movw	r10, r24
    5d0c:	61 e0       	ldi	r22, 0x01	; 1
    5d0e:	70 e0       	ldi	r23, 0x00	; 0
    5d10:	86 e0       	ldi	r24, 0x06	; 6
    5d12:	90 e0       	ldi	r25, 0x00	; 0
    5d14:	e1 d6       	rcall	.+3522   	; 0x6ad8 <calloc>
    5d16:	6c 01       	movw	r12, r24
    5d18:	48 2d       	mov	r20, r8
    5d1a:	b5 01       	movw	r22, r10
    5d1c:	2d d4       	rcall	.+2138   	; 0x6578 <fifo_init>
    5d1e:	f3 01       	movw	r30, r6
    5d20:	d7 82       	std	Z+7, r13	; 0x07
    5d22:	c6 82       	std	Z+6, r12	; 0x06
    5d24:	8c 89       	ldd	r24, Y+20	; 0x14
    5d26:	9d 89       	ldd	r25, Y+21	; 0x15
    5d28:	d3 01       	movw	r26, r6
    5d2a:	1b 96       	adiw	r26, 0x0b	; 11
    5d2c:	9c 93       	st	X, r25
    5d2e:	8e 93       	st	-X, r24
    5d30:	1a 97       	sbiw	r26, 0x0a	; 10
    5d32:	01 15       	cp	r16, r1
    5d34:	11 05       	cpc	r17, r1
    5d36:	59 f0       	breq	.+22     	; 0x5d4e <spi_create+0x116>
    5d38:	f8 01       	movw	r30, r16
    5d3a:	22 91       	ld	r18, -Z
    5d3c:	81 e0       	ldi	r24, 0x01	; 1
    5d3e:	90 e0       	ldi	r25, 0x00	; 0
    5d40:	02 c0       	rjmp	.+4      	; 0x5d46 <spi_create+0x10e>
    5d42:	88 0f       	add	r24, r24
    5d44:	99 1f       	adc	r25, r25
    5d46:	ea 94       	dec	r14
    5d48:	e2 f7       	brpl	.-8      	; 0x5d42 <spi_create+0x10a>
    5d4a:	82 2b       	or	r24, r18
    5d4c:	80 83       	st	Z, r24
    5d4e:	2f b7       	in	r18, 0x3f	; 63
    5d50:	f8 94       	cli
    5d52:	40 91 6c 15 	lds	r20, 0x156C	; 0x80156c <_this>
    5d56:	50 91 6d 15 	lds	r21, 0x156D	; 0x80156d <_this+0x1>
    5d5a:	70 92 6d 15 	sts	0x156D, r7	; 0x80156d <_this+0x1>
    5d5e:	60 92 6c 15 	sts	0x156C, r6	; 0x80156c <_this>
    5d62:	d3 01       	movw	r26, r6
    5d64:	ed 91       	ld	r30, X+
    5d66:	fc 91       	ld	r31, X
    5d68:	11 97       	sbiw	r26, 0x01	; 1
    5d6a:	30 97       	sbiw	r30, 0x00	; 0
    5d6c:	01 f1       	breq	.+64     	; 0x5dae <spi_create+0x176>
    5d6e:	13 96       	adiw	r26, 0x03	; 3
    5d70:	8c 91       	ld	r24, X
    5d72:	13 97       	sbiw	r26, 0x03	; 3
    5d74:	81 30       	cpi	r24, 0x01	; 1
    5d76:	71 f4       	brne	.+28     	; 0x5d94 <spi_create+0x15c>
    5d78:	30 81       	ld	r19, Z
    5d7a:	81 e0       	ldi	r24, 0x01	; 1
    5d7c:	90 e0       	ldi	r25, 0x00	; 0
    5d7e:	12 96       	adiw	r26, 0x02	; 2
    5d80:	0c 90       	ld	r0, X
    5d82:	02 c0       	rjmp	.+4      	; 0x5d88 <spi_create+0x150>
    5d84:	88 0f       	add	r24, r24
    5d86:	99 1f       	adc	r25, r25
    5d88:	0a 94       	dec	r0
    5d8a:	e2 f7       	brpl	.-8      	; 0x5d84 <spi_create+0x14c>
    5d8c:	80 95       	com	r24
    5d8e:	83 23       	and	r24, r19
    5d90:	80 83       	st	Z, r24
    5d92:	0d c0       	rjmp	.+26     	; 0x5dae <spi_create+0x176>
    5d94:	30 81       	ld	r19, Z
    5d96:	81 e0       	ldi	r24, 0x01	; 1
    5d98:	90 e0       	ldi	r25, 0x00	; 0
    5d9a:	d3 01       	movw	r26, r6
    5d9c:	12 96       	adiw	r26, 0x02	; 2
    5d9e:	0c 90       	ld	r0, X
    5da0:	02 c0       	rjmp	.+4      	; 0x5da6 <spi_create+0x16e>
    5da2:	88 0f       	add	r24, r24
    5da4:	99 1f       	adc	r25, r25
    5da6:	0a 94       	dec	r0
    5da8:	e2 f7       	brpl	.-8      	; 0x5da2 <spi_create+0x16a>
    5daa:	83 2b       	or	r24, r19
    5dac:	80 83       	st	Z, r24
    5dae:	50 93 6d 15 	sts	0x156D, r21	; 0x80156d <_this+0x1>
    5db2:	40 93 6c 15 	sts	0x156C, r20	; 0x80156c <_this>
    5db6:	2f bf       	out	0x3f, r18	; 63
    5db8:	c3 01       	movw	r24, r6
    5dba:	df 91       	pop	r29
    5dbc:	cf 91       	pop	r28
    5dbe:	1f 91       	pop	r17
    5dc0:	0f 91       	pop	r16
    5dc2:	ff 90       	pop	r15
    5dc4:	ef 90       	pop	r14
    5dc6:	df 90       	pop	r13
    5dc8:	cf 90       	pop	r12
    5dca:	bf 90       	pop	r11
    5dcc:	af 90       	pop	r10
    5dce:	9f 90       	pop	r9
    5dd0:	8f 90       	pop	r8
    5dd2:	7f 90       	pop	r7
    5dd4:	6f 90       	pop	r6
    5dd6:	5f 90       	pop	r5
    5dd8:	4f 90       	pop	r4
    5dda:	08 95       	ret

00005ddc <spi_sendByte>:
    5ddc:	1f 93       	push	r17
    5dde:	cf 93       	push	r28
    5de0:	df 93       	push	r29
    5de2:	00 97       	sbiw	r24, 0x00	; 0
    5de4:	09 f4       	brne	.+2      	; 0x5de8 <spi_sendByte+0xc>
    5de6:	6a c0       	rjmp	.+212    	; 0x5ebc <spi_sendByte+0xe0>
    5de8:	16 2f       	mov	r17, r22
    5dea:	ec 01       	movw	r28, r24
    5dec:	80 91 6c 15 	lds	r24, 0x156C	; 0x80156c <_this>
    5df0:	90 91 6d 15 	lds	r25, 0x156D	; 0x80156d <_this+0x1>
    5df4:	c8 17       	cp	r28, r24
    5df6:	d9 07       	cpc	r29, r25
    5df8:	11 f0       	breq	.+4      	; 0x5dfe <spi_sendByte+0x22>
    5dfa:	ce 01       	movw	r24, r28
    5dfc:	e4 de       	rcall	.-568    	; 0x5bc6 <_select_instance>
    5dfe:	8f b7       	in	r24, 0x3f	; 63
    5e00:	2f b7       	in	r18, 0x3f	; 63
    5e02:	f8 94       	cli
    5e04:	80 91 6e 15 	lds	r24, 0x156E	; 0x80156e <_spi_active>
    5e08:	81 11       	cpse	r24, r1
    5e0a:	31 c0       	rjmp	.+98     	; 0x5e6e <spi_sendByte+0x92>
    5e0c:	81 e0       	ldi	r24, 0x01	; 1
    5e0e:	80 93 6e 15 	sts	0x156E, r24	; 0x80156e <_spi_active>
    5e12:	a0 91 6c 15 	lds	r26, 0x156C	; 0x80156c <_this>
    5e16:	b0 91 6d 15 	lds	r27, 0x156D	; 0x80156d <_this+0x1>
    5e1a:	ed 91       	ld	r30, X+
    5e1c:	fc 91       	ld	r31, X
    5e1e:	11 97       	sbiw	r26, 0x01	; 1
    5e20:	30 97       	sbiw	r30, 0x00	; 0
    5e22:	f9 f0       	breq	.+62     	; 0x5e62 <spi_sendByte+0x86>
    5e24:	13 96       	adiw	r26, 0x03	; 3
    5e26:	8c 91       	ld	r24, X
    5e28:	13 97       	sbiw	r26, 0x03	; 3
    5e2a:	81 30       	cpi	r24, 0x01	; 1
    5e2c:	69 f4       	brne	.+26     	; 0x5e48 <spi_sendByte+0x6c>
    5e2e:	30 81       	ld	r19, Z
    5e30:	81 e0       	ldi	r24, 0x01	; 1
    5e32:	90 e0       	ldi	r25, 0x00	; 0
    5e34:	12 96       	adiw	r26, 0x02	; 2
    5e36:	0c 90       	ld	r0, X
    5e38:	02 c0       	rjmp	.+4      	; 0x5e3e <spi_sendByte+0x62>
    5e3a:	88 0f       	add	r24, r24
    5e3c:	99 1f       	adc	r25, r25
    5e3e:	0a 94       	dec	r0
    5e40:	e2 f7       	brpl	.-8      	; 0x5e3a <spi_sendByte+0x5e>
    5e42:	83 2b       	or	r24, r19
    5e44:	80 83       	st	Z, r24
    5e46:	0d c0       	rjmp	.+26     	; 0x5e62 <spi_sendByte+0x86>
    5e48:	30 81       	ld	r19, Z
    5e4a:	81 e0       	ldi	r24, 0x01	; 1
    5e4c:	90 e0       	ldi	r25, 0x00	; 0
    5e4e:	12 96       	adiw	r26, 0x02	; 2
    5e50:	0c 90       	ld	r0, X
    5e52:	02 c0       	rjmp	.+4      	; 0x5e58 <spi_sendByte+0x7c>
    5e54:	88 0f       	add	r24, r24
    5e56:	99 1f       	adc	r25, r25
    5e58:	0a 94       	dec	r0
    5e5a:	e2 f7       	brpl	.-8      	; 0x5e54 <spi_sendByte+0x78>
    5e5c:	80 95       	com	r24
    5e5e:	83 23       	and	r24, r19
    5e60:	80 83       	st	Z, r24
    5e62:	8c b5       	in	r24, 0x2c	; 44
    5e64:	80 68       	ori	r24, 0x80	; 128
    5e66:	8c bd       	out	0x2c, r24	; 44
    5e68:	1e bd       	out	0x2e, r17	; 46
    5e6a:	80 e0       	ldi	r24, 0x00	; 0
    5e6c:	25 c0       	rjmp	.+74     	; 0x5eb8 <spi_sendByte+0xdc>
    5e6e:	ee 81       	ldd	r30, Y+6	; 0x06
    5e70:	ff 81       	ldd	r31, Y+7	; 0x07
    5e72:	30 97       	sbiw	r30, 0x00	; 0
    5e74:	e1 f0       	breq	.+56     	; 0x5eae <spi_sendByte+0xd2>
    5e76:	34 81       	ldd	r19, Z+4	; 0x04
    5e78:	83 81       	ldd	r24, Z+3	; 0x03
    5e7a:	42 81       	ldd	r20, Z+2	; 0x02
    5e7c:	95 81       	ldd	r25, Z+5	; 0x05
    5e7e:	84 1b       	sub	r24, r20
    5e80:	89 23       	and	r24, r25
    5e82:	38 17       	cp	r19, r24
    5e84:	b1 f0       	breq	.+44     	; 0x5eb2 <spi_sendByte+0xd6>
    5e86:	83 81       	ldd	r24, Z+3	; 0x03
    5e88:	42 81       	ldd	r20, Z+2	; 0x02
    5e8a:	84 1b       	sub	r24, r20
    5e8c:	89 23       	and	r24, r25
    5e8e:	38 17       	cp	r19, r24
    5e90:	91 f0       	breq	.+36     	; 0x5eb6 <spi_sendByte+0xda>
    5e92:	83 81       	ldd	r24, Z+3	; 0x03
    5e94:	96 95       	lsr	r25
    5e96:	98 23       	and	r25, r24
    5e98:	a0 81       	ld	r26, Z
    5e9a:	b1 81       	ldd	r27, Z+1	; 0x01
    5e9c:	a9 0f       	add	r26, r25
    5e9e:	b1 1d       	adc	r27, r1
    5ea0:	1c 93       	st	X, r17
    5ea2:	8f 5f       	subi	r24, 0xFF	; 255
    5ea4:	95 81       	ldd	r25, Z+5	; 0x05
    5ea6:	89 23       	and	r24, r25
    5ea8:	83 83       	std	Z+3, r24	; 0x03
    5eaa:	80 e0       	ldi	r24, 0x00	; 0
    5eac:	05 c0       	rjmp	.+10     	; 0x5eb8 <spi_sendByte+0xdc>
    5eae:	82 e0       	ldi	r24, 0x02	; 2
    5eb0:	03 c0       	rjmp	.+6      	; 0x5eb8 <spi_sendByte+0xdc>
    5eb2:	81 e0       	ldi	r24, 0x01	; 1
    5eb4:	01 c0       	rjmp	.+2      	; 0x5eb8 <spi_sendByte+0xdc>
    5eb6:	80 e0       	ldi	r24, 0x00	; 0
    5eb8:	2f bf       	out	0x3f, r18	; 63
    5eba:	01 c0       	rjmp	.+2      	; 0x5ebe <spi_sendByte+0xe2>
    5ebc:	83 e0       	ldi	r24, 0x03	; 3
    5ebe:	df 91       	pop	r29
    5ec0:	cf 91       	pop	r28
    5ec2:	1f 91       	pop	r17
    5ec4:	08 95       	ret

00005ec6 <__vector_24>:
    5ec6:	1f 92       	push	r1
    5ec8:	0f 92       	push	r0
    5eca:	0f b6       	in	r0, 0x3f	; 63
    5ecc:	0f 92       	push	r0
    5ece:	11 24       	eor	r1, r1
    5ed0:	0b b6       	in	r0, 0x3b	; 59
    5ed2:	0f 92       	push	r0
    5ed4:	2f 93       	push	r18
    5ed6:	3f 93       	push	r19
    5ed8:	4f 93       	push	r20
    5eda:	5f 93       	push	r21
    5edc:	6f 93       	push	r22
    5ede:	7f 93       	push	r23
    5ee0:	8f 93       	push	r24
    5ee2:	9f 93       	push	r25
    5ee4:	af 93       	push	r26
    5ee6:	bf 93       	push	r27
    5ee8:	cf 93       	push	r28
    5eea:	df 93       	push	r29
    5eec:	ef 93       	push	r30
    5eee:	ff 93       	push	r31
    5ef0:	6e b5       	in	r22, 0x2e	; 46
    5ef2:	a0 91 6c 15 	lds	r26, 0x156C	; 0x80156c <_this>
    5ef6:	b0 91 6d 15 	lds	r27, 0x156D	; 0x80156d <_this+0x1>
    5efa:	18 96       	adiw	r26, 0x08	; 8
    5efc:	ed 91       	ld	r30, X+
    5efe:	fc 91       	ld	r31, X
    5f00:	19 97       	sbiw	r26, 0x09	; 9
    5f02:	30 97       	sbiw	r30, 0x00	; 0
    5f04:	a1 f0       	breq	.+40     	; 0x5f2e <__vector_24+0x68>
    5f06:	83 81       	ldd	r24, Z+3	; 0x03
    5f08:	22 81       	ldd	r18, Z+2	; 0x02
    5f0a:	95 81       	ldd	r25, Z+5	; 0x05
    5f0c:	82 1b       	sub	r24, r18
    5f0e:	89 23       	and	r24, r25
    5f10:	24 81       	ldd	r18, Z+4	; 0x04
    5f12:	82 17       	cp	r24, r18
    5f14:	61 f0       	breq	.+24     	; 0x5f2e <__vector_24+0x68>
    5f16:	83 81       	ldd	r24, Z+3	; 0x03
    5f18:	96 95       	lsr	r25
    5f1a:	98 23       	and	r25, r24
    5f1c:	c0 81       	ld	r28, Z
    5f1e:	d1 81       	ldd	r29, Z+1	; 0x01
    5f20:	c9 0f       	add	r28, r25
    5f22:	d1 1d       	adc	r29, r1
    5f24:	68 83       	st	Y, r22
    5f26:	8f 5f       	subi	r24, 0xFF	; 255
    5f28:	95 81       	ldd	r25, Z+5	; 0x05
    5f2a:	89 23       	and	r24, r25
    5f2c:	83 83       	std	Z+3, r24	; 0x03
    5f2e:	16 96       	adiw	r26, 0x06	; 6
    5f30:	ed 91       	ld	r30, X+
    5f32:	fc 91       	ld	r31, X
    5f34:	17 97       	sbiw	r26, 0x07	; 7
    5f36:	30 97       	sbiw	r30, 0x00	; 0
    5f38:	99 f0       	breq	.+38     	; 0x5f60 <__vector_24+0x9a>
    5f3a:	93 81       	ldd	r25, Z+3	; 0x03
    5f3c:	82 81       	ldd	r24, Z+2	; 0x02
    5f3e:	98 17       	cp	r25, r24
    5f40:	79 f0       	breq	.+30     	; 0x5f60 <__vector_24+0x9a>
    5f42:	92 81       	ldd	r25, Z+2	; 0x02
    5f44:	85 81       	ldd	r24, Z+5	; 0x05
    5f46:	28 2f       	mov	r18, r24
    5f48:	26 95       	lsr	r18
    5f4a:	29 23       	and	r18, r25
    5f4c:	a0 81       	ld	r26, Z
    5f4e:	b1 81       	ldd	r27, Z+1	; 0x01
    5f50:	a2 0f       	add	r26, r18
    5f52:	b1 1d       	adc	r27, r1
    5f54:	2c 91       	ld	r18, X
    5f56:	9f 5f       	subi	r25, 0xFF	; 255
    5f58:	89 23       	and	r24, r25
    5f5a:	82 83       	std	Z+2, r24	; 0x02
    5f5c:	2e bd       	out	0x2e, r18	; 46
    5f5e:	2d c0       	rjmp	.+90     	; 0x5fba <__vector_24+0xf4>
    5f60:	8c b5       	in	r24, 0x2c	; 44
    5f62:	8f 77       	andi	r24, 0x7F	; 127
    5f64:	8c bd       	out	0x2c, r24	; 44
    5f66:	10 92 6e 15 	sts	0x156E, r1	; 0x80156e <_spi_active>
    5f6a:	a0 91 6c 15 	lds	r26, 0x156C	; 0x80156c <_this>
    5f6e:	b0 91 6d 15 	lds	r27, 0x156D	; 0x80156d <_this+0x1>
    5f72:	ed 91       	ld	r30, X+
    5f74:	fc 91       	ld	r31, X
    5f76:	11 97       	sbiw	r26, 0x01	; 1
    5f78:	30 97       	sbiw	r30, 0x00	; 0
    5f7a:	f9 f0       	breq	.+62     	; 0x5fba <__vector_24+0xf4>
    5f7c:	13 96       	adiw	r26, 0x03	; 3
    5f7e:	8c 91       	ld	r24, X
    5f80:	13 97       	sbiw	r26, 0x03	; 3
    5f82:	81 30       	cpi	r24, 0x01	; 1
    5f84:	71 f4       	brne	.+28     	; 0x5fa2 <__vector_24+0xdc>
    5f86:	20 81       	ld	r18, Z
    5f88:	81 e0       	ldi	r24, 0x01	; 1
    5f8a:	90 e0       	ldi	r25, 0x00	; 0
    5f8c:	12 96       	adiw	r26, 0x02	; 2
    5f8e:	0c 90       	ld	r0, X
    5f90:	02 c0       	rjmp	.+4      	; 0x5f96 <__vector_24+0xd0>
    5f92:	88 0f       	add	r24, r24
    5f94:	99 1f       	adc	r25, r25
    5f96:	0a 94       	dec	r0
    5f98:	e2 f7       	brpl	.-8      	; 0x5f92 <__vector_24+0xcc>
    5f9a:	80 95       	com	r24
    5f9c:	82 23       	and	r24, r18
    5f9e:	80 83       	st	Z, r24
    5fa0:	0c c0       	rjmp	.+24     	; 0x5fba <__vector_24+0xf4>
    5fa2:	20 81       	ld	r18, Z
    5fa4:	81 e0       	ldi	r24, 0x01	; 1
    5fa6:	90 e0       	ldi	r25, 0x00	; 0
    5fa8:	12 96       	adiw	r26, 0x02	; 2
    5faa:	0c 90       	ld	r0, X
    5fac:	02 c0       	rjmp	.+4      	; 0x5fb2 <__vector_24+0xec>
    5fae:	88 0f       	add	r24, r24
    5fb0:	99 1f       	adc	r25, r25
    5fb2:	0a 94       	dec	r0
    5fb4:	e2 f7       	brpl	.-8      	; 0x5fae <__vector_24+0xe8>
    5fb6:	82 2b       	or	r24, r18
    5fb8:	80 83       	st	Z, r24
    5fba:	80 91 6c 15 	lds	r24, 0x156C	; 0x80156c <_this>
    5fbe:	90 91 6d 15 	lds	r25, 0x156D	; 0x80156d <_this+0x1>
    5fc2:	dc 01       	movw	r26, r24
    5fc4:	1a 96       	adiw	r26, 0x0a	; 10
    5fc6:	ed 91       	ld	r30, X+
    5fc8:	fc 91       	ld	r31, X
    5fca:	1b 97       	sbiw	r26, 0x0b	; 11
    5fcc:	30 97       	sbiw	r30, 0x00	; 0
    5fce:	09 f0       	breq	.+2      	; 0x5fd2 <__vector_24+0x10c>
    5fd0:	19 95       	eicall
    5fd2:	ff 91       	pop	r31
    5fd4:	ef 91       	pop	r30
    5fd6:	df 91       	pop	r29
    5fd8:	cf 91       	pop	r28
    5fda:	bf 91       	pop	r27
    5fdc:	af 91       	pop	r26
    5fde:	9f 91       	pop	r25
    5fe0:	8f 91       	pop	r24
    5fe2:	7f 91       	pop	r23
    5fe4:	6f 91       	pop	r22
    5fe6:	5f 91       	pop	r21
    5fe8:	4f 91       	pop	r20
    5fea:	3f 91       	pop	r19
    5fec:	2f 91       	pop	r18
    5fee:	0f 90       	pop	r0
    5ff0:	0b be       	out	0x3b, r0	; 59
    5ff2:	0f 90       	pop	r0
    5ff4:	0f be       	out	0x3f, r0	; 63
    5ff6:	0f 90       	pop	r0
    5ff8:	1f 90       	pop	r1
    5ffa:	18 95       	reti

00005ffc <_turn_off>:
    5ffc:	90 e0       	ldi	r25, 0x00	; 0
    5ffe:	fc 01       	movw	r30, r24
    6000:	ee 0f       	add	r30, r30
    6002:	ff 1f       	adc	r31, r31
    6004:	e8 0f       	add	r30, r24
    6006:	f9 1f       	adc	r31, r25
    6008:	ee 0f       	add	r30, r30
    600a:	ff 1f       	adc	r31, r31
    600c:	e1 59       	subi	r30, 0x91	; 145
    600e:	fa 4e       	sbci	r31, 0xEA	; 234
    6010:	23 81       	ldd	r18, Z+3	; 0x03
    6012:	21 11       	cpse	r18, r1
    6014:	1f c0       	rjmp	.+62     	; 0x6054 <_turn_off+0x58>
    6016:	9c 01       	movw	r18, r24
    6018:	22 0f       	add	r18, r18
    601a:	33 1f       	adc	r19, r19
    601c:	f9 01       	movw	r30, r18
    601e:	e8 0f       	add	r30, r24
    6020:	f9 1f       	adc	r31, r25
    6022:	ee 0f       	add	r30, r30
    6024:	ff 1f       	adc	r31, r31
    6026:	e1 59       	subi	r30, 0x91	; 145
    6028:	fa 4e       	sbci	r31, 0xEA	; 234
    602a:	a0 81       	ld	r26, Z
    602c:	b1 81       	ldd	r27, Z+1	; 0x01
    602e:	4c 91       	ld	r20, X
    6030:	f9 01       	movw	r30, r18
    6032:	e8 0f       	add	r30, r24
    6034:	f9 1f       	adc	r31, r25
    6036:	ee 0f       	add	r30, r30
    6038:	ff 1f       	adc	r31, r31
    603a:	e1 59       	subi	r30, 0x91	; 145
    603c:	fa 4e       	sbci	r31, 0xEA	; 234
    603e:	81 e0       	ldi	r24, 0x01	; 1
    6040:	90 e0       	ldi	r25, 0x00	; 0
    6042:	02 80       	ldd	r0, Z+2	; 0x02
    6044:	02 c0       	rjmp	.+4      	; 0x604a <_turn_off+0x4e>
    6046:	88 0f       	add	r24, r24
    6048:	99 1f       	adc	r25, r25
    604a:	0a 94       	dec	r0
    604c:	e2 f7       	brpl	.-8      	; 0x6046 <_turn_off+0x4a>
    604e:	84 2b       	or	r24, r20
    6050:	8c 93       	st	X, r24
    6052:	08 95       	ret
    6054:	fc 01       	movw	r30, r24
    6056:	ee 0f       	add	r30, r30
    6058:	ff 1f       	adc	r31, r31
    605a:	df 01       	movw	r26, r30
    605c:	a8 0f       	add	r26, r24
    605e:	b9 1f       	adc	r27, r25
    6060:	aa 0f       	add	r26, r26
    6062:	bb 1f       	adc	r27, r27
    6064:	a1 59       	subi	r26, 0x91	; 145
    6066:	ba 4e       	sbci	r27, 0xEA	; 234
    6068:	0d 90       	ld	r0, X+
    606a:	bc 91       	ld	r27, X
    606c:	a0 2d       	mov	r26, r0
    606e:	2c 91       	ld	r18, X
    6070:	e8 0f       	add	r30, r24
    6072:	f9 1f       	adc	r31, r25
    6074:	ee 0f       	add	r30, r30
    6076:	ff 1f       	adc	r31, r31
    6078:	e1 59       	subi	r30, 0x91	; 145
    607a:	fa 4e       	sbci	r31, 0xEA	; 234
    607c:	81 e0       	ldi	r24, 0x01	; 1
    607e:	90 e0       	ldi	r25, 0x00	; 0
    6080:	02 80       	ldd	r0, Z+2	; 0x02
    6082:	02 c0       	rjmp	.+4      	; 0x6088 <_turn_off+0x8c>
    6084:	88 0f       	add	r24, r24
    6086:	99 1f       	adc	r25, r25
    6088:	0a 94       	dec	r0
    608a:	e2 f7       	brpl	.-8      	; 0x6084 <_turn_off+0x88>
    608c:	80 95       	com	r24
    608e:	82 23       	and	r24, r18
    6090:	8c 93       	st	X, r24
    6092:	08 95       	ret

00006094 <_turn_on>:
    6094:	90 e0       	ldi	r25, 0x00	; 0
    6096:	fc 01       	movw	r30, r24
    6098:	ee 0f       	add	r30, r30
    609a:	ff 1f       	adc	r31, r31
    609c:	e8 0f       	add	r30, r24
    609e:	f9 1f       	adc	r31, r25
    60a0:	ee 0f       	add	r30, r30
    60a2:	ff 1f       	adc	r31, r31
    60a4:	e1 59       	subi	r30, 0x91	; 145
    60a6:	fa 4e       	sbci	r31, 0xEA	; 234
    60a8:	23 81       	ldd	r18, Z+3	; 0x03
    60aa:	21 11       	cpse	r18, r1
    60ac:	20 c0       	rjmp	.+64     	; 0x60ee <_turn_on+0x5a>
    60ae:	9c 01       	movw	r18, r24
    60b0:	22 0f       	add	r18, r18
    60b2:	33 1f       	adc	r19, r19
    60b4:	f9 01       	movw	r30, r18
    60b6:	e8 0f       	add	r30, r24
    60b8:	f9 1f       	adc	r31, r25
    60ba:	ee 0f       	add	r30, r30
    60bc:	ff 1f       	adc	r31, r31
    60be:	e1 59       	subi	r30, 0x91	; 145
    60c0:	fa 4e       	sbci	r31, 0xEA	; 234
    60c2:	a0 81       	ld	r26, Z
    60c4:	b1 81       	ldd	r27, Z+1	; 0x01
    60c6:	4c 91       	ld	r20, X
    60c8:	f9 01       	movw	r30, r18
    60ca:	e8 0f       	add	r30, r24
    60cc:	f9 1f       	adc	r31, r25
    60ce:	ee 0f       	add	r30, r30
    60d0:	ff 1f       	adc	r31, r31
    60d2:	e1 59       	subi	r30, 0x91	; 145
    60d4:	fa 4e       	sbci	r31, 0xEA	; 234
    60d6:	81 e0       	ldi	r24, 0x01	; 1
    60d8:	90 e0       	ldi	r25, 0x00	; 0
    60da:	02 80       	ldd	r0, Z+2	; 0x02
    60dc:	02 c0       	rjmp	.+4      	; 0x60e2 <_turn_on+0x4e>
    60de:	88 0f       	add	r24, r24
    60e0:	99 1f       	adc	r25, r25
    60e2:	0a 94       	dec	r0
    60e4:	e2 f7       	brpl	.-8      	; 0x60de <_turn_on+0x4a>
    60e6:	80 95       	com	r24
    60e8:	84 23       	and	r24, r20
    60ea:	8c 93       	st	X, r24
    60ec:	08 95       	ret
    60ee:	fc 01       	movw	r30, r24
    60f0:	ee 0f       	add	r30, r30
    60f2:	ff 1f       	adc	r31, r31
    60f4:	df 01       	movw	r26, r30
    60f6:	a8 0f       	add	r26, r24
    60f8:	b9 1f       	adc	r27, r25
    60fa:	aa 0f       	add	r26, r26
    60fc:	bb 1f       	adc	r27, r27
    60fe:	a1 59       	subi	r26, 0x91	; 145
    6100:	ba 4e       	sbci	r27, 0xEA	; 234
    6102:	0d 90       	ld	r0, X+
    6104:	bc 91       	ld	r27, X
    6106:	a0 2d       	mov	r26, r0
    6108:	2c 91       	ld	r18, X
    610a:	e8 0f       	add	r30, r24
    610c:	f9 1f       	adc	r31, r25
    610e:	ee 0f       	add	r30, r30
    6110:	ff 1f       	adc	r31, r31
    6112:	e1 59       	subi	r30, 0x91	; 145
    6114:	fa 4e       	sbci	r31, 0xEA	; 234
    6116:	81 e0       	ldi	r24, 0x01	; 1
    6118:	90 e0       	ldi	r25, 0x00	; 0
    611a:	02 80       	ldd	r0, Z+2	; 0x02
    611c:	02 c0       	rjmp	.+4      	; 0x6122 <_turn_on+0x8e>
    611e:	88 0f       	add	r24, r24
    6120:	99 1f       	adc	r25, r25
    6122:	0a 94       	dec	r0
    6124:	e2 f7       	brpl	.-8      	; 0x611e <_turn_on+0x8a>
    6126:	82 2b       	or	r24, r18
    6128:	8c 93       	st	X, r24
    612a:	08 95       	ret

0000612c <status_leds_slowBlink>:
    612c:	cf 93       	push	r28
    612e:	df 93       	push	r29
    6130:	90 e0       	ldi	r25, 0x00	; 0
    6132:	fc 01       	movw	r30, r24
    6134:	ee 0f       	add	r30, r30
    6136:	ff 1f       	adc	r31, r31
    6138:	df 01       	movw	r26, r30
    613a:	a8 0f       	add	r26, r24
    613c:	b9 1f       	adc	r27, r25
    613e:	aa 0f       	add	r26, r26
    6140:	bb 1f       	adc	r27, r27
    6142:	a1 59       	subi	r26, 0x91	; 145
    6144:	ba 4e       	sbci	r27, 0xEA	; 234
    6146:	cd 91       	ld	r28, X+
    6148:	dc 91       	ld	r29, X
    614a:	11 97       	sbiw	r26, 0x01	; 1
    614c:	48 81       	ld	r20, Y
    614e:	21 e0       	ldi	r18, 0x01	; 1
    6150:	30 e0       	ldi	r19, 0x00	; 0
    6152:	12 96       	adiw	r26, 0x02	; 2
    6154:	0c 90       	ld	r0, X
    6156:	12 97       	sbiw	r26, 0x02	; 2
    6158:	02 c0       	rjmp	.+4      	; 0x615e <status_leds_slowBlink+0x32>
    615a:	22 0f       	add	r18, r18
    615c:	33 1f       	adc	r19, r19
    615e:	0a 94       	dec	r0
    6160:	e2 f7       	brpl	.-8      	; 0x615a <status_leds_slowBlink+0x2e>
    6162:	24 27       	eor	r18, r20
    6164:	28 83       	st	Y, r18
    6166:	fd 01       	movw	r30, r26
    6168:	81 e0       	ldi	r24, 0x01	; 1
    616a:	84 83       	std	Z+4, r24	; 0x04
    616c:	df 91       	pop	r29
    616e:	cf 91       	pop	r28
    6170:	08 95       	ret

00006172 <status_leds_fastBlink>:
    6172:	cf 93       	push	r28
    6174:	df 93       	push	r29
    6176:	90 e0       	ldi	r25, 0x00	; 0
    6178:	fc 01       	movw	r30, r24
    617a:	ee 0f       	add	r30, r30
    617c:	ff 1f       	adc	r31, r31
    617e:	df 01       	movw	r26, r30
    6180:	a8 0f       	add	r26, r24
    6182:	b9 1f       	adc	r27, r25
    6184:	aa 0f       	add	r26, r26
    6186:	bb 1f       	adc	r27, r27
    6188:	a1 59       	subi	r26, 0x91	; 145
    618a:	ba 4e       	sbci	r27, 0xEA	; 234
    618c:	cd 91       	ld	r28, X+
    618e:	dc 91       	ld	r29, X
    6190:	11 97       	sbiw	r26, 0x01	; 1
    6192:	48 81       	ld	r20, Y
    6194:	21 e0       	ldi	r18, 0x01	; 1
    6196:	30 e0       	ldi	r19, 0x00	; 0
    6198:	12 96       	adiw	r26, 0x02	; 2
    619a:	0c 90       	ld	r0, X
    619c:	12 97       	sbiw	r26, 0x02	; 2
    619e:	02 c0       	rjmp	.+4      	; 0x61a4 <status_leds_fastBlink+0x32>
    61a0:	22 0f       	add	r18, r18
    61a2:	33 1f       	adc	r19, r19
    61a4:	0a 94       	dec	r0
    61a6:	e2 f7       	brpl	.-8      	; 0x61a0 <status_leds_fastBlink+0x2e>
    61a8:	24 27       	eor	r18, r20
    61aa:	28 83       	st	Y, r18
    61ac:	fd 01       	movw	r30, r26
    61ae:	82 e0       	ldi	r24, 0x02	; 2
    61b0:	84 83       	std	Z+4, r24	; 0x04
    61b2:	df 91       	pop	r29
    61b4:	cf 91       	pop	r28
    61b6:	08 95       	ret

000061b8 <status_leds_ledOn>:
    61b8:	28 2f       	mov	r18, r24
    61ba:	30 e0       	ldi	r19, 0x00	; 0
    61bc:	f9 01       	movw	r30, r18
    61be:	ee 0f       	add	r30, r30
    61c0:	ff 1f       	adc	r31, r31
    61c2:	e2 0f       	add	r30, r18
    61c4:	f3 1f       	adc	r31, r19
    61c6:	ee 0f       	add	r30, r30
    61c8:	ff 1f       	adc	r31, r31
    61ca:	e1 59       	subi	r30, 0x91	; 145
    61cc:	fa 4e       	sbci	r31, 0xEA	; 234
    61ce:	93 e0       	ldi	r25, 0x03	; 3
    61d0:	94 83       	std	Z+4, r25	; 0x04
    61d2:	60 cf       	rjmp	.-320    	; 0x6094 <_turn_on>
    61d4:	08 95       	ret

000061d6 <status_leds_ledOff>:
    61d6:	28 2f       	mov	r18, r24
    61d8:	30 e0       	ldi	r19, 0x00	; 0
    61da:	f9 01       	movw	r30, r18
    61dc:	ee 0f       	add	r30, r30
    61de:	ff 1f       	adc	r31, r31
    61e0:	e2 0f       	add	r30, r18
    61e2:	f3 1f       	adc	r31, r19
    61e4:	ee 0f       	add	r30, r30
    61e6:	ff 1f       	adc	r31, r31
    61e8:	e1 59       	subi	r30, 0x91	; 145
    61ea:	fa 4e       	sbci	r31, 0xEA	; 234
    61ec:	94 e0       	ldi	r25, 0x04	; 4
    61ee:	94 83       	std	Z+4, r25	; 0x04
    61f0:	05 cf       	rjmp	.-502    	; 0x5ffc <_turn_off>
    61f2:	08 95       	ret

000061f4 <status_leds_longPuls>:
    61f4:	90 e0       	ldi	r25, 0x00	; 0
    61f6:	fc 01       	movw	r30, r24
    61f8:	ee 0f       	add	r30, r30
    61fa:	ff 1f       	adc	r31, r31
    61fc:	df 01       	movw	r26, r30
    61fe:	a8 0f       	add	r26, r24
    6200:	b9 1f       	adc	r27, r25
    6202:	aa 0f       	add	r26, r26
    6204:	bb 1f       	adc	r27, r27
    6206:	a1 59       	subi	r26, 0x91	; 145
    6208:	ba 4e       	sbci	r27, 0xEA	; 234
    620a:	24 e0       	ldi	r18, 0x04	; 4
    620c:	15 96       	adiw	r26, 0x05	; 5
    620e:	2c 93       	st	X, r18
    6210:	15 97       	sbiw	r26, 0x05	; 5
    6212:	fd 01       	movw	r30, r26
    6214:	14 82       	std	Z+4, r1	; 0x04
    6216:	08 95       	ret

00006218 <status_leds_shortPuls>:
    6218:	90 e0       	ldi	r25, 0x00	; 0
    621a:	fc 01       	movw	r30, r24
    621c:	ee 0f       	add	r30, r30
    621e:	ff 1f       	adc	r31, r31
    6220:	df 01       	movw	r26, r30
    6222:	a8 0f       	add	r26, r24
    6224:	b9 1f       	adc	r27, r25
    6226:	aa 0f       	add	r26, r26
    6228:	bb 1f       	adc	r27, r27
    622a:	a1 59       	subi	r26, 0x91	; 145
    622c:	ba 4e       	sbci	r27, 0xEA	; 234
    622e:	21 e0       	ldi	r18, 0x01	; 1
    6230:	15 96       	adiw	r26, 0x05	; 5
    6232:	2c 93       	st	X, r18
    6234:	15 97       	sbiw	r26, 0x05	; 5
    6236:	fd 01       	movw	r30, r26
    6238:	14 82       	std	Z+4, r1	; 0x04
    623a:	08 95       	ret

0000623c <_initTwiInterface>:
    623c:	80 91 95 15 	lds	r24, 0x1595	; 0x801595 <_twiIsInitiated>
    6240:	81 11       	cpse	r24, r1
    6242:	0c c0       	rjmp	.+24     	; 0x625c <_initTwiInterface+0x20>
    6244:	8c e0       	ldi	r24, 0x0C	; 12
    6246:	80 93 b8 00 	sts	0x00B8, r24	; 0x8000b8 <__TEXT_REGION_LENGTH__+0x7000b8>
    624a:	8f ef       	ldi	r24, 0xFF	; 255
    624c:	80 93 bb 00 	sts	0x00BB, r24	; 0x8000bb <__TEXT_REGION_LENGTH__+0x7000bb>
    6250:	84 e0       	ldi	r24, 0x04	; 4
    6252:	80 93 bc 00 	sts	0x00BC, r24	; 0x8000bc <__TEXT_REGION_LENGTH__+0x7000bc>
    6256:	81 e0       	ldi	r24, 0x01	; 1
    6258:	80 93 95 15 	sts	0x1595, r24	; 0x801595 <_twiIsInitiated>
    625c:	08 95       	ret

0000625e <twiCreate>:
    625e:	af 92       	push	r10
    6260:	bf 92       	push	r11
    6262:	cf 92       	push	r12
    6264:	df 92       	push	r13
    6266:	ef 92       	push	r14
    6268:	ff 92       	push	r15
    626a:	0f 93       	push	r16
    626c:	1f 93       	push	r17
    626e:	cf 93       	push	r28
    6270:	df 93       	push	r29
    6272:	a8 2e       	mov	r10, r24
    6274:	b6 2e       	mov	r11, r22
    6276:	69 01       	movw	r12, r18
    6278:	7a 01       	movw	r14, r20
    627a:	84 e0       	ldi	r24, 0x04	; 4
    627c:	90 e0       	ldi	r25, 0x00	; 0
    627e:	46 d4       	rcall	.+2188   	; 0x6b0c <malloc>
    6280:	ec 01       	movw	r28, r24
    6282:	89 2b       	or	r24, r25
    6284:	61 f1       	breq	.+88     	; 0x62de <twiCreate+0x80>
    6286:	a8 82       	st	Y, r10
    6288:	81 e0       	ldi	r24, 0x01	; 1
    628a:	b8 12       	cpse	r11, r24
    628c:	12 c0       	rjmp	.+36     	; 0x62b2 <twiCreate+0x54>
    628e:	c7 01       	movw	r24, r14
    6290:	b6 01       	movw	r22, r12
    6292:	20 ea       	ldi	r18, 0xA0	; 160
    6294:	36 e8       	ldi	r19, 0x86	; 134
    6296:	41 e0       	ldi	r20, 0x01	; 1
    6298:	50 e0       	ldi	r21, 0x00	; 0
    629a:	c7 d3       	rcall	.+1934   	; 0x6a2a <__udivmodsi4>
    629c:	da 01       	movw	r26, r20
    629e:	c9 01       	movw	r24, r18
    62a0:	40 97       	sbiw	r24, 0x10	; 16
    62a2:	a1 09       	sbc	r26, r1
    62a4:	b1 09       	sbc	r27, r1
    62a6:	b6 95       	lsr	r27
    62a8:	a7 95       	ror	r26
    62aa:	97 95       	ror	r25
    62ac:	87 95       	ror	r24
    62ae:	89 83       	std	Y+1, r24	; 0x01
    62b0:	11 c0       	rjmp	.+34     	; 0x62d4 <twiCreate+0x76>
    62b2:	c7 01       	movw	r24, r14
    62b4:	b6 01       	movw	r22, r12
    62b6:	20 e8       	ldi	r18, 0x80	; 128
    62b8:	3a e1       	ldi	r19, 0x1A	; 26
    62ba:	46 e0       	ldi	r20, 0x06	; 6
    62bc:	50 e0       	ldi	r21, 0x00	; 0
    62be:	b5 d3       	rcall	.+1898   	; 0x6a2a <__udivmodsi4>
    62c0:	da 01       	movw	r26, r20
    62c2:	c9 01       	movw	r24, r18
    62c4:	40 97       	sbiw	r24, 0x10	; 16
    62c6:	a1 09       	sbc	r26, r1
    62c8:	b1 09       	sbc	r27, r1
    62ca:	b6 95       	lsr	r27
    62cc:	a7 95       	ror	r26
    62ce:	97 95       	ror	r25
    62d0:	87 95       	ror	r24
    62d2:	89 83       	std	Y+1, r24	; 0x01
    62d4:	1b 83       	std	Y+3, r17	; 0x03
    62d6:	0a 83       	std	Y+2, r16	; 0x02
    62d8:	8c 2f       	mov	r24, r28
    62da:	9d 2f       	mov	r25, r29
    62dc:	02 c0       	rjmp	.+4      	; 0x62e2 <twiCreate+0x84>
    62de:	80 e0       	ldi	r24, 0x00	; 0
    62e0:	90 e0       	ldi	r25, 0x00	; 0
    62e2:	df 91       	pop	r29
    62e4:	cf 91       	pop	r28
    62e6:	1f 91       	pop	r17
    62e8:	0f 91       	pop	r16
    62ea:	ff 90       	pop	r15
    62ec:	ef 90       	pop	r14
    62ee:	df 90       	pop	r13
    62f0:	cf 90       	pop	r12
    62f2:	bf 90       	pop	r11
    62f4:	af 90       	pop	r10
    62f6:	08 95       	ret

000062f8 <twiIsBusy>:
    62f8:	80 91 bc 00 	lds	r24, 0x00BC	; 0x8000bc <__TEXT_REGION_LENGTH__+0x7000bc>
    62fc:	81 70       	andi	r24, 0x01	; 1
    62fe:	08 95       	ret

00006300 <twiTransmit>:
    6300:	ff 92       	push	r15
    6302:	0f 93       	push	r16
    6304:	1f 93       	push	r17
    6306:	cf 93       	push	r28
    6308:	df 93       	push	r29
    630a:	00 97       	sbiw	r24, 0x00	; 0
    630c:	d1 f1       	breq	.+116    	; 0x6382 <twiTransmit+0x82>
    630e:	4a 30       	cpi	r20, 0x0A	; 10
    6310:	d0 f5       	brcc	.+116    	; 0x6386 <twiTransmit+0x86>
    6312:	f4 2e       	mov	r15, r20
    6314:	8b 01       	movw	r16, r22
    6316:	ec 01       	movw	r28, r24
    6318:	ef df       	rcall	.-34     	; 0x62f8 <twiIsBusy>
    631a:	81 11       	cpse	r24, r1
    631c:	36 c0       	rjmp	.+108    	; 0x638a <twiTransmit+0x8a>
    631e:	80 91 88 15 	lds	r24, 0x1588	; 0x801588 <_twiCurrentHandler>
    6322:	90 91 89 15 	lds	r25, 0x1589	; 0x801589 <_twiCurrentHandler+0x1>
    6326:	c8 17       	cp	r28, r24
    6328:	d9 07       	cpc	r29, r25
    632a:	41 f0       	breq	.+16     	; 0x633c <twiTransmit+0x3c>
    632c:	87 df       	rcall	.-242    	; 0x623c <_initTwiInterface>
    632e:	89 81       	ldd	r24, Y+1	; 0x01
    6330:	80 93 b8 00 	sts	0x00B8, r24	; 0x8000b8 <__TEXT_REGION_LENGTH__+0x7000b8>
    6334:	d0 93 89 15 	sts	0x1589, r29	; 0x801589 <_twiCurrentHandler+0x1>
    6338:	c0 93 88 15 	sts	0x1588, r28	; 0x801588 <_twiCurrentHandler>
    633c:	81 e0       	ldi	r24, 0x01	; 1
    633e:	8f 0d       	add	r24, r15
    6340:	80 93 8a 15 	sts	0x158A, r24	; 0x80158a <_twiMessageLen>
    6344:	88 81       	ld	r24, Y
    6346:	88 0f       	add	r24, r24
    6348:	80 93 8b 15 	sts	0x158B, r24	; 0x80158b <_twiMessageBuffer>
    634c:	ff 20       	and	r15, r15
    634e:	89 f0       	breq	.+34     	; 0x6372 <twiTransmit+0x72>
    6350:	f8 01       	movw	r30, r16
    6352:	ac e8       	ldi	r26, 0x8C	; 140
    6354:	b5 e1       	ldi	r27, 0x15	; 21
    6356:	4f ef       	ldi	r20, 0xFF	; 255
    6358:	4f 0d       	add	r20, r15
    635a:	64 2f       	mov	r22, r20
    635c:	70 e0       	ldi	r23, 0x00	; 0
    635e:	cb 01       	movw	r24, r22
    6360:	01 96       	adiw	r24, 0x01	; 1
    6362:	b8 01       	movw	r22, r16
    6364:	68 0f       	add	r22, r24
    6366:	79 1f       	adc	r23, r25
    6368:	81 91       	ld	r24, Z+
    636a:	8d 93       	st	X+, r24
    636c:	e6 17       	cp	r30, r22
    636e:	f7 07       	cpc	r31, r23
    6370:	d9 f7       	brne	.-10     	; 0x6368 <twiTransmit+0x68>
    6372:	88 ef       	ldi	r24, 0xF8	; 248
    6374:	80 93 21 02 	sts	0x0221, r24	; 0x800221 <_twiCurrentState>
    6378:	85 ea       	ldi	r24, 0xA5	; 165
    637a:	80 93 bc 00 	sts	0x00BC, r24	; 0x8000bc <__TEXT_REGION_LENGTH__+0x7000bc>
    637e:	84 e0       	ldi	r24, 0x04	; 4
    6380:	05 c0       	rjmp	.+10     	; 0x638c <twiTransmit+0x8c>
    6382:	86 e0       	ldi	r24, 0x06	; 6
    6384:	03 c0       	rjmp	.+6      	; 0x638c <twiTransmit+0x8c>
    6386:	87 e0       	ldi	r24, 0x07	; 7
    6388:	01 c0       	rjmp	.+2      	; 0x638c <twiTransmit+0x8c>
    638a:	82 e0       	ldi	r24, 0x02	; 2
    638c:	df 91       	pop	r29
    638e:	cf 91       	pop	r28
    6390:	1f 91       	pop	r17
    6392:	0f 91       	pop	r16
    6394:	ff 90       	pop	r15
    6396:	08 95       	ret

00006398 <twiReceive>:
    6398:	1f 93       	push	r17
    639a:	cf 93       	push	r28
    639c:	df 93       	push	r29
    639e:	00 97       	sbiw	r24, 0x00	; 0
    63a0:	29 f1       	breq	.+74     	; 0x63ec <twiReceive+0x54>
    63a2:	6b 30       	cpi	r22, 0x0B	; 11
    63a4:	28 f5       	brcc	.+74     	; 0x63f0 <twiReceive+0x58>
    63a6:	16 2f       	mov	r17, r22
    63a8:	ec 01       	movw	r28, r24
    63aa:	a6 df       	rcall	.-180    	; 0x62f8 <twiIsBusy>
    63ac:	81 11       	cpse	r24, r1
    63ae:	22 c0       	rjmp	.+68     	; 0x63f4 <twiReceive+0x5c>
    63b0:	80 91 88 15 	lds	r24, 0x1588	; 0x801588 <_twiCurrentHandler>
    63b4:	90 91 89 15 	lds	r25, 0x1589	; 0x801589 <_twiCurrentHandler+0x1>
    63b8:	c8 17       	cp	r28, r24
    63ba:	d9 07       	cpc	r29, r25
    63bc:	41 f0       	breq	.+16     	; 0x63ce <twiReceive+0x36>
    63be:	3e df       	rcall	.-388    	; 0x623c <_initTwiInterface>
    63c0:	89 81       	ldd	r24, Y+1	; 0x01
    63c2:	80 93 b8 00 	sts	0x00B8, r24	; 0x8000b8 <__TEXT_REGION_LENGTH__+0x7000b8>
    63c6:	d0 93 89 15 	sts	0x1589, r29	; 0x801589 <_twiCurrentHandler+0x1>
    63ca:	c0 93 88 15 	sts	0x1588, r28	; 0x801588 <_twiCurrentHandler>
    63ce:	10 93 8a 15 	sts	0x158A, r17	; 0x80158a <_twiMessageLen>
    63d2:	88 81       	ld	r24, Y
    63d4:	88 0f       	add	r24, r24
    63d6:	81 60       	ori	r24, 0x01	; 1
    63d8:	80 93 8b 15 	sts	0x158B, r24	; 0x80158b <_twiMessageBuffer>
    63dc:	88 ef       	ldi	r24, 0xF8	; 248
    63de:	80 93 21 02 	sts	0x0221, r24	; 0x800221 <_twiCurrentState>
    63e2:	85 ea       	ldi	r24, 0xA5	; 165
    63e4:	80 93 bc 00 	sts	0x00BC, r24	; 0x8000bc <__TEXT_REGION_LENGTH__+0x7000bc>
    63e8:	85 e0       	ldi	r24, 0x05	; 5
    63ea:	05 c0       	rjmp	.+10     	; 0x63f6 <twiReceive+0x5e>
    63ec:	86 e0       	ldi	r24, 0x06	; 6
    63ee:	03 c0       	rjmp	.+6      	; 0x63f6 <twiReceive+0x5e>
    63f0:	87 e0       	ldi	r24, 0x07	; 7
    63f2:	01 c0       	rjmp	.+2      	; 0x63f6 <twiReceive+0x5e>
    63f4:	82 e0       	ldi	r24, 0x02	; 2
    63f6:	df 91       	pop	r29
    63f8:	cf 91       	pop	r28
    63fa:	1f 91       	pop	r17
    63fc:	08 95       	ret

000063fe <__vector_39>:
    63fe:	1f 92       	push	r1
    6400:	0f 92       	push	r0
    6402:	0f b6       	in	r0, 0x3f	; 63
    6404:	0f 92       	push	r0
    6406:	11 24       	eor	r1, r1
    6408:	0b b6       	in	r0, 0x3b	; 59
    640a:	0f 92       	push	r0
    640c:	2f 93       	push	r18
    640e:	3f 93       	push	r19
    6410:	4f 93       	push	r20
    6412:	5f 93       	push	r21
    6414:	6f 93       	push	r22
    6416:	7f 93       	push	r23
    6418:	8f 93       	push	r24
    641a:	9f 93       	push	r25
    641c:	af 93       	push	r26
    641e:	bf 93       	push	r27
    6420:	ef 93       	push	r30
    6422:	ff 93       	push	r31
    6424:	e0 91 b9 00 	lds	r30, 0x00B9	; 0x8000b9 <__TEXT_REGION_LENGTH__+0x7000b9>
    6428:	8e 2f       	mov	r24, r30
    642a:	90 e0       	ldi	r25, 0x00	; 0
    642c:	fc 01       	movw	r30, r24
    642e:	38 97       	sbiw	r30, 0x08	; 8
    6430:	e1 35       	cpi	r30, 0x51	; 81
    6432:	f1 05       	cpc	r31, r1
    6434:	08 f0       	brcs	.+2      	; 0x6438 <__vector_39+0x3a>
    6436:	75 c0       	rjmp	.+234    	; 0x6522 <__vector_39+0x124>
    6438:	88 27       	eor	r24, r24
    643a:	e4 58       	subi	r30, 0x84	; 132
    643c:	ff 4f       	sbci	r31, 0xFF	; 255
    643e:	8f 4f       	sbci	r24, 0xFF	; 255
    6440:	16 c3       	rjmp	.+1580   	; 0x6a6e <__tablejump2__>
    6442:	10 92 87 15 	sts	0x1587, r1	; 0x801587 <_index.1885>
    6446:	e0 91 87 15 	lds	r30, 0x1587	; 0x801587 <_index.1885>
    644a:	80 91 8a 15 	lds	r24, 0x158A	; 0x80158a <_twiMessageLen>
    644e:	e8 17       	cp	r30, r24
    6450:	70 f4       	brcc	.+28     	; 0x646e <__vector_39+0x70>
    6452:	81 e0       	ldi	r24, 0x01	; 1
    6454:	8e 0f       	add	r24, r30
    6456:	80 93 87 15 	sts	0x1587, r24	; 0x801587 <_index.1885>
    645a:	f0 e0       	ldi	r31, 0x00	; 0
    645c:	e5 57       	subi	r30, 0x75	; 117
    645e:	fa 4e       	sbci	r31, 0xEA	; 234
    6460:	80 81       	ld	r24, Z
    6462:	80 93 bb 00 	sts	0x00BB, r24	; 0x8000bb <__TEXT_REGION_LENGTH__+0x7000bb>
    6466:	85 e8       	ldi	r24, 0x85	; 133
    6468:	80 93 bc 00 	sts	0x00BC, r24	; 0x8000bc <__TEXT_REGION_LENGTH__+0x7000bc>
    646c:	72 c0       	rjmp	.+228    	; 0x6552 <__vector_39+0x154>
    646e:	84 e9       	ldi	r24, 0x94	; 148
    6470:	80 93 bc 00 	sts	0x00BC, r24	; 0x8000bc <__TEXT_REGION_LENGTH__+0x7000bc>
    6474:	80 91 88 15 	lds	r24, 0x1588	; 0x801588 <_twiCurrentHandler>
    6478:	90 91 89 15 	lds	r25, 0x1589	; 0x801589 <_twiCurrentHandler+0x1>
    647c:	dc 01       	movw	r26, r24
    647e:	12 96       	adiw	r26, 0x02	; 2
    6480:	ed 91       	ld	r30, X+
    6482:	fc 91       	ld	r31, X
    6484:	13 97       	sbiw	r26, 0x03	; 3
    6486:	30 97       	sbiw	r30, 0x00	; 0
    6488:	09 f4       	brne	.+2      	; 0x648c <__vector_39+0x8e>
    648a:	63 c0       	rjmp	.+198    	; 0x6552 <__vector_39+0x154>
    648c:	20 e0       	ldi	r18, 0x00	; 0
    648e:	40 e0       	ldi	r20, 0x00	; 0
    6490:	50 e0       	ldi	r21, 0x00	; 0
    6492:	64 e0       	ldi	r22, 0x04	; 4
    6494:	19 95       	eicall
    6496:	5d c0       	rjmp	.+186    	; 0x6552 <__vector_39+0x154>
    6498:	e0 91 87 15 	lds	r30, 0x1587	; 0x801587 <_index.1885>
    649c:	81 e0       	ldi	r24, 0x01	; 1
    649e:	8e 0f       	add	r24, r30
    64a0:	80 93 87 15 	sts	0x1587, r24	; 0x801587 <_index.1885>
    64a4:	80 91 bb 00 	lds	r24, 0x00BB	; 0x8000bb <__TEXT_REGION_LENGTH__+0x7000bb>
    64a8:	f0 e0       	ldi	r31, 0x00	; 0
    64aa:	e5 57       	subi	r30, 0x75	; 117
    64ac:	fa 4e       	sbci	r31, 0xEA	; 234
    64ae:	80 83       	st	Z, r24
    64b0:	80 91 b9 00 	lds	r24, 0x00B9	; 0x8000b9 <__TEXT_REGION_LENGTH__+0x7000b9>
    64b4:	80 34       	cpi	r24, 0x40	; 64
    64b6:	11 f4       	brne	.+4      	; 0x64bc <__vector_39+0xbe>
    64b8:	10 92 87 15 	sts	0x1587, r1	; 0x801587 <_index.1885>
    64bc:	20 91 87 15 	lds	r18, 0x1587	; 0x801587 <_index.1885>
    64c0:	30 e0       	ldi	r19, 0x00	; 0
    64c2:	80 91 8a 15 	lds	r24, 0x158A	; 0x80158a <_twiMessageLen>
    64c6:	90 e0       	ldi	r25, 0x00	; 0
    64c8:	01 97       	sbiw	r24, 0x01	; 1
    64ca:	28 17       	cp	r18, r24
    64cc:	39 07       	cpc	r19, r25
    64ce:	24 f4       	brge	.+8      	; 0x64d8 <__vector_39+0xda>
    64d0:	85 ec       	ldi	r24, 0xC5	; 197
    64d2:	80 93 bc 00 	sts	0x00BC, r24	; 0x8000bc <__TEXT_REGION_LENGTH__+0x7000bc>
    64d6:	3d c0       	rjmp	.+122    	; 0x6552 <__vector_39+0x154>
    64d8:	85 e8       	ldi	r24, 0x85	; 133
    64da:	80 93 bc 00 	sts	0x00BC, r24	; 0x8000bc <__TEXT_REGION_LENGTH__+0x7000bc>
    64de:	39 c0       	rjmp	.+114    	; 0x6552 <__vector_39+0x154>
    64e0:	80 91 bb 00 	lds	r24, 0x00BB	; 0x8000bb <__TEXT_REGION_LENGTH__+0x7000bb>
    64e4:	e0 91 87 15 	lds	r30, 0x1587	; 0x801587 <_index.1885>
    64e8:	f0 e0       	ldi	r31, 0x00	; 0
    64ea:	e5 57       	subi	r30, 0x75	; 117
    64ec:	fa 4e       	sbci	r31, 0xEA	; 234
    64ee:	80 83       	st	Z, r24
    64f0:	84 e9       	ldi	r24, 0x94	; 148
    64f2:	80 93 bc 00 	sts	0x00BC, r24	; 0x8000bc <__TEXT_REGION_LENGTH__+0x7000bc>
    64f6:	80 91 88 15 	lds	r24, 0x1588	; 0x801588 <_twiCurrentHandler>
    64fa:	90 91 89 15 	lds	r25, 0x1589	; 0x801589 <_twiCurrentHandler+0x1>
    64fe:	dc 01       	movw	r26, r24
    6500:	12 96       	adiw	r26, 0x02	; 2
    6502:	ed 91       	ld	r30, X+
    6504:	fc 91       	ld	r31, X
    6506:	13 97       	sbiw	r26, 0x03	; 3
    6508:	30 97       	sbiw	r30, 0x00	; 0
    650a:	19 f1       	breq	.+70     	; 0x6552 <__vector_39+0x154>
    650c:	20 91 8a 15 	lds	r18, 0x158A	; 0x80158a <_twiMessageLen>
    6510:	4b e8       	ldi	r20, 0x8B	; 139
    6512:	55 e1       	ldi	r21, 0x15	; 21
    6514:	65 e0       	ldi	r22, 0x05	; 5
    6516:	19 95       	eicall
    6518:	1c c0       	rjmp	.+56     	; 0x6552 <__vector_39+0x154>
    651a:	85 ea       	ldi	r24, 0xA5	; 165
    651c:	80 93 bc 00 	sts	0x00BC, r24	; 0x8000bc <__TEXT_REGION_LENGTH__+0x7000bc>
    6520:	18 c0       	rjmp	.+48     	; 0x6552 <__vector_39+0x154>
    6522:	80 91 b9 00 	lds	r24, 0x00B9	; 0x8000b9 <__TEXT_REGION_LENGTH__+0x7000b9>
    6526:	80 93 21 02 	sts	0x0221, r24	; 0x800221 <_twiCurrentState>
    652a:	84 e0       	ldi	r24, 0x04	; 4
    652c:	80 93 bc 00 	sts	0x00BC, r24	; 0x8000bc <__TEXT_REGION_LENGTH__+0x7000bc>
    6530:	80 91 88 15 	lds	r24, 0x1588	; 0x801588 <_twiCurrentHandler>
    6534:	90 91 89 15 	lds	r25, 0x1589	; 0x801589 <_twiCurrentHandler+0x1>
    6538:	dc 01       	movw	r26, r24
    653a:	12 96       	adiw	r26, 0x02	; 2
    653c:	ed 91       	ld	r30, X+
    653e:	fc 91       	ld	r31, X
    6540:	13 97       	sbiw	r26, 0x03	; 3
    6542:	30 97       	sbiw	r30, 0x00	; 0
    6544:	31 f0       	breq	.+12     	; 0x6552 <__vector_39+0x154>
    6546:	20 e0       	ldi	r18, 0x00	; 0
    6548:	40 e0       	ldi	r20, 0x00	; 0
    654a:	50 e0       	ldi	r21, 0x00	; 0
    654c:	60 91 21 02 	lds	r22, 0x0221	; 0x800221 <_twiCurrentState>
    6550:	19 95       	eicall
    6552:	ff 91       	pop	r31
    6554:	ef 91       	pop	r30
    6556:	bf 91       	pop	r27
    6558:	af 91       	pop	r26
    655a:	9f 91       	pop	r25
    655c:	8f 91       	pop	r24
    655e:	7f 91       	pop	r23
    6560:	6f 91       	pop	r22
    6562:	5f 91       	pop	r21
    6564:	4f 91       	pop	r20
    6566:	3f 91       	pop	r19
    6568:	2f 91       	pop	r18
    656a:	0f 90       	pop	r0
    656c:	0b be       	out	0x3b, r0	; 59
    656e:	0f 90       	pop	r0
    6570:	0f be       	out	0x3f, r0	; 63
    6572:	0f 90       	pop	r0
    6574:	1f 90       	pop	r1
    6576:	18 95       	reti

00006578 <fifo_init>:
    6578:	fc 01       	movw	r30, r24
    657a:	41 11       	cpse	r20, r1
    657c:	01 c0       	rjmp	.+2      	; 0x6580 <fifo_init+0x8>
    657e:	e7 d3       	rcall	.+1998   	; 0x6d4e <abort>
    6580:	84 2f       	mov	r24, r20
    6582:	90 e0       	ldi	r25, 0x00	; 0
    6584:	9c 01       	movw	r18, r24
    6586:	21 50       	subi	r18, 0x01	; 1
    6588:	31 09       	sbc	r19, r1
    658a:	82 23       	and	r24, r18
    658c:	93 23       	and	r25, r19
    658e:	89 2b       	or	r24, r25
    6590:	09 f0       	breq	.+2      	; 0x6594 <fifo_init+0x1c>
    6592:	dd d3       	rcall	.+1978   	; 0x6d4e <abort>
    6594:	41 38       	cpi	r20, 0x81	; 129
    6596:	08 f0       	brcs	.+2      	; 0x659a <fifo_init+0x22>
    6598:	da d3       	rcall	.+1972   	; 0x6d4e <abort>
    659a:	12 82       	std	Z+2, r1	; 0x02
    659c:	13 82       	std	Z+3, r1	; 0x03
    659e:	44 83       	std	Z+4, r20	; 0x04
    65a0:	44 0f       	add	r20, r20
    65a2:	41 50       	subi	r20, 0x01	; 1
    65a4:	45 83       	std	Z+5, r20	; 0x05
    65a6:	71 83       	std	Z+1, r23	; 0x01
    65a8:	60 83       	st	Z, r22
    65aa:	80 e0       	ldi	r24, 0x00	; 0
    65ac:	90 e0       	ldi	r25, 0x00	; 0
    65ae:	08 95       	ret

000065b0 <__subsf3>:
    65b0:	50 58       	subi	r21, 0x80	; 128

000065b2 <__addsf3>:
    65b2:	bb 27       	eor	r27, r27
    65b4:	aa 27       	eor	r26, r26
    65b6:	13 d0       	rcall	.+38     	; 0x65de <__addsf3x>
    65b8:	0c 94 1f 22 	jmp	0x443e	; 0x443e <__fp_round>
    65bc:	0e 94 11 22 	call	0x4422	; 0x4422 <__fp_pscA>
    65c0:	38 f0       	brcs	.+14     	; 0x65d0 <__addsf3+0x1e>
    65c2:	0e 94 18 22 	call	0x4430	; 0x4430 <__fp_pscB>
    65c6:	20 f0       	brcs	.+8      	; 0x65d0 <__addsf3+0x1e>
    65c8:	39 f4       	brne	.+14     	; 0x65d8 <__addsf3+0x26>
    65ca:	9f 3f       	cpi	r25, 0xFF	; 255
    65cc:	19 f4       	brne	.+6      	; 0x65d4 <__addsf3+0x22>
    65ce:	26 f4       	brtc	.+8      	; 0x65d8 <__addsf3+0x26>
    65d0:	0c 94 0e 22 	jmp	0x441c	; 0x441c <__fp_nan>
    65d4:	0e f4       	brtc	.+2      	; 0x65d8 <__addsf3+0x26>
    65d6:	e0 95       	com	r30
    65d8:	e7 fb       	bst	r30, 7
    65da:	0c 94 08 22 	jmp	0x4410	; 0x4410 <__fp_inf>

000065de <__addsf3x>:
    65de:	e9 2f       	mov	r30, r25
    65e0:	0e 94 30 22 	call	0x4460	; 0x4460 <__fp_split3>
    65e4:	58 f3       	brcs	.-42     	; 0x65bc <__addsf3+0xa>
    65e6:	ba 17       	cp	r27, r26
    65e8:	62 07       	cpc	r22, r18
    65ea:	73 07       	cpc	r23, r19
    65ec:	84 07       	cpc	r24, r20
    65ee:	95 07       	cpc	r25, r21
    65f0:	20 f0       	brcs	.+8      	; 0x65fa <__addsf3x+0x1c>
    65f2:	79 f4       	brne	.+30     	; 0x6612 <__addsf3x+0x34>
    65f4:	a6 f5       	brtc	.+104    	; 0x665e <__addsf3x+0x80>
    65f6:	0c 94 52 22 	jmp	0x44a4	; 0x44a4 <__fp_zero>
    65fa:	0e f4       	brtc	.+2      	; 0x65fe <__addsf3x+0x20>
    65fc:	e0 95       	com	r30
    65fe:	0b 2e       	mov	r0, r27
    6600:	ba 2f       	mov	r27, r26
    6602:	a0 2d       	mov	r26, r0
    6604:	0b 01       	movw	r0, r22
    6606:	b9 01       	movw	r22, r18
    6608:	90 01       	movw	r18, r0
    660a:	0c 01       	movw	r0, r24
    660c:	ca 01       	movw	r24, r20
    660e:	a0 01       	movw	r20, r0
    6610:	11 24       	eor	r1, r1
    6612:	ff 27       	eor	r31, r31
    6614:	59 1b       	sub	r21, r25
    6616:	99 f0       	breq	.+38     	; 0x663e <__addsf3x+0x60>
    6618:	59 3f       	cpi	r21, 0xF9	; 249
    661a:	50 f4       	brcc	.+20     	; 0x6630 <__addsf3x+0x52>
    661c:	50 3e       	cpi	r21, 0xE0	; 224
    661e:	68 f1       	brcs	.+90     	; 0x667a <__addsf3x+0x9c>
    6620:	1a 16       	cp	r1, r26
    6622:	f0 40       	sbci	r31, 0x00	; 0
    6624:	a2 2f       	mov	r26, r18
    6626:	23 2f       	mov	r18, r19
    6628:	34 2f       	mov	r19, r20
    662a:	44 27       	eor	r20, r20
    662c:	58 5f       	subi	r21, 0xF8	; 248
    662e:	f3 cf       	rjmp	.-26     	; 0x6616 <__addsf3x+0x38>
    6630:	46 95       	lsr	r20
    6632:	37 95       	ror	r19
    6634:	27 95       	ror	r18
    6636:	a7 95       	ror	r26
    6638:	f0 40       	sbci	r31, 0x00	; 0
    663a:	53 95       	inc	r21
    663c:	c9 f7       	brne	.-14     	; 0x6630 <__addsf3x+0x52>
    663e:	7e f4       	brtc	.+30     	; 0x665e <__addsf3x+0x80>
    6640:	1f 16       	cp	r1, r31
    6642:	ba 0b       	sbc	r27, r26
    6644:	62 0b       	sbc	r22, r18
    6646:	73 0b       	sbc	r23, r19
    6648:	84 0b       	sbc	r24, r20
    664a:	ba f0       	brmi	.+46     	; 0x667a <__addsf3x+0x9c>
    664c:	91 50       	subi	r25, 0x01	; 1
    664e:	a1 f0       	breq	.+40     	; 0x6678 <__addsf3x+0x9a>
    6650:	ff 0f       	add	r31, r31
    6652:	bb 1f       	adc	r27, r27
    6654:	66 1f       	adc	r22, r22
    6656:	77 1f       	adc	r23, r23
    6658:	88 1f       	adc	r24, r24
    665a:	c2 f7       	brpl	.-16     	; 0x664c <__addsf3x+0x6e>
    665c:	0e c0       	rjmp	.+28     	; 0x667a <__addsf3x+0x9c>
    665e:	ba 0f       	add	r27, r26
    6660:	62 1f       	adc	r22, r18
    6662:	73 1f       	adc	r23, r19
    6664:	84 1f       	adc	r24, r20
    6666:	48 f4       	brcc	.+18     	; 0x667a <__addsf3x+0x9c>
    6668:	87 95       	ror	r24
    666a:	77 95       	ror	r23
    666c:	67 95       	ror	r22
    666e:	b7 95       	ror	r27
    6670:	f7 95       	ror	r31
    6672:	9e 3f       	cpi	r25, 0xFE	; 254
    6674:	08 f0       	brcs	.+2      	; 0x6678 <__addsf3x+0x9a>
    6676:	b0 cf       	rjmp	.-160    	; 0x65d8 <__addsf3+0x26>
    6678:	93 95       	inc	r25
    667a:	88 0f       	add	r24, r24
    667c:	08 f0       	brcs	.+2      	; 0x6680 <__addsf3x+0xa2>
    667e:	99 27       	eor	r25, r25
    6680:	ee 0f       	add	r30, r30
    6682:	97 95       	ror	r25
    6684:	87 95       	ror	r24
    6686:	08 95       	ret

00006688 <floor>:
    6688:	3c d0       	rcall	.+120    	; 0x6702 <__fp_trunc>
    668a:	88 f0       	brcs	.+34     	; 0x66ae <floor+0x26>
    668c:	9f 37       	cpi	r25, 0x7F	; 127
    668e:	48 f4       	brcc	.+18     	; 0x66a2 <floor+0x1a>
    6690:	91 11       	cpse	r25, r1
    6692:	16 f0       	brts	.+4      	; 0x6698 <floor+0x10>
    6694:	0c 94 53 22 	jmp	0x44a6	; 0x44a6 <__fp_szero>
    6698:	60 e0       	ldi	r22, 0x00	; 0
    669a:	70 e0       	ldi	r23, 0x00	; 0
    669c:	80 e8       	ldi	r24, 0x80	; 128
    669e:	9f eb       	ldi	r25, 0xBF	; 191
    66a0:	08 95       	ret
    66a2:	26 f4       	brtc	.+8      	; 0x66ac <floor+0x24>
    66a4:	1b 16       	cp	r1, r27
    66a6:	61 1d       	adc	r22, r1
    66a8:	71 1d       	adc	r23, r1
    66aa:	81 1d       	adc	r24, r1
    66ac:	01 c0       	rjmp	.+2      	; 0x66b0 <__fp_mintl>
    66ae:	1b c0       	rjmp	.+54     	; 0x66e6 <__fp_mpack>

000066b0 <__fp_mintl>:
    66b0:	88 23       	and	r24, r24
    66b2:	71 f4       	brne	.+28     	; 0x66d0 <__fp_mintl+0x20>
    66b4:	77 23       	and	r23, r23
    66b6:	21 f0       	breq	.+8      	; 0x66c0 <__fp_mintl+0x10>
    66b8:	98 50       	subi	r25, 0x08	; 8
    66ba:	87 2b       	or	r24, r23
    66bc:	76 2f       	mov	r23, r22
    66be:	07 c0       	rjmp	.+14     	; 0x66ce <__fp_mintl+0x1e>
    66c0:	66 23       	and	r22, r22
    66c2:	11 f4       	brne	.+4      	; 0x66c8 <__fp_mintl+0x18>
    66c4:	99 27       	eor	r25, r25
    66c6:	0d c0       	rjmp	.+26     	; 0x66e2 <__fp_mintl+0x32>
    66c8:	90 51       	subi	r25, 0x10	; 16
    66ca:	86 2b       	or	r24, r22
    66cc:	70 e0       	ldi	r23, 0x00	; 0
    66ce:	60 e0       	ldi	r22, 0x00	; 0
    66d0:	2a f0       	brmi	.+10     	; 0x66dc <__fp_mintl+0x2c>
    66d2:	9a 95       	dec	r25
    66d4:	66 0f       	add	r22, r22
    66d6:	77 1f       	adc	r23, r23
    66d8:	88 1f       	adc	r24, r24
    66da:	da f7       	brpl	.-10     	; 0x66d2 <__fp_mintl+0x22>
    66dc:	88 0f       	add	r24, r24
    66de:	96 95       	lsr	r25
    66e0:	87 95       	ror	r24
    66e2:	97 f9       	bld	r25, 7
    66e4:	08 95       	ret

000066e6 <__fp_mpack>:
    66e6:	9f 3f       	cpi	r25, 0xFF	; 255
    66e8:	31 f0       	breq	.+12     	; 0x66f6 <__fp_mpack_finite+0xc>

000066ea <__fp_mpack_finite>:
    66ea:	91 50       	subi	r25, 0x01	; 1
    66ec:	20 f4       	brcc	.+8      	; 0x66f6 <__fp_mpack_finite+0xc>
    66ee:	87 95       	ror	r24
    66f0:	77 95       	ror	r23
    66f2:	67 95       	ror	r22
    66f4:	b7 95       	ror	r27
    66f6:	88 0f       	add	r24, r24
    66f8:	91 1d       	adc	r25, r1
    66fa:	96 95       	lsr	r25
    66fc:	87 95       	ror	r24
    66fe:	97 f9       	bld	r25, 7
    6700:	08 95       	ret

00006702 <__fp_trunc>:
    6702:	0e 94 38 22 	call	0x4470	; 0x4470 <__fp_splitA>
    6706:	a0 f0       	brcs	.+40     	; 0x6730 <__fp_trunc+0x2e>
    6708:	be e7       	ldi	r27, 0x7E	; 126
    670a:	b9 17       	cp	r27, r25
    670c:	88 f4       	brcc	.+34     	; 0x6730 <__fp_trunc+0x2e>
    670e:	bb 27       	eor	r27, r27
    6710:	9f 38       	cpi	r25, 0x8F	; 143
    6712:	60 f4       	brcc	.+24     	; 0x672c <__fp_trunc+0x2a>
    6714:	16 16       	cp	r1, r22
    6716:	b1 1d       	adc	r27, r1
    6718:	67 2f       	mov	r22, r23
    671a:	78 2f       	mov	r23, r24
    671c:	88 27       	eor	r24, r24
    671e:	98 5f       	subi	r25, 0xF8	; 248
    6720:	f7 cf       	rjmp	.-18     	; 0x6710 <__fp_trunc+0xe>
    6722:	86 95       	lsr	r24
    6724:	77 95       	ror	r23
    6726:	67 95       	ror	r22
    6728:	b1 1d       	adc	r27, r1
    672a:	93 95       	inc	r25
    672c:	96 39       	cpi	r25, 0x96	; 150
    672e:	c8 f3       	brcs	.-14     	; 0x6722 <__fp_trunc+0x20>
    6730:	08 95       	ret

00006732 <pow>:
    6732:	fa 01       	movw	r30, r20
    6734:	ee 0f       	add	r30, r30
    6736:	ff 1f       	adc	r31, r31
    6738:	30 96       	adiw	r30, 0x00	; 0
    673a:	21 05       	cpc	r18, r1
    673c:	31 05       	cpc	r19, r1
    673e:	a1 f1       	breq	.+104    	; 0x67a8 <pow+0x76>
    6740:	61 15       	cp	r22, r1
    6742:	71 05       	cpc	r23, r1
    6744:	61 f4       	brne	.+24     	; 0x675e <pow+0x2c>
    6746:	80 38       	cpi	r24, 0x80	; 128
    6748:	bf e3       	ldi	r27, 0x3F	; 63
    674a:	9b 07       	cpc	r25, r27
    674c:	49 f1       	breq	.+82     	; 0x67a0 <pow+0x6e>
    674e:	68 94       	set
    6750:	90 38       	cpi	r25, 0x80	; 128
    6752:	81 05       	cpc	r24, r1
    6754:	61 f0       	breq	.+24     	; 0x676e <pow+0x3c>
    6756:	80 38       	cpi	r24, 0x80	; 128
    6758:	bf ef       	ldi	r27, 0xFF	; 255
    675a:	9b 07       	cpc	r25, r27
    675c:	41 f0       	breq	.+16     	; 0x676e <pow+0x3c>
    675e:	99 23       	and	r25, r25
    6760:	4a f5       	brpl	.+82     	; 0x67b4 <pow+0x82>
    6762:	ff 3f       	cpi	r31, 0xFF	; 255
    6764:	e1 05       	cpc	r30, r1
    6766:	31 05       	cpc	r19, r1
    6768:	21 05       	cpc	r18, r1
    676a:	19 f1       	breq	.+70     	; 0x67b2 <pow+0x80>
    676c:	e8 94       	clt
    676e:	08 94       	sec
    6770:	e7 95       	ror	r30
    6772:	d9 01       	movw	r26, r18
    6774:	aa 23       	and	r26, r26
    6776:	29 f4       	brne	.+10     	; 0x6782 <pow+0x50>
    6778:	ab 2f       	mov	r26, r27
    677a:	be 2f       	mov	r27, r30
    677c:	f8 5f       	subi	r31, 0xF8	; 248
    677e:	d0 f3       	brcs	.-12     	; 0x6774 <pow+0x42>
    6780:	10 c0       	rjmp	.+32     	; 0x67a2 <pow+0x70>
    6782:	ff 5f       	subi	r31, 0xFF	; 255
    6784:	70 f4       	brcc	.+28     	; 0x67a2 <pow+0x70>
    6786:	a6 95       	lsr	r26
    6788:	e0 f7       	brcc	.-8      	; 0x6782 <pow+0x50>
    678a:	f7 39       	cpi	r31, 0x97	; 151
    678c:	50 f0       	brcs	.+20     	; 0x67a2 <pow+0x70>
    678e:	19 f0       	breq	.+6      	; 0x6796 <pow+0x64>
    6790:	ff 3a       	cpi	r31, 0xAF	; 175
    6792:	38 f4       	brcc	.+14     	; 0x67a2 <pow+0x70>
    6794:	9f 77       	andi	r25, 0x7F	; 127
    6796:	9f 93       	push	r25
    6798:	0d d0       	rcall	.+26     	; 0x67b4 <pow+0x82>
    679a:	0f 90       	pop	r0
    679c:	07 fc       	sbrc	r0, 7
    679e:	90 58       	subi	r25, 0x80	; 128
    67a0:	08 95       	ret
    67a2:	46 f0       	brts	.+16     	; 0x67b4 <pow+0x82>
    67a4:	0c 94 0e 22 	jmp	0x441c	; 0x441c <__fp_nan>
    67a8:	60 e0       	ldi	r22, 0x00	; 0
    67aa:	70 e0       	ldi	r23, 0x00	; 0
    67ac:	80 e8       	ldi	r24, 0x80	; 128
    67ae:	9f e3       	ldi	r25, 0x3F	; 63
    67b0:	08 95       	ret
    67b2:	4f e7       	ldi	r20, 0x7F	; 127
    67b4:	9f 77       	andi	r25, 0x7F	; 127
    67b6:	5f 93       	push	r21
    67b8:	4f 93       	push	r20
    67ba:	3f 93       	push	r19
    67bc:	2f 93       	push	r18
    67be:	ab d0       	rcall	.+342    	; 0x6916 <log>
    67c0:	2f 91       	pop	r18
    67c2:	3f 91       	pop	r19
    67c4:	4f 91       	pop	r20
    67c6:	5f 91       	pop	r21
    67c8:	0e 94 59 22 	call	0x44b2	; 0x44b2 <__mulsf3>
    67cc:	08 c0       	rjmp	.+16     	; 0x67de <exp>
    67ce:	29 f4       	brne	.+10     	; 0x67da <pow+0xa8>
    67d0:	16 f0       	brts	.+4      	; 0x67d6 <pow+0xa4>
    67d2:	0c 94 08 22 	jmp	0x4410	; 0x4410 <__fp_inf>
    67d6:	0c 94 52 22 	jmp	0x44a4	; 0x44a4 <__fp_zero>
    67da:	0c 94 0e 22 	jmp	0x441c	; 0x441c <__fp_nan>

000067de <exp>:
    67de:	0e 94 38 22 	call	0x4470	; 0x4470 <__fp_splitA>
    67e2:	a8 f3       	brcs	.-22     	; 0x67ce <pow+0x9c>
    67e4:	96 38       	cpi	r25, 0x86	; 134
    67e6:	a0 f7       	brcc	.-24     	; 0x67d0 <pow+0x9e>
    67e8:	07 f8       	bld	r0, 7
    67ea:	0f 92       	push	r0
    67ec:	e8 94       	clt
    67ee:	2b e3       	ldi	r18, 0x3B	; 59
    67f0:	3a ea       	ldi	r19, 0xAA	; 170
    67f2:	48 eb       	ldi	r20, 0xB8	; 184
    67f4:	5f e7       	ldi	r21, 0x7F	; 127
    67f6:	0e 94 67 22 	call	0x44ce	; 0x44ce <__mulsf3_pse>
    67fa:	0f 92       	push	r0
    67fc:	0f 92       	push	r0
    67fe:	0f 92       	push	r0
    6800:	4d b7       	in	r20, 0x3d	; 61
    6802:	5e b7       	in	r21, 0x3e	; 62
    6804:	0f 92       	push	r0
    6806:	cb d0       	rcall	.+406    	; 0x699e <modf>
    6808:	ea e9       	ldi	r30, 0x9A	; 154
    680a:	f1 e0       	ldi	r31, 0x01	; 1
    680c:	16 d0       	rcall	.+44     	; 0x683a <__fp_powser>
    680e:	4f 91       	pop	r20
    6810:	5f 91       	pop	r21
    6812:	ef 91       	pop	r30
    6814:	ff 91       	pop	r31
    6816:	e5 95       	asr	r30
    6818:	ee 1f       	adc	r30, r30
    681a:	ff 1f       	adc	r31, r31
    681c:	49 f0       	breq	.+18     	; 0x6830 <exp+0x52>
    681e:	fe 57       	subi	r31, 0x7E	; 126
    6820:	e0 68       	ori	r30, 0x80	; 128
    6822:	44 27       	eor	r20, r20
    6824:	ee 0f       	add	r30, r30
    6826:	44 1f       	adc	r20, r20
    6828:	fa 95       	dec	r31
    682a:	e1 f7       	brne	.-8      	; 0x6824 <exp+0x46>
    682c:	41 95       	neg	r20
    682e:	55 0b       	sbc	r21, r21
    6830:	35 d0       	rcall	.+106    	; 0x689c <ldexp>
    6832:	0f 90       	pop	r0
    6834:	07 fe       	sbrs	r0, 7
    6836:	27 c0       	rjmp	.+78     	; 0x6886 <inverse>
    6838:	08 95       	ret

0000683a <__fp_powser>:
    683a:	df 93       	push	r29
    683c:	cf 93       	push	r28
    683e:	1f 93       	push	r17
    6840:	0f 93       	push	r16
    6842:	ff 92       	push	r15
    6844:	ef 92       	push	r14
    6846:	df 92       	push	r13
    6848:	7b 01       	movw	r14, r22
    684a:	8c 01       	movw	r16, r24
    684c:	68 94       	set
    684e:	06 c0       	rjmp	.+12     	; 0x685c <__fp_powser+0x22>
    6850:	da 2e       	mov	r13, r26
    6852:	ef 01       	movw	r28, r30
    6854:	0e 94 65 22 	call	0x44ca	; 0x44ca <__mulsf3x>
    6858:	fe 01       	movw	r30, r28
    685a:	e8 94       	clt
    685c:	a5 91       	lpm	r26, Z+
    685e:	25 91       	lpm	r18, Z+
    6860:	35 91       	lpm	r19, Z+
    6862:	45 91       	lpm	r20, Z+
    6864:	55 91       	lpm	r21, Z+
    6866:	a6 f3       	brts	.-24     	; 0x6850 <__fp_powser+0x16>
    6868:	ef 01       	movw	r28, r30
    686a:	b9 de       	rcall	.-654    	; 0x65de <__addsf3x>
    686c:	fe 01       	movw	r30, r28
    686e:	97 01       	movw	r18, r14
    6870:	a8 01       	movw	r20, r16
    6872:	da 94       	dec	r13
    6874:	71 f7       	brne	.-36     	; 0x6852 <__fp_powser+0x18>
    6876:	df 90       	pop	r13
    6878:	ef 90       	pop	r14
    687a:	ff 90       	pop	r15
    687c:	0f 91       	pop	r16
    687e:	1f 91       	pop	r17
    6880:	cf 91       	pop	r28
    6882:	df 91       	pop	r29
    6884:	08 95       	ret

00006886 <inverse>:
    6886:	9b 01       	movw	r18, r22
    6888:	ac 01       	movw	r20, r24
    688a:	60 e0       	ldi	r22, 0x00	; 0
    688c:	70 e0       	ldi	r23, 0x00	; 0
    688e:	80 e8       	ldi	r24, 0x80	; 128
    6890:	9f e3       	ldi	r25, 0x3F	; 63
    6892:	0c 94 32 21 	jmp	0x4264	; 0x4264 <__divsf3>
    6896:	0c 94 08 22 	jmp	0x4410	; 0x4410 <__fp_inf>
    689a:	25 cf       	rjmp	.-438    	; 0x66e6 <__fp_mpack>

0000689c <ldexp>:
    689c:	0e 94 38 22 	call	0x4470	; 0x4470 <__fp_splitA>
    68a0:	e0 f3       	brcs	.-8      	; 0x689a <inverse+0x14>
    68a2:	99 23       	and	r25, r25
    68a4:	d1 f3       	breq	.-12     	; 0x689a <inverse+0x14>
    68a6:	94 0f       	add	r25, r20
    68a8:	51 1d       	adc	r21, r1
    68aa:	ab f3       	brvs	.-22     	; 0x6896 <inverse+0x10>
    68ac:	91 50       	subi	r25, 0x01	; 1
    68ae:	50 40       	sbci	r21, 0x00	; 0
    68b0:	94 f0       	brlt	.+36     	; 0x68d6 <ldexp+0x3a>
    68b2:	59 f0       	breq	.+22     	; 0x68ca <ldexp+0x2e>
    68b4:	88 23       	and	r24, r24
    68b6:	32 f0       	brmi	.+12     	; 0x68c4 <ldexp+0x28>
    68b8:	66 0f       	add	r22, r22
    68ba:	77 1f       	adc	r23, r23
    68bc:	88 1f       	adc	r24, r24
    68be:	91 50       	subi	r25, 0x01	; 1
    68c0:	50 40       	sbci	r21, 0x00	; 0
    68c2:	c1 f7       	brne	.-16     	; 0x68b4 <ldexp+0x18>
    68c4:	9e 3f       	cpi	r25, 0xFE	; 254
    68c6:	51 05       	cpc	r21, r1
    68c8:	34 f7       	brge	.-52     	; 0x6896 <inverse+0x10>
    68ca:	88 0f       	add	r24, r24
    68cc:	91 1d       	adc	r25, r1
    68ce:	96 95       	lsr	r25
    68d0:	87 95       	ror	r24
    68d2:	97 f9       	bld	r25, 7
    68d4:	08 95       	ret
    68d6:	5f 3f       	cpi	r21, 0xFF	; 255
    68d8:	ac f0       	brlt	.+42     	; 0x6904 <ldexp+0x68>
    68da:	98 3e       	cpi	r25, 0xE8	; 232
    68dc:	9c f0       	brlt	.+38     	; 0x6904 <ldexp+0x68>
    68de:	bb 27       	eor	r27, r27
    68e0:	86 95       	lsr	r24
    68e2:	77 95       	ror	r23
    68e4:	67 95       	ror	r22
    68e6:	b7 95       	ror	r27
    68e8:	08 f4       	brcc	.+2      	; 0x68ec <ldexp+0x50>
    68ea:	b1 60       	ori	r27, 0x01	; 1
    68ec:	93 95       	inc	r25
    68ee:	c1 f7       	brne	.-16     	; 0x68e0 <ldexp+0x44>
    68f0:	bb 0f       	add	r27, r27
    68f2:	58 f7       	brcc	.-42     	; 0x68ca <ldexp+0x2e>
    68f4:	11 f4       	brne	.+4      	; 0x68fa <ldexp+0x5e>
    68f6:	60 ff       	sbrs	r22, 0
    68f8:	e8 cf       	rjmp	.-48     	; 0x68ca <ldexp+0x2e>
    68fa:	6f 5f       	subi	r22, 0xFF	; 255
    68fc:	7f 4f       	sbci	r23, 0xFF	; 255
    68fe:	8f 4f       	sbci	r24, 0xFF	; 255
    6900:	9f 4f       	sbci	r25, 0xFF	; 255
    6902:	e3 cf       	rjmp	.-58     	; 0x68ca <ldexp+0x2e>
    6904:	0c 94 53 22 	jmp	0x44a6	; 0x44a6 <__fp_szero>
    6908:	0e f0       	brts	.+2      	; 0x690c <ldexp+0x70>
    690a:	ed ce       	rjmp	.-550    	; 0x66e6 <__fp_mpack>
    690c:	0c 94 0e 22 	jmp	0x441c	; 0x441c <__fp_nan>
    6910:	68 94       	set
    6912:	0c 94 08 22 	jmp	0x4410	; 0x4410 <__fp_inf>

00006916 <log>:
    6916:	0e 94 38 22 	call	0x4470	; 0x4470 <__fp_splitA>
    691a:	b0 f3       	brcs	.-20     	; 0x6908 <ldexp+0x6c>
    691c:	99 23       	and	r25, r25
    691e:	c1 f3       	breq	.-16     	; 0x6910 <ldexp+0x74>
    6920:	ae f3       	brts	.-22     	; 0x690c <ldexp+0x70>
    6922:	df 93       	push	r29
    6924:	cf 93       	push	r28
    6926:	1f 93       	push	r17
    6928:	0f 93       	push	r16
    692a:	ff 92       	push	r15
    692c:	c9 2f       	mov	r28, r25
    692e:	dd 27       	eor	r29, r29
    6930:	88 23       	and	r24, r24
    6932:	2a f0       	brmi	.+10     	; 0x693e <log+0x28>
    6934:	21 97       	sbiw	r28, 0x01	; 1
    6936:	66 0f       	add	r22, r22
    6938:	77 1f       	adc	r23, r23
    693a:	88 1f       	adc	r24, r24
    693c:	da f7       	brpl	.-10     	; 0x6934 <log+0x1e>
    693e:	20 e0       	ldi	r18, 0x00	; 0
    6940:	30 e0       	ldi	r19, 0x00	; 0
    6942:	40 e8       	ldi	r20, 0x80	; 128
    6944:	5f eb       	ldi	r21, 0xBF	; 191
    6946:	9f e3       	ldi	r25, 0x3F	; 63
    6948:	88 39       	cpi	r24, 0x98	; 152
    694a:	20 f0       	brcs	.+8      	; 0x6954 <log+0x3e>
    694c:	80 3e       	cpi	r24, 0xE0	; 224
    694e:	30 f0       	brcs	.+12     	; 0x695c <log+0x46>
    6950:	21 96       	adiw	r28, 0x01	; 1
    6952:	8f 77       	andi	r24, 0x7F	; 127
    6954:	2e de       	rcall	.-932    	; 0x65b2 <__addsf3>
    6956:	e2 ec       	ldi	r30, 0xC2	; 194
    6958:	f1 e0       	ldi	r31, 0x01	; 1
    695a:	03 c0       	rjmp	.+6      	; 0x6962 <log+0x4c>
    695c:	2a de       	rcall	.-940    	; 0x65b2 <__addsf3>
    695e:	ef ee       	ldi	r30, 0xEF	; 239
    6960:	f1 e0       	ldi	r31, 0x01	; 1
    6962:	6b df       	rcall	.-298    	; 0x683a <__fp_powser>
    6964:	8b 01       	movw	r16, r22
    6966:	be 01       	movw	r22, r28
    6968:	ec 01       	movw	r28, r24
    696a:	fb 2e       	mov	r15, r27
    696c:	6f 57       	subi	r22, 0x7F	; 127
    696e:	71 09       	sbc	r23, r1
    6970:	75 95       	asr	r23
    6972:	77 1f       	adc	r23, r23
    6974:	88 0b       	sbc	r24, r24
    6976:	99 0b       	sbc	r25, r25
    6978:	0e 94 cd 21 	call	0x439a	; 0x439a <__floatsisf>
    697c:	28 e1       	ldi	r18, 0x18	; 24
    697e:	32 e7       	ldi	r19, 0x72	; 114
    6980:	41 e3       	ldi	r20, 0x31	; 49
    6982:	5f e3       	ldi	r21, 0x3F	; 63
    6984:	0e 94 65 22 	call	0x44ca	; 0x44ca <__mulsf3x>
    6988:	af 2d       	mov	r26, r15
    698a:	98 01       	movw	r18, r16
    698c:	ae 01       	movw	r20, r28
    698e:	ff 90       	pop	r15
    6990:	0f 91       	pop	r16
    6992:	1f 91       	pop	r17
    6994:	cf 91       	pop	r28
    6996:	df 91       	pop	r29
    6998:	22 de       	rcall	.-956    	; 0x65de <__addsf3x>
    699a:	0c 94 1f 22 	jmp	0x443e	; 0x443e <__fp_round>

0000699e <modf>:
    699e:	fa 01       	movw	r30, r20
    69a0:	dc 01       	movw	r26, r24
    69a2:	aa 0f       	add	r26, r26
    69a4:	bb 1f       	adc	r27, r27
    69a6:	9b 01       	movw	r18, r22
    69a8:	ac 01       	movw	r20, r24
    69aa:	bf 57       	subi	r27, 0x7F	; 127
    69ac:	28 f4       	brcc	.+10     	; 0x69b8 <modf+0x1a>
    69ae:	22 27       	eor	r18, r18
    69b0:	33 27       	eor	r19, r19
    69b2:	44 27       	eor	r20, r20
    69b4:	50 78       	andi	r21, 0x80	; 128
    69b6:	1f c0       	rjmp	.+62     	; 0x69f6 <modf+0x58>
    69b8:	b7 51       	subi	r27, 0x17	; 23
    69ba:	88 f4       	brcc	.+34     	; 0x69de <modf+0x40>
    69bc:	ab 2f       	mov	r26, r27
    69be:	00 24       	eor	r0, r0
    69c0:	46 95       	lsr	r20
    69c2:	37 95       	ror	r19
    69c4:	27 95       	ror	r18
    69c6:	01 1c       	adc	r0, r1
    69c8:	a3 95       	inc	r26
    69ca:	d2 f3       	brmi	.-12     	; 0x69c0 <modf+0x22>
    69cc:	00 20       	and	r0, r0
    69ce:	69 f0       	breq	.+26     	; 0x69ea <modf+0x4c>
    69d0:	22 0f       	add	r18, r18
    69d2:	33 1f       	adc	r19, r19
    69d4:	44 1f       	adc	r20, r20
    69d6:	b3 95       	inc	r27
    69d8:	da f3       	brmi	.-10     	; 0x69d0 <modf+0x32>
    69da:	0d d0       	rcall	.+26     	; 0x69f6 <modf+0x58>
    69dc:	e9 cd       	rjmp	.-1070   	; 0x65b0 <__subsf3>
    69de:	61 30       	cpi	r22, 0x01	; 1
    69e0:	71 05       	cpc	r23, r1
    69e2:	a0 e8       	ldi	r26, 0x80	; 128
    69e4:	8a 07       	cpc	r24, r26
    69e6:	b9 46       	sbci	r27, 0x69	; 105
    69e8:	30 f4       	brcc	.+12     	; 0x69f6 <modf+0x58>
    69ea:	9b 01       	movw	r18, r22
    69ec:	ac 01       	movw	r20, r24
    69ee:	66 27       	eor	r22, r22
    69f0:	77 27       	eor	r23, r23
    69f2:	88 27       	eor	r24, r24
    69f4:	90 78       	andi	r25, 0x80	; 128
    69f6:	30 96       	adiw	r30, 0x00	; 0
    69f8:	21 f0       	breq	.+8      	; 0x6a02 <modf+0x64>
    69fa:	20 83       	st	Z, r18
    69fc:	31 83       	std	Z+1, r19	; 0x01
    69fe:	42 83       	std	Z+2, r20	; 0x02
    6a00:	53 83       	std	Z+3, r21	; 0x03
    6a02:	08 95       	ret

00006a04 <__divmodhi4>:
    6a04:	97 fb       	bst	r25, 7
    6a06:	07 2e       	mov	r0, r23
    6a08:	16 f4       	brtc	.+4      	; 0x6a0e <__divmodhi4+0xa>
    6a0a:	00 94       	com	r0
    6a0c:	06 d0       	rcall	.+12     	; 0x6a1a <__divmodhi4_neg1>
    6a0e:	77 fd       	sbrc	r23, 7
    6a10:	08 d0       	rcall	.+16     	; 0x6a22 <__divmodhi4_neg2>
    6a12:	3f d0       	rcall	.+126    	; 0x6a92 <__udivmodhi4>
    6a14:	07 fc       	sbrc	r0, 7
    6a16:	05 d0       	rcall	.+10     	; 0x6a22 <__divmodhi4_neg2>
    6a18:	3e f4       	brtc	.+14     	; 0x6a28 <__divmodhi4_exit>

00006a1a <__divmodhi4_neg1>:
    6a1a:	90 95       	com	r25
    6a1c:	81 95       	neg	r24
    6a1e:	9f 4f       	sbci	r25, 0xFF	; 255
    6a20:	08 95       	ret

00006a22 <__divmodhi4_neg2>:
    6a22:	70 95       	com	r23
    6a24:	61 95       	neg	r22
    6a26:	7f 4f       	sbci	r23, 0xFF	; 255

00006a28 <__divmodhi4_exit>:
    6a28:	08 95       	ret

00006a2a <__udivmodsi4>:
    6a2a:	a1 e2       	ldi	r26, 0x21	; 33
    6a2c:	1a 2e       	mov	r1, r26
    6a2e:	aa 1b       	sub	r26, r26
    6a30:	bb 1b       	sub	r27, r27
    6a32:	fd 01       	movw	r30, r26
    6a34:	0d c0       	rjmp	.+26     	; 0x6a50 <__udivmodsi4_ep>

00006a36 <__udivmodsi4_loop>:
    6a36:	aa 1f       	adc	r26, r26
    6a38:	bb 1f       	adc	r27, r27
    6a3a:	ee 1f       	adc	r30, r30
    6a3c:	ff 1f       	adc	r31, r31
    6a3e:	a2 17       	cp	r26, r18
    6a40:	b3 07       	cpc	r27, r19
    6a42:	e4 07       	cpc	r30, r20
    6a44:	f5 07       	cpc	r31, r21
    6a46:	20 f0       	brcs	.+8      	; 0x6a50 <__udivmodsi4_ep>
    6a48:	a2 1b       	sub	r26, r18
    6a4a:	b3 0b       	sbc	r27, r19
    6a4c:	e4 0b       	sbc	r30, r20
    6a4e:	f5 0b       	sbc	r31, r21

00006a50 <__udivmodsi4_ep>:
    6a50:	66 1f       	adc	r22, r22
    6a52:	77 1f       	adc	r23, r23
    6a54:	88 1f       	adc	r24, r24
    6a56:	99 1f       	adc	r25, r25
    6a58:	1a 94       	dec	r1
    6a5a:	69 f7       	brne	.-38     	; 0x6a36 <__udivmodsi4_loop>
    6a5c:	60 95       	com	r22
    6a5e:	70 95       	com	r23
    6a60:	80 95       	com	r24
    6a62:	90 95       	com	r25
    6a64:	9b 01       	movw	r18, r22
    6a66:	ac 01       	movw	r20, r24
    6a68:	bd 01       	movw	r22, r26
    6a6a:	cf 01       	movw	r24, r30
    6a6c:	08 95       	ret

00006a6e <__tablejump2__>:
    6a6e:	ee 0f       	add	r30, r30
    6a70:	ff 1f       	adc	r31, r31
    6a72:	88 1f       	adc	r24, r24
    6a74:	8b bf       	out	0x3b, r24	; 59
    6a76:	07 90       	elpm	r0, Z+
    6a78:	f6 91       	elpm	r31, Z
    6a7a:	e0 2d       	mov	r30, r0
    6a7c:	19 94       	eijmp

00006a7e <__muluhisi3>:
    6a7e:	1d d0       	rcall	.+58     	; 0x6aba <__umulhisi3>
    6a80:	a5 9f       	mul	r26, r21
    6a82:	90 0d       	add	r25, r0
    6a84:	b4 9f       	mul	r27, r20
    6a86:	90 0d       	add	r25, r0
    6a88:	a4 9f       	mul	r26, r20
    6a8a:	80 0d       	add	r24, r0
    6a8c:	91 1d       	adc	r25, r1
    6a8e:	11 24       	eor	r1, r1
    6a90:	08 95       	ret

00006a92 <__udivmodhi4>:
    6a92:	aa 1b       	sub	r26, r26
    6a94:	bb 1b       	sub	r27, r27
    6a96:	51 e1       	ldi	r21, 0x11	; 17
    6a98:	07 c0       	rjmp	.+14     	; 0x6aa8 <__udivmodhi4_ep>

00006a9a <__udivmodhi4_loop>:
    6a9a:	aa 1f       	adc	r26, r26
    6a9c:	bb 1f       	adc	r27, r27
    6a9e:	a6 17       	cp	r26, r22
    6aa0:	b7 07       	cpc	r27, r23
    6aa2:	10 f0       	brcs	.+4      	; 0x6aa8 <__udivmodhi4_ep>
    6aa4:	a6 1b       	sub	r26, r22
    6aa6:	b7 0b       	sbc	r27, r23

00006aa8 <__udivmodhi4_ep>:
    6aa8:	88 1f       	adc	r24, r24
    6aaa:	99 1f       	adc	r25, r25
    6aac:	5a 95       	dec	r21
    6aae:	a9 f7       	brne	.-22     	; 0x6a9a <__udivmodhi4_loop>
    6ab0:	80 95       	com	r24
    6ab2:	90 95       	com	r25
    6ab4:	bc 01       	movw	r22, r24
    6ab6:	cd 01       	movw	r24, r26
    6ab8:	08 95       	ret

00006aba <__umulhisi3>:
    6aba:	a2 9f       	mul	r26, r18
    6abc:	b0 01       	movw	r22, r0
    6abe:	b3 9f       	mul	r27, r19
    6ac0:	c0 01       	movw	r24, r0
    6ac2:	a3 9f       	mul	r26, r19
    6ac4:	70 0d       	add	r23, r0
    6ac6:	81 1d       	adc	r24, r1
    6ac8:	11 24       	eor	r1, r1
    6aca:	91 1d       	adc	r25, r1
    6acc:	b2 9f       	mul	r27, r18
    6ace:	70 0d       	add	r23, r0
    6ad0:	81 1d       	adc	r24, r1
    6ad2:	11 24       	eor	r1, r1
    6ad4:	91 1d       	adc	r25, r1
    6ad6:	08 95       	ret

00006ad8 <calloc>:
    6ad8:	0f 93       	push	r16
    6ada:	1f 93       	push	r17
    6adc:	cf 93       	push	r28
    6ade:	df 93       	push	r29
    6ae0:	86 9f       	mul	r24, r22
    6ae2:	80 01       	movw	r16, r0
    6ae4:	87 9f       	mul	r24, r23
    6ae6:	10 0d       	add	r17, r0
    6ae8:	96 9f       	mul	r25, r22
    6aea:	10 0d       	add	r17, r0
    6aec:	11 24       	eor	r1, r1
    6aee:	c8 01       	movw	r24, r16
    6af0:	0d d0       	rcall	.+26     	; 0x6b0c <malloc>
    6af2:	ec 01       	movw	r28, r24
    6af4:	00 97       	sbiw	r24, 0x00	; 0
    6af6:	21 f0       	breq	.+8      	; 0x6b00 <calloc+0x28>
    6af8:	a8 01       	movw	r20, r16
    6afa:	60 e0       	ldi	r22, 0x00	; 0
    6afc:	70 e0       	ldi	r23, 0x00	; 0
    6afe:	34 d1       	rcall	.+616    	; 0x6d68 <memset>
    6b00:	ce 01       	movw	r24, r28
    6b02:	df 91       	pop	r29
    6b04:	cf 91       	pop	r28
    6b06:	1f 91       	pop	r17
    6b08:	0f 91       	pop	r16
    6b0a:	08 95       	ret

00006b0c <malloc>:
    6b0c:	0f 93       	push	r16
    6b0e:	1f 93       	push	r17
    6b10:	cf 93       	push	r28
    6b12:	df 93       	push	r29
    6b14:	82 30       	cpi	r24, 0x02	; 2
    6b16:	91 05       	cpc	r25, r1
    6b18:	10 f4       	brcc	.+4      	; 0x6b1e <malloc+0x12>
    6b1a:	82 e0       	ldi	r24, 0x02	; 2
    6b1c:	90 e0       	ldi	r25, 0x00	; 0
    6b1e:	e0 91 ad 15 	lds	r30, 0x15AD	; 0x8015ad <__flp>
    6b22:	f0 91 ae 15 	lds	r31, 0x15AE	; 0x8015ae <__flp+0x1>
    6b26:	20 e0       	ldi	r18, 0x00	; 0
    6b28:	30 e0       	ldi	r19, 0x00	; 0
    6b2a:	a0 e0       	ldi	r26, 0x00	; 0
    6b2c:	b0 e0       	ldi	r27, 0x00	; 0
    6b2e:	30 97       	sbiw	r30, 0x00	; 0
    6b30:	19 f1       	breq	.+70     	; 0x6b78 <malloc+0x6c>
    6b32:	40 81       	ld	r20, Z
    6b34:	51 81       	ldd	r21, Z+1	; 0x01
    6b36:	02 81       	ldd	r16, Z+2	; 0x02
    6b38:	13 81       	ldd	r17, Z+3	; 0x03
    6b3a:	48 17       	cp	r20, r24
    6b3c:	59 07       	cpc	r21, r25
    6b3e:	c8 f0       	brcs	.+50     	; 0x6b72 <malloc+0x66>
    6b40:	84 17       	cp	r24, r20
    6b42:	95 07       	cpc	r25, r21
    6b44:	69 f4       	brne	.+26     	; 0x6b60 <malloc+0x54>
    6b46:	10 97       	sbiw	r26, 0x00	; 0
    6b48:	31 f0       	breq	.+12     	; 0x6b56 <malloc+0x4a>
    6b4a:	12 96       	adiw	r26, 0x02	; 2
    6b4c:	0c 93       	st	X, r16
    6b4e:	12 97       	sbiw	r26, 0x02	; 2
    6b50:	13 96       	adiw	r26, 0x03	; 3
    6b52:	1c 93       	st	X, r17
    6b54:	27 c0       	rjmp	.+78     	; 0x6ba4 <malloc+0x98>
    6b56:	00 93 ad 15 	sts	0x15AD, r16	; 0x8015ad <__flp>
    6b5a:	10 93 ae 15 	sts	0x15AE, r17	; 0x8015ae <__flp+0x1>
    6b5e:	22 c0       	rjmp	.+68     	; 0x6ba4 <malloc+0x98>
    6b60:	21 15       	cp	r18, r1
    6b62:	31 05       	cpc	r19, r1
    6b64:	19 f0       	breq	.+6      	; 0x6b6c <malloc+0x60>
    6b66:	42 17       	cp	r20, r18
    6b68:	53 07       	cpc	r21, r19
    6b6a:	18 f4       	brcc	.+6      	; 0x6b72 <malloc+0x66>
    6b6c:	9a 01       	movw	r18, r20
    6b6e:	bd 01       	movw	r22, r26
    6b70:	ef 01       	movw	r28, r30
    6b72:	df 01       	movw	r26, r30
    6b74:	f8 01       	movw	r30, r16
    6b76:	db cf       	rjmp	.-74     	; 0x6b2e <malloc+0x22>
    6b78:	21 15       	cp	r18, r1
    6b7a:	31 05       	cpc	r19, r1
    6b7c:	f9 f0       	breq	.+62     	; 0x6bbc <malloc+0xb0>
    6b7e:	28 1b       	sub	r18, r24
    6b80:	39 0b       	sbc	r19, r25
    6b82:	24 30       	cpi	r18, 0x04	; 4
    6b84:	31 05       	cpc	r19, r1
    6b86:	80 f4       	brcc	.+32     	; 0x6ba8 <malloc+0x9c>
    6b88:	8a 81       	ldd	r24, Y+2	; 0x02
    6b8a:	9b 81       	ldd	r25, Y+3	; 0x03
    6b8c:	61 15       	cp	r22, r1
    6b8e:	71 05       	cpc	r23, r1
    6b90:	21 f0       	breq	.+8      	; 0x6b9a <malloc+0x8e>
    6b92:	fb 01       	movw	r30, r22
    6b94:	93 83       	std	Z+3, r25	; 0x03
    6b96:	82 83       	std	Z+2, r24	; 0x02
    6b98:	04 c0       	rjmp	.+8      	; 0x6ba2 <malloc+0x96>
    6b9a:	90 93 ae 15 	sts	0x15AE, r25	; 0x8015ae <__flp+0x1>
    6b9e:	80 93 ad 15 	sts	0x15AD, r24	; 0x8015ad <__flp>
    6ba2:	fe 01       	movw	r30, r28
    6ba4:	32 96       	adiw	r30, 0x02	; 2
    6ba6:	44 c0       	rjmp	.+136    	; 0x6c30 <malloc+0x124>
    6ba8:	fe 01       	movw	r30, r28
    6baa:	e2 0f       	add	r30, r18
    6bac:	f3 1f       	adc	r31, r19
    6bae:	81 93       	st	Z+, r24
    6bb0:	91 93       	st	Z+, r25
    6bb2:	22 50       	subi	r18, 0x02	; 2
    6bb4:	31 09       	sbc	r19, r1
    6bb6:	39 83       	std	Y+1, r19	; 0x01
    6bb8:	28 83       	st	Y, r18
    6bba:	3a c0       	rjmp	.+116    	; 0x6c30 <malloc+0x124>
    6bbc:	20 91 ab 15 	lds	r18, 0x15AB	; 0x8015ab <__brkval>
    6bc0:	30 91 ac 15 	lds	r19, 0x15AC	; 0x8015ac <__brkval+0x1>
    6bc4:	23 2b       	or	r18, r19
    6bc6:	41 f4       	brne	.+16     	; 0x6bd8 <malloc+0xcc>
    6bc8:	20 91 02 02 	lds	r18, 0x0202	; 0x800202 <__malloc_heap_start>
    6bcc:	30 91 03 02 	lds	r19, 0x0203	; 0x800203 <__malloc_heap_start+0x1>
    6bd0:	30 93 ac 15 	sts	0x15AC, r19	; 0x8015ac <__brkval+0x1>
    6bd4:	20 93 ab 15 	sts	0x15AB, r18	; 0x8015ab <__brkval>
    6bd8:	20 91 00 02 	lds	r18, 0x0200	; 0x800200 <__DATA_REGION_ORIGIN__>
    6bdc:	30 91 01 02 	lds	r19, 0x0201	; 0x800201 <__DATA_REGION_ORIGIN__+0x1>
    6be0:	21 15       	cp	r18, r1
    6be2:	31 05       	cpc	r19, r1
    6be4:	41 f4       	brne	.+16     	; 0x6bf6 <malloc+0xea>
    6be6:	2d b7       	in	r18, 0x3d	; 61
    6be8:	3e b7       	in	r19, 0x3e	; 62
    6bea:	40 91 04 02 	lds	r20, 0x0204	; 0x800204 <__malloc_margin>
    6bee:	50 91 05 02 	lds	r21, 0x0205	; 0x800205 <__malloc_margin+0x1>
    6bf2:	24 1b       	sub	r18, r20
    6bf4:	35 0b       	sbc	r19, r21
    6bf6:	e0 91 ab 15 	lds	r30, 0x15AB	; 0x8015ab <__brkval>
    6bfa:	f0 91 ac 15 	lds	r31, 0x15AC	; 0x8015ac <__brkval+0x1>
    6bfe:	e2 17       	cp	r30, r18
    6c00:	f3 07       	cpc	r31, r19
    6c02:	a0 f4       	brcc	.+40     	; 0x6c2c <malloc+0x120>
    6c04:	2e 1b       	sub	r18, r30
    6c06:	3f 0b       	sbc	r19, r31
    6c08:	28 17       	cp	r18, r24
    6c0a:	39 07       	cpc	r19, r25
    6c0c:	78 f0       	brcs	.+30     	; 0x6c2c <malloc+0x120>
    6c0e:	ac 01       	movw	r20, r24
    6c10:	4e 5f       	subi	r20, 0xFE	; 254
    6c12:	5f 4f       	sbci	r21, 0xFF	; 255
    6c14:	24 17       	cp	r18, r20
    6c16:	35 07       	cpc	r19, r21
    6c18:	48 f0       	brcs	.+18     	; 0x6c2c <malloc+0x120>
    6c1a:	4e 0f       	add	r20, r30
    6c1c:	5f 1f       	adc	r21, r31
    6c1e:	50 93 ac 15 	sts	0x15AC, r21	; 0x8015ac <__brkval+0x1>
    6c22:	40 93 ab 15 	sts	0x15AB, r20	; 0x8015ab <__brkval>
    6c26:	81 93       	st	Z+, r24
    6c28:	91 93       	st	Z+, r25
    6c2a:	02 c0       	rjmp	.+4      	; 0x6c30 <malloc+0x124>
    6c2c:	e0 e0       	ldi	r30, 0x00	; 0
    6c2e:	f0 e0       	ldi	r31, 0x00	; 0
    6c30:	cf 01       	movw	r24, r30
    6c32:	df 91       	pop	r29
    6c34:	cf 91       	pop	r28
    6c36:	1f 91       	pop	r17
    6c38:	0f 91       	pop	r16
    6c3a:	08 95       	ret

00006c3c <free>:
    6c3c:	cf 93       	push	r28
    6c3e:	df 93       	push	r29
    6c40:	00 97       	sbiw	r24, 0x00	; 0
    6c42:	09 f4       	brne	.+2      	; 0x6c46 <free+0xa>
    6c44:	81 c0       	rjmp	.+258    	; 0x6d48 <free+0x10c>
    6c46:	fc 01       	movw	r30, r24
    6c48:	32 97       	sbiw	r30, 0x02	; 2
    6c4a:	13 82       	std	Z+3, r1	; 0x03
    6c4c:	12 82       	std	Z+2, r1	; 0x02
    6c4e:	a0 91 ad 15 	lds	r26, 0x15AD	; 0x8015ad <__flp>
    6c52:	b0 91 ae 15 	lds	r27, 0x15AE	; 0x8015ae <__flp+0x1>
    6c56:	10 97       	sbiw	r26, 0x00	; 0
    6c58:	81 f4       	brne	.+32     	; 0x6c7a <free+0x3e>
    6c5a:	20 81       	ld	r18, Z
    6c5c:	31 81       	ldd	r19, Z+1	; 0x01
    6c5e:	82 0f       	add	r24, r18
    6c60:	93 1f       	adc	r25, r19
    6c62:	20 91 ab 15 	lds	r18, 0x15AB	; 0x8015ab <__brkval>
    6c66:	30 91 ac 15 	lds	r19, 0x15AC	; 0x8015ac <__brkval+0x1>
    6c6a:	28 17       	cp	r18, r24
    6c6c:	39 07       	cpc	r19, r25
    6c6e:	51 f5       	brne	.+84     	; 0x6cc4 <free+0x88>
    6c70:	f0 93 ac 15 	sts	0x15AC, r31	; 0x8015ac <__brkval+0x1>
    6c74:	e0 93 ab 15 	sts	0x15AB, r30	; 0x8015ab <__brkval>
    6c78:	67 c0       	rjmp	.+206    	; 0x6d48 <free+0x10c>
    6c7a:	ed 01       	movw	r28, r26
    6c7c:	20 e0       	ldi	r18, 0x00	; 0
    6c7e:	30 e0       	ldi	r19, 0x00	; 0
    6c80:	ce 17       	cp	r28, r30
    6c82:	df 07       	cpc	r29, r31
    6c84:	40 f4       	brcc	.+16     	; 0x6c96 <free+0x5a>
    6c86:	4a 81       	ldd	r20, Y+2	; 0x02
    6c88:	5b 81       	ldd	r21, Y+3	; 0x03
    6c8a:	9e 01       	movw	r18, r28
    6c8c:	41 15       	cp	r20, r1
    6c8e:	51 05       	cpc	r21, r1
    6c90:	f1 f0       	breq	.+60     	; 0x6cce <free+0x92>
    6c92:	ea 01       	movw	r28, r20
    6c94:	f5 cf       	rjmp	.-22     	; 0x6c80 <free+0x44>
    6c96:	d3 83       	std	Z+3, r29	; 0x03
    6c98:	c2 83       	std	Z+2, r28	; 0x02
    6c9a:	40 81       	ld	r20, Z
    6c9c:	51 81       	ldd	r21, Z+1	; 0x01
    6c9e:	84 0f       	add	r24, r20
    6ca0:	95 1f       	adc	r25, r21
    6ca2:	c8 17       	cp	r28, r24
    6ca4:	d9 07       	cpc	r29, r25
    6ca6:	59 f4       	brne	.+22     	; 0x6cbe <free+0x82>
    6ca8:	88 81       	ld	r24, Y
    6caa:	99 81       	ldd	r25, Y+1	; 0x01
    6cac:	84 0f       	add	r24, r20
    6cae:	95 1f       	adc	r25, r21
    6cb0:	02 96       	adiw	r24, 0x02	; 2
    6cb2:	91 83       	std	Z+1, r25	; 0x01
    6cb4:	80 83       	st	Z, r24
    6cb6:	8a 81       	ldd	r24, Y+2	; 0x02
    6cb8:	9b 81       	ldd	r25, Y+3	; 0x03
    6cba:	93 83       	std	Z+3, r25	; 0x03
    6cbc:	82 83       	std	Z+2, r24	; 0x02
    6cbe:	21 15       	cp	r18, r1
    6cc0:	31 05       	cpc	r19, r1
    6cc2:	29 f4       	brne	.+10     	; 0x6cce <free+0x92>
    6cc4:	f0 93 ae 15 	sts	0x15AE, r31	; 0x8015ae <__flp+0x1>
    6cc8:	e0 93 ad 15 	sts	0x15AD, r30	; 0x8015ad <__flp>
    6ccc:	3d c0       	rjmp	.+122    	; 0x6d48 <free+0x10c>
    6cce:	e9 01       	movw	r28, r18
    6cd0:	fb 83       	std	Y+3, r31	; 0x03
    6cd2:	ea 83       	std	Y+2, r30	; 0x02
    6cd4:	49 91       	ld	r20, Y+
    6cd6:	59 91       	ld	r21, Y+
    6cd8:	c4 0f       	add	r28, r20
    6cda:	d5 1f       	adc	r29, r21
    6cdc:	ec 17       	cp	r30, r28
    6cde:	fd 07       	cpc	r31, r29
    6ce0:	61 f4       	brne	.+24     	; 0x6cfa <free+0xbe>
    6ce2:	80 81       	ld	r24, Z
    6ce4:	91 81       	ldd	r25, Z+1	; 0x01
    6ce6:	84 0f       	add	r24, r20
    6ce8:	95 1f       	adc	r25, r21
    6cea:	02 96       	adiw	r24, 0x02	; 2
    6cec:	e9 01       	movw	r28, r18
    6cee:	99 83       	std	Y+1, r25	; 0x01
    6cf0:	88 83       	st	Y, r24
    6cf2:	82 81       	ldd	r24, Z+2	; 0x02
    6cf4:	93 81       	ldd	r25, Z+3	; 0x03
    6cf6:	9b 83       	std	Y+3, r25	; 0x03
    6cf8:	8a 83       	std	Y+2, r24	; 0x02
    6cfa:	e0 e0       	ldi	r30, 0x00	; 0
    6cfc:	f0 e0       	ldi	r31, 0x00	; 0
    6cfe:	12 96       	adiw	r26, 0x02	; 2
    6d00:	8d 91       	ld	r24, X+
    6d02:	9c 91       	ld	r25, X
    6d04:	13 97       	sbiw	r26, 0x03	; 3
    6d06:	00 97       	sbiw	r24, 0x00	; 0
    6d08:	19 f0       	breq	.+6      	; 0x6d10 <free+0xd4>
    6d0a:	fd 01       	movw	r30, r26
    6d0c:	dc 01       	movw	r26, r24
    6d0e:	f7 cf       	rjmp	.-18     	; 0x6cfe <free+0xc2>
    6d10:	8d 91       	ld	r24, X+
    6d12:	9c 91       	ld	r25, X
    6d14:	11 97       	sbiw	r26, 0x01	; 1
    6d16:	9d 01       	movw	r18, r26
    6d18:	2e 5f       	subi	r18, 0xFE	; 254
    6d1a:	3f 4f       	sbci	r19, 0xFF	; 255
    6d1c:	82 0f       	add	r24, r18
    6d1e:	93 1f       	adc	r25, r19
    6d20:	20 91 ab 15 	lds	r18, 0x15AB	; 0x8015ab <__brkval>
    6d24:	30 91 ac 15 	lds	r19, 0x15AC	; 0x8015ac <__brkval+0x1>
    6d28:	28 17       	cp	r18, r24
    6d2a:	39 07       	cpc	r19, r25
    6d2c:	69 f4       	brne	.+26     	; 0x6d48 <free+0x10c>
    6d2e:	30 97       	sbiw	r30, 0x00	; 0
    6d30:	29 f4       	brne	.+10     	; 0x6d3c <free+0x100>
    6d32:	10 92 ae 15 	sts	0x15AE, r1	; 0x8015ae <__flp+0x1>
    6d36:	10 92 ad 15 	sts	0x15AD, r1	; 0x8015ad <__flp>
    6d3a:	02 c0       	rjmp	.+4      	; 0x6d40 <free+0x104>
    6d3c:	13 82       	std	Z+3, r1	; 0x03
    6d3e:	12 82       	std	Z+2, r1	; 0x02
    6d40:	b0 93 ac 15 	sts	0x15AC, r27	; 0x8015ac <__brkval+0x1>
    6d44:	a0 93 ab 15 	sts	0x15AB, r26	; 0x8015ab <__brkval>
    6d48:	df 91       	pop	r29
    6d4a:	cf 91       	pop	r28
    6d4c:	08 95       	ret

00006d4e <abort>:
    6d4e:	81 e0       	ldi	r24, 0x01	; 1
    6d50:	90 e0       	ldi	r25, 0x00	; 0
    6d52:	f8 94       	cli
    6d54:	7d c3       	rjmp	.+1786   	; 0x7450 <_exit>

00006d56 <memcpy>:
    6d56:	fb 01       	movw	r30, r22
    6d58:	dc 01       	movw	r26, r24
    6d5a:	02 c0       	rjmp	.+4      	; 0x6d60 <memcpy+0xa>
    6d5c:	01 90       	ld	r0, Z+
    6d5e:	0d 92       	st	X+, r0
    6d60:	41 50       	subi	r20, 0x01	; 1
    6d62:	50 40       	sbci	r21, 0x00	; 0
    6d64:	d8 f7       	brcc	.-10     	; 0x6d5c <memcpy+0x6>
    6d66:	08 95       	ret

00006d68 <memset>:
    6d68:	dc 01       	movw	r26, r24
    6d6a:	01 c0       	rjmp	.+2      	; 0x6d6e <memset+0x6>
    6d6c:	6d 93       	st	X+, r22
    6d6e:	41 50       	subi	r20, 0x01	; 1
    6d70:	50 40       	sbci	r21, 0x00	; 0
    6d72:	e0 f7       	brcc	.-8      	; 0x6d6c <memset+0x4>
    6d74:	08 95       	ret

00006d76 <strcasestr>:
    6d76:	fb 01       	movw	r30, r22
    6d78:	51 91       	ld	r21, Z+
    6d7a:	55 23       	and	r21, r21
    6d7c:	b1 f0       	breq	.+44     	; 0x6daa <strcasestr+0x34>
    6d7e:	bf 01       	movw	r22, r30
    6d80:	dc 01       	movw	r26, r24
    6d82:	05 2e       	mov	r0, r21
    6d84:	4d 91       	ld	r20, X+
    6d86:	44 23       	and	r20, r20
    6d88:	69 f0       	breq	.+26     	; 0x6da4 <strcasestr+0x2e>
    6d8a:	10 d0       	rcall	.+32     	; 0x6dac <strcasestr+0x36>
    6d8c:	d9 f7       	brne	.-10     	; 0x6d84 <strcasestr+0xe>
    6d8e:	cd 01       	movw	r24, r26
    6d90:	01 90       	ld	r0, Z+
    6d92:	00 20       	and	r0, r0
    6d94:	49 f0       	breq	.+18     	; 0x6da8 <strcasestr+0x32>
    6d96:	4d 91       	ld	r20, X+
    6d98:	41 11       	cpse	r20, r1
    6d9a:	08 d0       	rcall	.+16     	; 0x6dac <strcasestr+0x36>
    6d9c:	c9 f3       	breq	.-14     	; 0x6d90 <strcasestr+0x1a>
    6d9e:	fb 01       	movw	r30, r22
    6da0:	41 11       	cpse	r20, r1
    6da2:	ee cf       	rjmp	.-36     	; 0x6d80 <strcasestr+0xa>
    6da4:	81 e0       	ldi	r24, 0x01	; 1
    6da6:	90 e0       	ldi	r25, 0x00	; 0
    6da8:	01 97       	sbiw	r24, 0x01	; 1
    6daa:	08 95       	ret
    6dac:	40 25       	eor	r20, r0
    6dae:	39 f0       	breq	.+14     	; 0x6dbe <strcasestr+0x48>
    6db0:	40 32       	cpi	r20, 0x20	; 32
    6db2:	29 f4       	brne	.+10     	; 0x6dbe <strcasestr+0x48>
    6db4:	40 29       	or	r20, r0
    6db6:	4b 57       	subi	r20, 0x7B	; 123
    6db8:	46 5e       	subi	r20, 0xE6	; 230
    6dba:	08 f0       	brcs	.+2      	; 0x6dbe <strcasestr+0x48>
    6dbc:	18 94       	sez
    6dbe:	08 95       	ret

00006dc0 <strcat>:
    6dc0:	fb 01       	movw	r30, r22
    6dc2:	dc 01       	movw	r26, r24
    6dc4:	0d 90       	ld	r0, X+
    6dc6:	00 20       	and	r0, r0
    6dc8:	e9 f7       	brne	.-6      	; 0x6dc4 <strcat+0x4>
    6dca:	11 97       	sbiw	r26, 0x01	; 1
    6dcc:	01 90       	ld	r0, Z+
    6dce:	0d 92       	st	X+, r0
    6dd0:	00 20       	and	r0, r0
    6dd2:	e1 f7       	brne	.-8      	; 0x6dcc <strcat+0xc>
    6dd4:	08 95       	ret

00006dd6 <strcpy>:
    6dd6:	fb 01       	movw	r30, r22
    6dd8:	dc 01       	movw	r26, r24
    6dda:	01 90       	ld	r0, Z+
    6ddc:	0d 92       	st	X+, r0
    6dde:	00 20       	and	r0, r0
    6de0:	e1 f7       	brne	.-8      	; 0x6dda <strcpy+0x4>
    6de2:	08 95       	ret

00006de4 <strncasecmp>:
    6de4:	fb 01       	movw	r30, r22
    6de6:	dc 01       	movw	r26, r24
    6de8:	41 50       	subi	r20, 0x01	; 1
    6dea:	50 40       	sbci	r21, 0x00	; 0
    6dec:	88 f0       	brcs	.+34     	; 0x6e10 <strncasecmp+0x2c>
    6dee:	8d 91       	ld	r24, X+
    6df0:	81 34       	cpi	r24, 0x41	; 65
    6df2:	1c f0       	brlt	.+6      	; 0x6dfa <strncasecmp+0x16>
    6df4:	8b 35       	cpi	r24, 0x5B	; 91
    6df6:	0c f4       	brge	.+2      	; 0x6dfa <strncasecmp+0x16>
    6df8:	80 5e       	subi	r24, 0xE0	; 224
    6dfa:	61 91       	ld	r22, Z+
    6dfc:	61 34       	cpi	r22, 0x41	; 65
    6dfe:	1c f0       	brlt	.+6      	; 0x6e06 <strncasecmp+0x22>
    6e00:	6b 35       	cpi	r22, 0x5B	; 91
    6e02:	0c f4       	brge	.+2      	; 0x6e06 <strncasecmp+0x22>
    6e04:	60 5e       	subi	r22, 0xE0	; 224
    6e06:	86 1b       	sub	r24, r22
    6e08:	61 11       	cpse	r22, r1
    6e0a:	71 f3       	breq	.-36     	; 0x6de8 <strncasecmp+0x4>
    6e0c:	99 0b       	sbc	r25, r25
    6e0e:	08 95       	ret
    6e10:	88 1b       	sub	r24, r24
    6e12:	fc cf       	rjmp	.-8      	; 0x6e0c <strncasecmp+0x28>

00006e14 <printf>:
    6e14:	cf 93       	push	r28
    6e16:	df 93       	push	r29
    6e18:	cd b7       	in	r28, 0x3d	; 61
    6e1a:	de b7       	in	r29, 0x3e	; 62
    6e1c:	ae 01       	movw	r20, r28
    6e1e:	4a 5f       	subi	r20, 0xFA	; 250
    6e20:	5f 4f       	sbci	r21, 0xFF	; 255
    6e22:	fa 01       	movw	r30, r20
    6e24:	61 91       	ld	r22, Z+
    6e26:	71 91       	ld	r23, Z+
    6e28:	af 01       	movw	r20, r30
    6e2a:	80 91 b1 15 	lds	r24, 0x15B1	; 0x8015b1 <__iob+0x2>
    6e2e:	90 91 b2 15 	lds	r25, 0x15B2	; 0x8015b2 <__iob+0x3>
    6e32:	61 d0       	rcall	.+194    	; 0x6ef6 <vfprintf>
    6e34:	df 91       	pop	r29
    6e36:	cf 91       	pop	r28
    6e38:	08 95       	ret

00006e3a <puts>:
    6e3a:	0f 93       	push	r16
    6e3c:	1f 93       	push	r17
    6e3e:	cf 93       	push	r28
    6e40:	df 93       	push	r29
    6e42:	e0 91 b1 15 	lds	r30, 0x15B1	; 0x8015b1 <__iob+0x2>
    6e46:	f0 91 b2 15 	lds	r31, 0x15B2	; 0x8015b2 <__iob+0x3>
    6e4a:	23 81       	ldd	r18, Z+3	; 0x03
    6e4c:	21 ff       	sbrs	r18, 1
    6e4e:	1b c0       	rjmp	.+54     	; 0x6e86 <puts+0x4c>
    6e50:	8c 01       	movw	r16, r24
    6e52:	d0 e0       	ldi	r29, 0x00	; 0
    6e54:	c0 e0       	ldi	r28, 0x00	; 0
    6e56:	f8 01       	movw	r30, r16
    6e58:	81 91       	ld	r24, Z+
    6e5a:	8f 01       	movw	r16, r30
    6e5c:	60 91 b1 15 	lds	r22, 0x15B1	; 0x8015b1 <__iob+0x2>
    6e60:	70 91 b2 15 	lds	r23, 0x15B2	; 0x8015b2 <__iob+0x3>
    6e64:	db 01       	movw	r26, r22
    6e66:	18 96       	adiw	r26, 0x08	; 8
    6e68:	ed 91       	ld	r30, X+
    6e6a:	fc 91       	ld	r31, X
    6e6c:	19 97       	sbiw	r26, 0x09	; 9
    6e6e:	88 23       	and	r24, r24
    6e70:	31 f0       	breq	.+12     	; 0x6e7e <puts+0x44>
    6e72:	19 95       	eicall
    6e74:	89 2b       	or	r24, r25
    6e76:	79 f3       	breq	.-34     	; 0x6e56 <puts+0x1c>
    6e78:	df ef       	ldi	r29, 0xFF	; 255
    6e7a:	cf ef       	ldi	r28, 0xFF	; 255
    6e7c:	ec cf       	rjmp	.-40     	; 0x6e56 <puts+0x1c>
    6e7e:	8a e0       	ldi	r24, 0x0A	; 10
    6e80:	19 95       	eicall
    6e82:	89 2b       	or	r24, r25
    6e84:	19 f0       	breq	.+6      	; 0x6e8c <puts+0x52>
    6e86:	8f ef       	ldi	r24, 0xFF	; 255
    6e88:	9f ef       	ldi	r25, 0xFF	; 255
    6e8a:	02 c0       	rjmp	.+4      	; 0x6e90 <puts+0x56>
    6e8c:	8d 2f       	mov	r24, r29
    6e8e:	9c 2f       	mov	r25, r28
    6e90:	df 91       	pop	r29
    6e92:	cf 91       	pop	r28
    6e94:	1f 91       	pop	r17
    6e96:	0f 91       	pop	r16
    6e98:	08 95       	ret

00006e9a <sprintf>:
    6e9a:	0f 93       	push	r16
    6e9c:	1f 93       	push	r17
    6e9e:	cf 93       	push	r28
    6ea0:	df 93       	push	r29
    6ea2:	cd b7       	in	r28, 0x3d	; 61
    6ea4:	de b7       	in	r29, 0x3e	; 62
    6ea6:	2e 97       	sbiw	r28, 0x0e	; 14
    6ea8:	0f b6       	in	r0, 0x3f	; 63
    6eaa:	f8 94       	cli
    6eac:	de bf       	out	0x3e, r29	; 62
    6eae:	0f be       	out	0x3f, r0	; 63
    6eb0:	cd bf       	out	0x3d, r28	; 61
    6eb2:	0e 89       	ldd	r16, Y+22	; 0x16
    6eb4:	1f 89       	ldd	r17, Y+23	; 0x17
    6eb6:	86 e0       	ldi	r24, 0x06	; 6
    6eb8:	8c 83       	std	Y+4, r24	; 0x04
    6eba:	1a 83       	std	Y+2, r17	; 0x02
    6ebc:	09 83       	std	Y+1, r16	; 0x01
    6ebe:	8f ef       	ldi	r24, 0xFF	; 255
    6ec0:	9f e7       	ldi	r25, 0x7F	; 127
    6ec2:	9e 83       	std	Y+6, r25	; 0x06
    6ec4:	8d 83       	std	Y+5, r24	; 0x05
    6ec6:	ae 01       	movw	r20, r28
    6ec8:	46 5e       	subi	r20, 0xE6	; 230
    6eca:	5f 4f       	sbci	r21, 0xFF	; 255
    6ecc:	68 8d       	ldd	r22, Y+24	; 0x18
    6ece:	79 8d       	ldd	r23, Y+25	; 0x19
    6ed0:	ce 01       	movw	r24, r28
    6ed2:	01 96       	adiw	r24, 0x01	; 1
    6ed4:	10 d0       	rcall	.+32     	; 0x6ef6 <vfprintf>
    6ed6:	ef 81       	ldd	r30, Y+7	; 0x07
    6ed8:	f8 85       	ldd	r31, Y+8	; 0x08
    6eda:	e0 0f       	add	r30, r16
    6edc:	f1 1f       	adc	r31, r17
    6ede:	10 82       	st	Z, r1
    6ee0:	2e 96       	adiw	r28, 0x0e	; 14
    6ee2:	0f b6       	in	r0, 0x3f	; 63
    6ee4:	f8 94       	cli
    6ee6:	de bf       	out	0x3e, r29	; 62
    6ee8:	0f be       	out	0x3f, r0	; 63
    6eea:	cd bf       	out	0x3d, r28	; 61
    6eec:	df 91       	pop	r29
    6eee:	cf 91       	pop	r28
    6ef0:	1f 91       	pop	r17
    6ef2:	0f 91       	pop	r16
    6ef4:	08 95       	ret

00006ef6 <vfprintf>:
    6ef6:	2f 92       	push	r2
    6ef8:	3f 92       	push	r3
    6efa:	4f 92       	push	r4
    6efc:	5f 92       	push	r5
    6efe:	6f 92       	push	r6
    6f00:	7f 92       	push	r7
    6f02:	8f 92       	push	r8
    6f04:	9f 92       	push	r9
    6f06:	af 92       	push	r10
    6f08:	bf 92       	push	r11
    6f0a:	cf 92       	push	r12
    6f0c:	df 92       	push	r13
    6f0e:	ef 92       	push	r14
    6f10:	ff 92       	push	r15
    6f12:	0f 93       	push	r16
    6f14:	1f 93       	push	r17
    6f16:	cf 93       	push	r28
    6f18:	df 93       	push	r29
    6f1a:	cd b7       	in	r28, 0x3d	; 61
    6f1c:	de b7       	in	r29, 0x3e	; 62
    6f1e:	2b 97       	sbiw	r28, 0x0b	; 11
    6f20:	0f b6       	in	r0, 0x3f	; 63
    6f22:	f8 94       	cli
    6f24:	de bf       	out	0x3e, r29	; 62
    6f26:	0f be       	out	0x3f, r0	; 63
    6f28:	cd bf       	out	0x3d, r28	; 61
    6f2a:	6c 01       	movw	r12, r24
    6f2c:	7b 01       	movw	r14, r22
    6f2e:	8a 01       	movw	r16, r20
    6f30:	fc 01       	movw	r30, r24
    6f32:	17 82       	std	Z+7, r1	; 0x07
    6f34:	16 82       	std	Z+6, r1	; 0x06
    6f36:	83 81       	ldd	r24, Z+3	; 0x03
    6f38:	81 ff       	sbrs	r24, 1
    6f3a:	bf c1       	rjmp	.+894    	; 0x72ba <vfprintf+0x3c4>
    6f3c:	ce 01       	movw	r24, r28
    6f3e:	01 96       	adiw	r24, 0x01	; 1
    6f40:	3c 01       	movw	r6, r24
    6f42:	f6 01       	movw	r30, r12
    6f44:	93 81       	ldd	r25, Z+3	; 0x03
    6f46:	f7 01       	movw	r30, r14
    6f48:	93 fd       	sbrc	r25, 3
    6f4a:	85 91       	lpm	r24, Z+
    6f4c:	93 ff       	sbrs	r25, 3
    6f4e:	81 91       	ld	r24, Z+
    6f50:	7f 01       	movw	r14, r30
    6f52:	88 23       	and	r24, r24
    6f54:	09 f4       	brne	.+2      	; 0x6f58 <vfprintf+0x62>
    6f56:	ad c1       	rjmp	.+858    	; 0x72b2 <vfprintf+0x3bc>
    6f58:	85 32       	cpi	r24, 0x25	; 37
    6f5a:	39 f4       	brne	.+14     	; 0x6f6a <vfprintf+0x74>
    6f5c:	93 fd       	sbrc	r25, 3
    6f5e:	85 91       	lpm	r24, Z+
    6f60:	93 ff       	sbrs	r25, 3
    6f62:	81 91       	ld	r24, Z+
    6f64:	7f 01       	movw	r14, r30
    6f66:	85 32       	cpi	r24, 0x25	; 37
    6f68:	21 f4       	brne	.+8      	; 0x6f72 <vfprintf+0x7c>
    6f6a:	b6 01       	movw	r22, r12
    6f6c:	90 e0       	ldi	r25, 0x00	; 0
    6f6e:	d6 d1       	rcall	.+940    	; 0x731c <fputc>
    6f70:	e8 cf       	rjmp	.-48     	; 0x6f42 <vfprintf+0x4c>
    6f72:	91 2c       	mov	r9, r1
    6f74:	21 2c       	mov	r2, r1
    6f76:	31 2c       	mov	r3, r1
    6f78:	ff e1       	ldi	r31, 0x1F	; 31
    6f7a:	f3 15       	cp	r31, r3
    6f7c:	d8 f0       	brcs	.+54     	; 0x6fb4 <vfprintf+0xbe>
    6f7e:	8b 32       	cpi	r24, 0x2B	; 43
    6f80:	79 f0       	breq	.+30     	; 0x6fa0 <vfprintf+0xaa>
    6f82:	38 f4       	brcc	.+14     	; 0x6f92 <vfprintf+0x9c>
    6f84:	80 32       	cpi	r24, 0x20	; 32
    6f86:	79 f0       	breq	.+30     	; 0x6fa6 <vfprintf+0xb0>
    6f88:	83 32       	cpi	r24, 0x23	; 35
    6f8a:	a1 f4       	brne	.+40     	; 0x6fb4 <vfprintf+0xbe>
    6f8c:	23 2d       	mov	r18, r3
    6f8e:	20 61       	ori	r18, 0x10	; 16
    6f90:	1d c0       	rjmp	.+58     	; 0x6fcc <vfprintf+0xd6>
    6f92:	8d 32       	cpi	r24, 0x2D	; 45
    6f94:	61 f0       	breq	.+24     	; 0x6fae <vfprintf+0xb8>
    6f96:	80 33       	cpi	r24, 0x30	; 48
    6f98:	69 f4       	brne	.+26     	; 0x6fb4 <vfprintf+0xbe>
    6f9a:	23 2d       	mov	r18, r3
    6f9c:	21 60       	ori	r18, 0x01	; 1
    6f9e:	16 c0       	rjmp	.+44     	; 0x6fcc <vfprintf+0xd6>
    6fa0:	83 2d       	mov	r24, r3
    6fa2:	82 60       	ori	r24, 0x02	; 2
    6fa4:	38 2e       	mov	r3, r24
    6fa6:	e3 2d       	mov	r30, r3
    6fa8:	e4 60       	ori	r30, 0x04	; 4
    6faa:	3e 2e       	mov	r3, r30
    6fac:	2a c0       	rjmp	.+84     	; 0x7002 <vfprintf+0x10c>
    6fae:	f3 2d       	mov	r31, r3
    6fb0:	f8 60       	ori	r31, 0x08	; 8
    6fb2:	1d c0       	rjmp	.+58     	; 0x6fee <vfprintf+0xf8>
    6fb4:	37 fc       	sbrc	r3, 7
    6fb6:	2d c0       	rjmp	.+90     	; 0x7012 <vfprintf+0x11c>
    6fb8:	20 ed       	ldi	r18, 0xD0	; 208
    6fba:	28 0f       	add	r18, r24
    6fbc:	2a 30       	cpi	r18, 0x0A	; 10
    6fbe:	40 f0       	brcs	.+16     	; 0x6fd0 <vfprintf+0xda>
    6fc0:	8e 32       	cpi	r24, 0x2E	; 46
    6fc2:	b9 f4       	brne	.+46     	; 0x6ff2 <vfprintf+0xfc>
    6fc4:	36 fc       	sbrc	r3, 6
    6fc6:	75 c1       	rjmp	.+746    	; 0x72b2 <vfprintf+0x3bc>
    6fc8:	23 2d       	mov	r18, r3
    6fca:	20 64       	ori	r18, 0x40	; 64
    6fcc:	32 2e       	mov	r3, r18
    6fce:	19 c0       	rjmp	.+50     	; 0x7002 <vfprintf+0x10c>
    6fd0:	36 fe       	sbrs	r3, 6
    6fd2:	06 c0       	rjmp	.+12     	; 0x6fe0 <vfprintf+0xea>
    6fd4:	8a e0       	ldi	r24, 0x0A	; 10
    6fd6:	98 9e       	mul	r9, r24
    6fd8:	20 0d       	add	r18, r0
    6fda:	11 24       	eor	r1, r1
    6fdc:	92 2e       	mov	r9, r18
    6fde:	11 c0       	rjmp	.+34     	; 0x7002 <vfprintf+0x10c>
    6fe0:	ea e0       	ldi	r30, 0x0A	; 10
    6fe2:	2e 9e       	mul	r2, r30
    6fe4:	20 0d       	add	r18, r0
    6fe6:	11 24       	eor	r1, r1
    6fe8:	22 2e       	mov	r2, r18
    6fea:	f3 2d       	mov	r31, r3
    6fec:	f0 62       	ori	r31, 0x20	; 32
    6fee:	3f 2e       	mov	r3, r31
    6ff0:	08 c0       	rjmp	.+16     	; 0x7002 <vfprintf+0x10c>
    6ff2:	8c 36       	cpi	r24, 0x6C	; 108
    6ff4:	21 f4       	brne	.+8      	; 0x6ffe <vfprintf+0x108>
    6ff6:	83 2d       	mov	r24, r3
    6ff8:	80 68       	ori	r24, 0x80	; 128
    6ffa:	38 2e       	mov	r3, r24
    6ffc:	02 c0       	rjmp	.+4      	; 0x7002 <vfprintf+0x10c>
    6ffe:	88 36       	cpi	r24, 0x68	; 104
    7000:	41 f4       	brne	.+16     	; 0x7012 <vfprintf+0x11c>
    7002:	f7 01       	movw	r30, r14
    7004:	93 fd       	sbrc	r25, 3
    7006:	85 91       	lpm	r24, Z+
    7008:	93 ff       	sbrs	r25, 3
    700a:	81 91       	ld	r24, Z+
    700c:	7f 01       	movw	r14, r30
    700e:	81 11       	cpse	r24, r1
    7010:	b3 cf       	rjmp	.-154    	; 0x6f78 <vfprintf+0x82>
    7012:	98 2f       	mov	r25, r24
    7014:	9f 7d       	andi	r25, 0xDF	; 223
    7016:	95 54       	subi	r25, 0x45	; 69
    7018:	93 30       	cpi	r25, 0x03	; 3
    701a:	28 f4       	brcc	.+10     	; 0x7026 <vfprintf+0x130>
    701c:	0c 5f       	subi	r16, 0xFC	; 252
    701e:	1f 4f       	sbci	r17, 0xFF	; 255
    7020:	9f e3       	ldi	r25, 0x3F	; 63
    7022:	99 83       	std	Y+1, r25	; 0x01
    7024:	0d c0       	rjmp	.+26     	; 0x7040 <vfprintf+0x14a>
    7026:	83 36       	cpi	r24, 0x63	; 99
    7028:	31 f0       	breq	.+12     	; 0x7036 <vfprintf+0x140>
    702a:	83 37       	cpi	r24, 0x73	; 115
    702c:	71 f0       	breq	.+28     	; 0x704a <vfprintf+0x154>
    702e:	83 35       	cpi	r24, 0x53	; 83
    7030:	09 f0       	breq	.+2      	; 0x7034 <vfprintf+0x13e>
    7032:	55 c0       	rjmp	.+170    	; 0x70de <vfprintf+0x1e8>
    7034:	20 c0       	rjmp	.+64     	; 0x7076 <vfprintf+0x180>
    7036:	f8 01       	movw	r30, r16
    7038:	80 81       	ld	r24, Z
    703a:	89 83       	std	Y+1, r24	; 0x01
    703c:	0e 5f       	subi	r16, 0xFE	; 254
    703e:	1f 4f       	sbci	r17, 0xFF	; 255
    7040:	88 24       	eor	r8, r8
    7042:	83 94       	inc	r8
    7044:	91 2c       	mov	r9, r1
    7046:	53 01       	movw	r10, r6
    7048:	12 c0       	rjmp	.+36     	; 0x706e <vfprintf+0x178>
    704a:	28 01       	movw	r4, r16
    704c:	f2 e0       	ldi	r31, 0x02	; 2
    704e:	4f 0e       	add	r4, r31
    7050:	51 1c       	adc	r5, r1
    7052:	f8 01       	movw	r30, r16
    7054:	a0 80       	ld	r10, Z
    7056:	b1 80       	ldd	r11, Z+1	; 0x01
    7058:	36 fe       	sbrs	r3, 6
    705a:	03 c0       	rjmp	.+6      	; 0x7062 <vfprintf+0x16c>
    705c:	69 2d       	mov	r22, r9
    705e:	70 e0       	ldi	r23, 0x00	; 0
    7060:	02 c0       	rjmp	.+4      	; 0x7066 <vfprintf+0x170>
    7062:	6f ef       	ldi	r22, 0xFF	; 255
    7064:	7f ef       	ldi	r23, 0xFF	; 255
    7066:	c5 01       	movw	r24, r10
    7068:	4e d1       	rcall	.+668    	; 0x7306 <strnlen>
    706a:	4c 01       	movw	r8, r24
    706c:	82 01       	movw	r16, r4
    706e:	f3 2d       	mov	r31, r3
    7070:	ff 77       	andi	r31, 0x7F	; 127
    7072:	3f 2e       	mov	r3, r31
    7074:	15 c0       	rjmp	.+42     	; 0x70a0 <vfprintf+0x1aa>
    7076:	28 01       	movw	r4, r16
    7078:	22 e0       	ldi	r18, 0x02	; 2
    707a:	42 0e       	add	r4, r18
    707c:	51 1c       	adc	r5, r1
    707e:	f8 01       	movw	r30, r16
    7080:	a0 80       	ld	r10, Z
    7082:	b1 80       	ldd	r11, Z+1	; 0x01
    7084:	36 fe       	sbrs	r3, 6
    7086:	03 c0       	rjmp	.+6      	; 0x708e <vfprintf+0x198>
    7088:	69 2d       	mov	r22, r9
    708a:	70 e0       	ldi	r23, 0x00	; 0
    708c:	02 c0       	rjmp	.+4      	; 0x7092 <vfprintf+0x19c>
    708e:	6f ef       	ldi	r22, 0xFF	; 255
    7090:	7f ef       	ldi	r23, 0xFF	; 255
    7092:	c5 01       	movw	r24, r10
    7094:	2d d1       	rcall	.+602    	; 0x72f0 <strnlen_P>
    7096:	4c 01       	movw	r8, r24
    7098:	f3 2d       	mov	r31, r3
    709a:	f0 68       	ori	r31, 0x80	; 128
    709c:	3f 2e       	mov	r3, r31
    709e:	82 01       	movw	r16, r4
    70a0:	33 fc       	sbrc	r3, 3
    70a2:	19 c0       	rjmp	.+50     	; 0x70d6 <vfprintf+0x1e0>
    70a4:	82 2d       	mov	r24, r2
    70a6:	90 e0       	ldi	r25, 0x00	; 0
    70a8:	88 16       	cp	r8, r24
    70aa:	99 06       	cpc	r9, r25
    70ac:	a0 f4       	brcc	.+40     	; 0x70d6 <vfprintf+0x1e0>
    70ae:	b6 01       	movw	r22, r12
    70b0:	80 e2       	ldi	r24, 0x20	; 32
    70b2:	90 e0       	ldi	r25, 0x00	; 0
    70b4:	33 d1       	rcall	.+614    	; 0x731c <fputc>
    70b6:	2a 94       	dec	r2
    70b8:	f5 cf       	rjmp	.-22     	; 0x70a4 <vfprintf+0x1ae>
    70ba:	f5 01       	movw	r30, r10
    70bc:	37 fc       	sbrc	r3, 7
    70be:	85 91       	lpm	r24, Z+
    70c0:	37 fe       	sbrs	r3, 7
    70c2:	81 91       	ld	r24, Z+
    70c4:	5f 01       	movw	r10, r30
    70c6:	b6 01       	movw	r22, r12
    70c8:	90 e0       	ldi	r25, 0x00	; 0
    70ca:	28 d1       	rcall	.+592    	; 0x731c <fputc>
    70cc:	21 10       	cpse	r2, r1
    70ce:	2a 94       	dec	r2
    70d0:	21 e0       	ldi	r18, 0x01	; 1
    70d2:	82 1a       	sub	r8, r18
    70d4:	91 08       	sbc	r9, r1
    70d6:	81 14       	cp	r8, r1
    70d8:	91 04       	cpc	r9, r1
    70da:	79 f7       	brne	.-34     	; 0x70ba <vfprintf+0x1c4>
    70dc:	e1 c0       	rjmp	.+450    	; 0x72a0 <vfprintf+0x3aa>
    70de:	84 36       	cpi	r24, 0x64	; 100
    70e0:	11 f0       	breq	.+4      	; 0x70e6 <vfprintf+0x1f0>
    70e2:	89 36       	cpi	r24, 0x69	; 105
    70e4:	39 f5       	brne	.+78     	; 0x7134 <vfprintf+0x23e>
    70e6:	f8 01       	movw	r30, r16
    70e8:	37 fe       	sbrs	r3, 7
    70ea:	07 c0       	rjmp	.+14     	; 0x70fa <vfprintf+0x204>
    70ec:	60 81       	ld	r22, Z
    70ee:	71 81       	ldd	r23, Z+1	; 0x01
    70f0:	82 81       	ldd	r24, Z+2	; 0x02
    70f2:	93 81       	ldd	r25, Z+3	; 0x03
    70f4:	0c 5f       	subi	r16, 0xFC	; 252
    70f6:	1f 4f       	sbci	r17, 0xFF	; 255
    70f8:	08 c0       	rjmp	.+16     	; 0x710a <vfprintf+0x214>
    70fa:	60 81       	ld	r22, Z
    70fc:	71 81       	ldd	r23, Z+1	; 0x01
    70fe:	07 2e       	mov	r0, r23
    7100:	00 0c       	add	r0, r0
    7102:	88 0b       	sbc	r24, r24
    7104:	99 0b       	sbc	r25, r25
    7106:	0e 5f       	subi	r16, 0xFE	; 254
    7108:	1f 4f       	sbci	r17, 0xFF	; 255
    710a:	f3 2d       	mov	r31, r3
    710c:	ff 76       	andi	r31, 0x6F	; 111
    710e:	3f 2e       	mov	r3, r31
    7110:	97 ff       	sbrs	r25, 7
    7112:	09 c0       	rjmp	.+18     	; 0x7126 <vfprintf+0x230>
    7114:	90 95       	com	r25
    7116:	80 95       	com	r24
    7118:	70 95       	com	r23
    711a:	61 95       	neg	r22
    711c:	7f 4f       	sbci	r23, 0xFF	; 255
    711e:	8f 4f       	sbci	r24, 0xFF	; 255
    7120:	9f 4f       	sbci	r25, 0xFF	; 255
    7122:	f0 68       	ori	r31, 0x80	; 128
    7124:	3f 2e       	mov	r3, r31
    7126:	2a e0       	ldi	r18, 0x0A	; 10
    7128:	30 e0       	ldi	r19, 0x00	; 0
    712a:	a3 01       	movw	r20, r6
    712c:	33 d1       	rcall	.+614    	; 0x7394 <__ultoa_invert>
    712e:	88 2e       	mov	r8, r24
    7130:	86 18       	sub	r8, r6
    7132:	44 c0       	rjmp	.+136    	; 0x71bc <vfprintf+0x2c6>
    7134:	85 37       	cpi	r24, 0x75	; 117
    7136:	31 f4       	brne	.+12     	; 0x7144 <vfprintf+0x24e>
    7138:	23 2d       	mov	r18, r3
    713a:	2f 7e       	andi	r18, 0xEF	; 239
    713c:	b2 2e       	mov	r11, r18
    713e:	2a e0       	ldi	r18, 0x0A	; 10
    7140:	30 e0       	ldi	r19, 0x00	; 0
    7142:	25 c0       	rjmp	.+74     	; 0x718e <vfprintf+0x298>
    7144:	93 2d       	mov	r25, r3
    7146:	99 7f       	andi	r25, 0xF9	; 249
    7148:	b9 2e       	mov	r11, r25
    714a:	8f 36       	cpi	r24, 0x6F	; 111
    714c:	c1 f0       	breq	.+48     	; 0x717e <vfprintf+0x288>
    714e:	18 f4       	brcc	.+6      	; 0x7156 <vfprintf+0x260>
    7150:	88 35       	cpi	r24, 0x58	; 88
    7152:	79 f0       	breq	.+30     	; 0x7172 <vfprintf+0x27c>
    7154:	ae c0       	rjmp	.+348    	; 0x72b2 <vfprintf+0x3bc>
    7156:	80 37       	cpi	r24, 0x70	; 112
    7158:	19 f0       	breq	.+6      	; 0x7160 <vfprintf+0x26a>
    715a:	88 37       	cpi	r24, 0x78	; 120
    715c:	21 f0       	breq	.+8      	; 0x7166 <vfprintf+0x270>
    715e:	a9 c0       	rjmp	.+338    	; 0x72b2 <vfprintf+0x3bc>
    7160:	e9 2f       	mov	r30, r25
    7162:	e0 61       	ori	r30, 0x10	; 16
    7164:	be 2e       	mov	r11, r30
    7166:	b4 fe       	sbrs	r11, 4
    7168:	0d c0       	rjmp	.+26     	; 0x7184 <vfprintf+0x28e>
    716a:	fb 2d       	mov	r31, r11
    716c:	f4 60       	ori	r31, 0x04	; 4
    716e:	bf 2e       	mov	r11, r31
    7170:	09 c0       	rjmp	.+18     	; 0x7184 <vfprintf+0x28e>
    7172:	34 fe       	sbrs	r3, 4
    7174:	0a c0       	rjmp	.+20     	; 0x718a <vfprintf+0x294>
    7176:	29 2f       	mov	r18, r25
    7178:	26 60       	ori	r18, 0x06	; 6
    717a:	b2 2e       	mov	r11, r18
    717c:	06 c0       	rjmp	.+12     	; 0x718a <vfprintf+0x294>
    717e:	28 e0       	ldi	r18, 0x08	; 8
    7180:	30 e0       	ldi	r19, 0x00	; 0
    7182:	05 c0       	rjmp	.+10     	; 0x718e <vfprintf+0x298>
    7184:	20 e1       	ldi	r18, 0x10	; 16
    7186:	30 e0       	ldi	r19, 0x00	; 0
    7188:	02 c0       	rjmp	.+4      	; 0x718e <vfprintf+0x298>
    718a:	20 e1       	ldi	r18, 0x10	; 16
    718c:	32 e0       	ldi	r19, 0x02	; 2
    718e:	f8 01       	movw	r30, r16
    7190:	b7 fe       	sbrs	r11, 7
    7192:	07 c0       	rjmp	.+14     	; 0x71a2 <vfprintf+0x2ac>
    7194:	60 81       	ld	r22, Z
    7196:	71 81       	ldd	r23, Z+1	; 0x01
    7198:	82 81       	ldd	r24, Z+2	; 0x02
    719a:	93 81       	ldd	r25, Z+3	; 0x03
    719c:	0c 5f       	subi	r16, 0xFC	; 252
    719e:	1f 4f       	sbci	r17, 0xFF	; 255
    71a0:	06 c0       	rjmp	.+12     	; 0x71ae <vfprintf+0x2b8>
    71a2:	60 81       	ld	r22, Z
    71a4:	71 81       	ldd	r23, Z+1	; 0x01
    71a6:	80 e0       	ldi	r24, 0x00	; 0
    71a8:	90 e0       	ldi	r25, 0x00	; 0
    71aa:	0e 5f       	subi	r16, 0xFE	; 254
    71ac:	1f 4f       	sbci	r17, 0xFF	; 255
    71ae:	a3 01       	movw	r20, r6
    71b0:	f1 d0       	rcall	.+482    	; 0x7394 <__ultoa_invert>
    71b2:	88 2e       	mov	r8, r24
    71b4:	86 18       	sub	r8, r6
    71b6:	fb 2d       	mov	r31, r11
    71b8:	ff 77       	andi	r31, 0x7F	; 127
    71ba:	3f 2e       	mov	r3, r31
    71bc:	36 fe       	sbrs	r3, 6
    71be:	0d c0       	rjmp	.+26     	; 0x71da <vfprintf+0x2e4>
    71c0:	23 2d       	mov	r18, r3
    71c2:	2e 7f       	andi	r18, 0xFE	; 254
    71c4:	a2 2e       	mov	r10, r18
    71c6:	89 14       	cp	r8, r9
    71c8:	58 f4       	brcc	.+22     	; 0x71e0 <vfprintf+0x2ea>
    71ca:	34 fe       	sbrs	r3, 4
    71cc:	0b c0       	rjmp	.+22     	; 0x71e4 <vfprintf+0x2ee>
    71ce:	32 fc       	sbrc	r3, 2
    71d0:	09 c0       	rjmp	.+18     	; 0x71e4 <vfprintf+0x2ee>
    71d2:	83 2d       	mov	r24, r3
    71d4:	8e 7e       	andi	r24, 0xEE	; 238
    71d6:	a8 2e       	mov	r10, r24
    71d8:	05 c0       	rjmp	.+10     	; 0x71e4 <vfprintf+0x2ee>
    71da:	b8 2c       	mov	r11, r8
    71dc:	a3 2c       	mov	r10, r3
    71de:	03 c0       	rjmp	.+6      	; 0x71e6 <vfprintf+0x2f0>
    71e0:	b8 2c       	mov	r11, r8
    71e2:	01 c0       	rjmp	.+2      	; 0x71e6 <vfprintf+0x2f0>
    71e4:	b9 2c       	mov	r11, r9
    71e6:	a4 fe       	sbrs	r10, 4
    71e8:	0f c0       	rjmp	.+30     	; 0x7208 <vfprintf+0x312>
    71ea:	fe 01       	movw	r30, r28
    71ec:	e8 0d       	add	r30, r8
    71ee:	f1 1d       	adc	r31, r1
    71f0:	80 81       	ld	r24, Z
    71f2:	80 33       	cpi	r24, 0x30	; 48
    71f4:	21 f4       	brne	.+8      	; 0x71fe <vfprintf+0x308>
    71f6:	9a 2d       	mov	r25, r10
    71f8:	99 7e       	andi	r25, 0xE9	; 233
    71fa:	a9 2e       	mov	r10, r25
    71fc:	09 c0       	rjmp	.+18     	; 0x7210 <vfprintf+0x31a>
    71fe:	a2 fe       	sbrs	r10, 2
    7200:	06 c0       	rjmp	.+12     	; 0x720e <vfprintf+0x318>
    7202:	b3 94       	inc	r11
    7204:	b3 94       	inc	r11
    7206:	04 c0       	rjmp	.+8      	; 0x7210 <vfprintf+0x31a>
    7208:	8a 2d       	mov	r24, r10
    720a:	86 78       	andi	r24, 0x86	; 134
    720c:	09 f0       	breq	.+2      	; 0x7210 <vfprintf+0x31a>
    720e:	b3 94       	inc	r11
    7210:	a3 fc       	sbrc	r10, 3
    7212:	10 c0       	rjmp	.+32     	; 0x7234 <vfprintf+0x33e>
    7214:	a0 fe       	sbrs	r10, 0
    7216:	06 c0       	rjmp	.+12     	; 0x7224 <vfprintf+0x32e>
    7218:	b2 14       	cp	r11, r2
    721a:	80 f4       	brcc	.+32     	; 0x723c <vfprintf+0x346>
    721c:	28 0c       	add	r2, r8
    721e:	92 2c       	mov	r9, r2
    7220:	9b 18       	sub	r9, r11
    7222:	0d c0       	rjmp	.+26     	; 0x723e <vfprintf+0x348>
    7224:	b2 14       	cp	r11, r2
    7226:	58 f4       	brcc	.+22     	; 0x723e <vfprintf+0x348>
    7228:	b6 01       	movw	r22, r12
    722a:	80 e2       	ldi	r24, 0x20	; 32
    722c:	90 e0       	ldi	r25, 0x00	; 0
    722e:	76 d0       	rcall	.+236    	; 0x731c <fputc>
    7230:	b3 94       	inc	r11
    7232:	f8 cf       	rjmp	.-16     	; 0x7224 <vfprintf+0x32e>
    7234:	b2 14       	cp	r11, r2
    7236:	18 f4       	brcc	.+6      	; 0x723e <vfprintf+0x348>
    7238:	2b 18       	sub	r2, r11
    723a:	02 c0       	rjmp	.+4      	; 0x7240 <vfprintf+0x34a>
    723c:	98 2c       	mov	r9, r8
    723e:	21 2c       	mov	r2, r1
    7240:	a4 fe       	sbrs	r10, 4
    7242:	0f c0       	rjmp	.+30     	; 0x7262 <vfprintf+0x36c>
    7244:	b6 01       	movw	r22, r12
    7246:	80 e3       	ldi	r24, 0x30	; 48
    7248:	90 e0       	ldi	r25, 0x00	; 0
    724a:	68 d0       	rcall	.+208    	; 0x731c <fputc>
    724c:	a2 fe       	sbrs	r10, 2
    724e:	16 c0       	rjmp	.+44     	; 0x727c <vfprintf+0x386>
    7250:	a1 fc       	sbrc	r10, 1
    7252:	03 c0       	rjmp	.+6      	; 0x725a <vfprintf+0x364>
    7254:	88 e7       	ldi	r24, 0x78	; 120
    7256:	90 e0       	ldi	r25, 0x00	; 0
    7258:	02 c0       	rjmp	.+4      	; 0x725e <vfprintf+0x368>
    725a:	88 e5       	ldi	r24, 0x58	; 88
    725c:	90 e0       	ldi	r25, 0x00	; 0
    725e:	b6 01       	movw	r22, r12
    7260:	0c c0       	rjmp	.+24     	; 0x727a <vfprintf+0x384>
    7262:	8a 2d       	mov	r24, r10
    7264:	86 78       	andi	r24, 0x86	; 134
    7266:	51 f0       	breq	.+20     	; 0x727c <vfprintf+0x386>
    7268:	a1 fe       	sbrs	r10, 1
    726a:	02 c0       	rjmp	.+4      	; 0x7270 <vfprintf+0x37a>
    726c:	8b e2       	ldi	r24, 0x2B	; 43
    726e:	01 c0       	rjmp	.+2      	; 0x7272 <vfprintf+0x37c>
    7270:	80 e2       	ldi	r24, 0x20	; 32
    7272:	a7 fc       	sbrc	r10, 7
    7274:	8d e2       	ldi	r24, 0x2D	; 45
    7276:	b6 01       	movw	r22, r12
    7278:	90 e0       	ldi	r25, 0x00	; 0
    727a:	50 d0       	rcall	.+160    	; 0x731c <fputc>
    727c:	89 14       	cp	r8, r9
    727e:	30 f4       	brcc	.+12     	; 0x728c <vfprintf+0x396>
    7280:	b6 01       	movw	r22, r12
    7282:	80 e3       	ldi	r24, 0x30	; 48
    7284:	90 e0       	ldi	r25, 0x00	; 0
    7286:	4a d0       	rcall	.+148    	; 0x731c <fputc>
    7288:	9a 94       	dec	r9
    728a:	f8 cf       	rjmp	.-16     	; 0x727c <vfprintf+0x386>
    728c:	8a 94       	dec	r8
    728e:	f3 01       	movw	r30, r6
    7290:	e8 0d       	add	r30, r8
    7292:	f1 1d       	adc	r31, r1
    7294:	80 81       	ld	r24, Z
    7296:	b6 01       	movw	r22, r12
    7298:	90 e0       	ldi	r25, 0x00	; 0
    729a:	40 d0       	rcall	.+128    	; 0x731c <fputc>
    729c:	81 10       	cpse	r8, r1
    729e:	f6 cf       	rjmp	.-20     	; 0x728c <vfprintf+0x396>
    72a0:	22 20       	and	r2, r2
    72a2:	09 f4       	brne	.+2      	; 0x72a6 <vfprintf+0x3b0>
    72a4:	4e ce       	rjmp	.-868    	; 0x6f42 <vfprintf+0x4c>
    72a6:	b6 01       	movw	r22, r12
    72a8:	80 e2       	ldi	r24, 0x20	; 32
    72aa:	90 e0       	ldi	r25, 0x00	; 0
    72ac:	37 d0       	rcall	.+110    	; 0x731c <fputc>
    72ae:	2a 94       	dec	r2
    72b0:	f7 cf       	rjmp	.-18     	; 0x72a0 <vfprintf+0x3aa>
    72b2:	f6 01       	movw	r30, r12
    72b4:	86 81       	ldd	r24, Z+6	; 0x06
    72b6:	97 81       	ldd	r25, Z+7	; 0x07
    72b8:	02 c0       	rjmp	.+4      	; 0x72be <vfprintf+0x3c8>
    72ba:	8f ef       	ldi	r24, 0xFF	; 255
    72bc:	9f ef       	ldi	r25, 0xFF	; 255
    72be:	2b 96       	adiw	r28, 0x0b	; 11
    72c0:	0f b6       	in	r0, 0x3f	; 63
    72c2:	f8 94       	cli
    72c4:	de bf       	out	0x3e, r29	; 62
    72c6:	0f be       	out	0x3f, r0	; 63
    72c8:	cd bf       	out	0x3d, r28	; 61
    72ca:	df 91       	pop	r29
    72cc:	cf 91       	pop	r28
    72ce:	1f 91       	pop	r17
    72d0:	0f 91       	pop	r16
    72d2:	ff 90       	pop	r15
    72d4:	ef 90       	pop	r14
    72d6:	df 90       	pop	r13
    72d8:	cf 90       	pop	r12
    72da:	bf 90       	pop	r11
    72dc:	af 90       	pop	r10
    72de:	9f 90       	pop	r9
    72e0:	8f 90       	pop	r8
    72e2:	7f 90       	pop	r7
    72e4:	6f 90       	pop	r6
    72e6:	5f 90       	pop	r5
    72e8:	4f 90       	pop	r4
    72ea:	3f 90       	pop	r3
    72ec:	2f 90       	pop	r2
    72ee:	08 95       	ret

000072f0 <strnlen_P>:
    72f0:	fc 01       	movw	r30, r24
    72f2:	05 90       	lpm	r0, Z+
    72f4:	61 50       	subi	r22, 0x01	; 1
    72f6:	70 40       	sbci	r23, 0x00	; 0
    72f8:	01 10       	cpse	r0, r1
    72fa:	d8 f7       	brcc	.-10     	; 0x72f2 <strnlen_P+0x2>
    72fc:	80 95       	com	r24
    72fe:	90 95       	com	r25
    7300:	8e 0f       	add	r24, r30
    7302:	9f 1f       	adc	r25, r31
    7304:	08 95       	ret

00007306 <strnlen>:
    7306:	fc 01       	movw	r30, r24
    7308:	61 50       	subi	r22, 0x01	; 1
    730a:	70 40       	sbci	r23, 0x00	; 0
    730c:	01 90       	ld	r0, Z+
    730e:	01 10       	cpse	r0, r1
    7310:	d8 f7       	brcc	.-10     	; 0x7308 <strnlen+0x2>
    7312:	80 95       	com	r24
    7314:	90 95       	com	r25
    7316:	8e 0f       	add	r24, r30
    7318:	9f 1f       	adc	r25, r31
    731a:	08 95       	ret

0000731c <fputc>:
    731c:	0f 93       	push	r16
    731e:	1f 93       	push	r17
    7320:	cf 93       	push	r28
    7322:	df 93       	push	r29
    7324:	fb 01       	movw	r30, r22
    7326:	23 81       	ldd	r18, Z+3	; 0x03
    7328:	21 fd       	sbrc	r18, 1
    732a:	03 c0       	rjmp	.+6      	; 0x7332 <fputc+0x16>
    732c:	8f ef       	ldi	r24, 0xFF	; 255
    732e:	9f ef       	ldi	r25, 0xFF	; 255
    7330:	2c c0       	rjmp	.+88     	; 0x738a <fputc+0x6e>
    7332:	22 ff       	sbrs	r18, 2
    7334:	16 c0       	rjmp	.+44     	; 0x7362 <fputc+0x46>
    7336:	46 81       	ldd	r20, Z+6	; 0x06
    7338:	57 81       	ldd	r21, Z+7	; 0x07
    733a:	24 81       	ldd	r18, Z+4	; 0x04
    733c:	35 81       	ldd	r19, Z+5	; 0x05
    733e:	42 17       	cp	r20, r18
    7340:	53 07       	cpc	r21, r19
    7342:	44 f4       	brge	.+16     	; 0x7354 <fputc+0x38>
    7344:	a0 81       	ld	r26, Z
    7346:	b1 81       	ldd	r27, Z+1	; 0x01
    7348:	9d 01       	movw	r18, r26
    734a:	2f 5f       	subi	r18, 0xFF	; 255
    734c:	3f 4f       	sbci	r19, 0xFF	; 255
    734e:	31 83       	std	Z+1, r19	; 0x01
    7350:	20 83       	st	Z, r18
    7352:	8c 93       	st	X, r24
    7354:	26 81       	ldd	r18, Z+6	; 0x06
    7356:	37 81       	ldd	r19, Z+7	; 0x07
    7358:	2f 5f       	subi	r18, 0xFF	; 255
    735a:	3f 4f       	sbci	r19, 0xFF	; 255
    735c:	37 83       	std	Z+7, r19	; 0x07
    735e:	26 83       	std	Z+6, r18	; 0x06
    7360:	14 c0       	rjmp	.+40     	; 0x738a <fputc+0x6e>
    7362:	8b 01       	movw	r16, r22
    7364:	ec 01       	movw	r28, r24
    7366:	fb 01       	movw	r30, r22
    7368:	00 84       	ldd	r0, Z+8	; 0x08
    736a:	f1 85       	ldd	r31, Z+9	; 0x09
    736c:	e0 2d       	mov	r30, r0
    736e:	19 95       	eicall
    7370:	89 2b       	or	r24, r25
    7372:	e1 f6       	brne	.-72     	; 0x732c <fputc+0x10>
    7374:	d8 01       	movw	r26, r16
    7376:	16 96       	adiw	r26, 0x06	; 6
    7378:	8d 91       	ld	r24, X+
    737a:	9c 91       	ld	r25, X
    737c:	17 97       	sbiw	r26, 0x07	; 7
    737e:	01 96       	adiw	r24, 0x01	; 1
    7380:	17 96       	adiw	r26, 0x07	; 7
    7382:	9c 93       	st	X, r25
    7384:	8e 93       	st	-X, r24
    7386:	16 97       	sbiw	r26, 0x06	; 6
    7388:	ce 01       	movw	r24, r28
    738a:	df 91       	pop	r29
    738c:	cf 91       	pop	r28
    738e:	1f 91       	pop	r17
    7390:	0f 91       	pop	r16
    7392:	08 95       	ret

00007394 <__ultoa_invert>:
    7394:	fa 01       	movw	r30, r20
    7396:	aa 27       	eor	r26, r26
    7398:	28 30       	cpi	r18, 0x08	; 8
    739a:	51 f1       	breq	.+84     	; 0x73f0 <__ultoa_invert+0x5c>
    739c:	20 31       	cpi	r18, 0x10	; 16
    739e:	81 f1       	breq	.+96     	; 0x7400 <__ultoa_invert+0x6c>
    73a0:	e8 94       	clt
    73a2:	6f 93       	push	r22
    73a4:	6e 7f       	andi	r22, 0xFE	; 254
    73a6:	6e 5f       	subi	r22, 0xFE	; 254
    73a8:	7f 4f       	sbci	r23, 0xFF	; 255
    73aa:	8f 4f       	sbci	r24, 0xFF	; 255
    73ac:	9f 4f       	sbci	r25, 0xFF	; 255
    73ae:	af 4f       	sbci	r26, 0xFF	; 255
    73b0:	b1 e0       	ldi	r27, 0x01	; 1
    73b2:	3e d0       	rcall	.+124    	; 0x7430 <__ultoa_invert+0x9c>
    73b4:	b4 e0       	ldi	r27, 0x04	; 4
    73b6:	3c d0       	rcall	.+120    	; 0x7430 <__ultoa_invert+0x9c>
    73b8:	67 0f       	add	r22, r23
    73ba:	78 1f       	adc	r23, r24
    73bc:	89 1f       	adc	r24, r25
    73be:	9a 1f       	adc	r25, r26
    73c0:	a1 1d       	adc	r26, r1
    73c2:	68 0f       	add	r22, r24
    73c4:	79 1f       	adc	r23, r25
    73c6:	8a 1f       	adc	r24, r26
    73c8:	91 1d       	adc	r25, r1
    73ca:	a1 1d       	adc	r26, r1
    73cc:	6a 0f       	add	r22, r26
    73ce:	71 1d       	adc	r23, r1
    73d0:	81 1d       	adc	r24, r1
    73d2:	91 1d       	adc	r25, r1
    73d4:	a1 1d       	adc	r26, r1
    73d6:	20 d0       	rcall	.+64     	; 0x7418 <__ultoa_invert+0x84>
    73d8:	09 f4       	brne	.+2      	; 0x73dc <__ultoa_invert+0x48>
    73da:	68 94       	set
    73dc:	3f 91       	pop	r19
    73de:	2a e0       	ldi	r18, 0x0A	; 10
    73e0:	26 9f       	mul	r18, r22
    73e2:	11 24       	eor	r1, r1
    73e4:	30 19       	sub	r19, r0
    73e6:	30 5d       	subi	r19, 0xD0	; 208
    73e8:	31 93       	st	Z+, r19
    73ea:	de f6       	brtc	.-74     	; 0x73a2 <__ultoa_invert+0xe>
    73ec:	cf 01       	movw	r24, r30
    73ee:	08 95       	ret
    73f0:	46 2f       	mov	r20, r22
    73f2:	47 70       	andi	r20, 0x07	; 7
    73f4:	40 5d       	subi	r20, 0xD0	; 208
    73f6:	41 93       	st	Z+, r20
    73f8:	b3 e0       	ldi	r27, 0x03	; 3
    73fa:	0f d0       	rcall	.+30     	; 0x741a <__ultoa_invert+0x86>
    73fc:	c9 f7       	brne	.-14     	; 0x73f0 <__ultoa_invert+0x5c>
    73fe:	f6 cf       	rjmp	.-20     	; 0x73ec <__ultoa_invert+0x58>
    7400:	46 2f       	mov	r20, r22
    7402:	4f 70       	andi	r20, 0x0F	; 15
    7404:	40 5d       	subi	r20, 0xD0	; 208
    7406:	4a 33       	cpi	r20, 0x3A	; 58
    7408:	18 f0       	brcs	.+6      	; 0x7410 <__ultoa_invert+0x7c>
    740a:	49 5d       	subi	r20, 0xD9	; 217
    740c:	31 fd       	sbrc	r19, 1
    740e:	40 52       	subi	r20, 0x20	; 32
    7410:	41 93       	st	Z+, r20
    7412:	02 d0       	rcall	.+4      	; 0x7418 <__ultoa_invert+0x84>
    7414:	a9 f7       	brne	.-22     	; 0x7400 <__ultoa_invert+0x6c>
    7416:	ea cf       	rjmp	.-44     	; 0x73ec <__ultoa_invert+0x58>
    7418:	b4 e0       	ldi	r27, 0x04	; 4
    741a:	a6 95       	lsr	r26
    741c:	97 95       	ror	r25
    741e:	87 95       	ror	r24
    7420:	77 95       	ror	r23
    7422:	67 95       	ror	r22
    7424:	ba 95       	dec	r27
    7426:	c9 f7       	brne	.-14     	; 0x741a <__ultoa_invert+0x86>
    7428:	00 97       	sbiw	r24, 0x00	; 0
    742a:	61 05       	cpc	r22, r1
    742c:	71 05       	cpc	r23, r1
    742e:	08 95       	ret
    7430:	9b 01       	movw	r18, r22
    7432:	ac 01       	movw	r20, r24
    7434:	0a 2e       	mov	r0, r26
    7436:	06 94       	lsr	r0
    7438:	57 95       	ror	r21
    743a:	47 95       	ror	r20
    743c:	37 95       	ror	r19
    743e:	27 95       	ror	r18
    7440:	ba 95       	dec	r27
    7442:	c9 f7       	brne	.-14     	; 0x7436 <__ultoa_invert+0xa2>
    7444:	62 0f       	add	r22, r18
    7446:	73 1f       	adc	r23, r19
    7448:	84 1f       	adc	r24, r20
    744a:	95 1f       	adc	r25, r21
    744c:	a0 1d       	adc	r26, r0
    744e:	08 95       	ret

00007450 <_exit>:
    7450:	f8 94       	cli

00007452 <__stop_program>:
    7452:	ff cf       	rjmp	.-2      	; 0x7452 <__stop_program>
